ARM GAS  /tmp/ccoB6Fi8.s 			page 1


   1              		.syntax unified
   2              		.cpu cortex-m4
   3              		.fpu softvfp
   4              		.eabi_attribute 20, 1
   5              		.eabi_attribute 21, 1
   6              		.eabi_attribute 23, 3
   7              		.eabi_attribute 24, 1
   8              		.eabi_attribute 25, 1
   9              		.eabi_attribute 26, 1
  10              		.eabi_attribute 30, 2
  11              		.eabi_attribute 18, 4
  12              		.thumb
  13              		.file	"chcond.c"
  20 0000 96020000 		.text
  20      02006801 
  20      00000201 
  20      FB0E0D00 
  20      01010101 
  21              	.Ltext0:
  22              		.cfi_sections	.debug_frame
  23              		.section	.text.chCondInit,"ax",%progbits
  24              		.align	2
  25              		.p2align 4,,15
  26              		.global	chCondInit
  27              		.thumb
  28              		.thumb_func
  29              		.type	chCondInit, %function
  30              	chCondInit:
  31              	.LFB7:
  32              		.file 1 "../ChibiOS_2.6.2/os/kernel/src/chcond.c"
  33              		.loc 1 59 0
  34              		.cfi_startproc
  35              		@ args = 0, pretend = 0, frame = 0
  36              		@ frame_needed = 0, uses_anonymous_args = 0
  37              		@ link register save eliminated.
  38              	.LVL0:
  39              		.loc 1 63 0
  40 0000 4060     		str	r0, [r0, #4]
  41 0002 0060     		str	r0, [r0, #0]
  42              		.loc 1 64 0
  43 0004 7047     		bx	lr
  44              		.cfi_endproc
  45              	.LFE7:
  46              		.size	chCondInit, .-chCondInit
  47 0006 00BFAFF3 		.section	.text.chCondSignal,"ax",%progbits
  47      0080AFF3 
  47      0080
  48              		.align	2
  49              		.p2align 4,,15
  50              		.global	chCondSignal
  51              		.thumb
ARM GAS  /tmp/ccoB6Fi8.s 			page 2


  52              		.thumb_func
  53              		.type	chCondSignal, %function
  54              	chCondSignal:
  55              	.LFB8:
  56              		.loc 1 73 0
  57              		.cfi_startproc
  58              		@ args = 0, pretend = 0, frame = 0
  59              		@ frame_needed = 0, uses_anonymous_args = 0
  60              	.LVL1:
  61 0000 08B5     		push	{r3, lr}
  62              	.LCFI0:
  63              		.cfi_def_cfa_offset 8
  64              		.loc 1 73 0
  65 0002 0246     		mov	r2, r0
  66              	.LBB14:
  67              		.loc 1 77 0
  68 0004 2023     		movs	r3, #32
  69              		.cfi_offset 14, -4
  70              		.cfi_offset 3, -8
  71              	.LVL2:
  72              	@ 77 "../ChibiOS_2.6.2/os/kernel/src/chcond.c" 1
  73 0006 83F31188 		msr     BASEPRI, r3
  74              	@ 0 "" 2
  75              	.LVL3:
  76              		.thumb
  77              	.LBE14:
  78              		.loc 1 78 0
  79 000a 0068     		ldr	r0, [r0, #0]
  80              	.LVL4:
  81 000c 9042     		cmp	r0, r2
  82 000e 05D0     		beq	.L3
  83              	.LVL5:
  84              	.LBB15:
  85              	.LBB16:
  86              		.file 2 "../ChibiOS_2.6.2/os/kernel/include/chinline.h"
  87              		.loc 2 62 0
  88 0010 0368     		ldr	r3, [r0, #0]
  89              	.LVL6:
  90              	.LBE16:
  91              	.LBE15:
  92              		.loc 1 79 0
  93 0012 0021     		movs	r1, #0
  94              	.LBB18:
  95              	.LBB17:
  96              		.loc 2 62 0
  97 0014 1360     		str	r3, [r2, #0]
  98 0016 5A60     		str	r2, [r3, #4]
  99              	.LBE17:
 100              	.LBE18:
 101              		.loc 1 79 0
 102 0018 FFF7FEFF 		bl	chSchWakeupS
 103              	.LVL7:
 104              	.L3:
 105              	.LBB19:
 106              		.loc 1 80 0
 107 001c 0023     		movs	r3, #0
 108              	.LVL8:
ARM GAS  /tmp/ccoB6Fi8.s 			page 3


 109              	@ 80 "../ChibiOS_2.6.2/os/kernel/src/chcond.c" 1
 110 001e 83F31188 		msr     BASEPRI, r3
 111              	@ 0 "" 2
 112              	.LVL9:
 113              		.thumb
 114              	.LBE19:
 115              		.loc 1 81 0
 116 0022 08BD     		pop	{r3, pc}
 117              		.cfi_endproc
 118              	.LFE8:
 119              		.size	chCondSignal, .-chCondSignal
 120 0024 AFF30080 		.section	.text.chCondSignalI,"ax",%progbits
 120      AFF30080 
 120      AFF30080 
 121              		.align	2
 122              		.p2align 4,,15
 123              		.global	chCondSignalI
 124              		.thumb
 125              		.thumb_func
 126              		.type	chCondSignalI, %function
 127              	chCondSignalI:
 128              	.LFB9:
 129              		.loc 1 94 0
 130              		.cfi_startproc
 131              		@ args = 0, pretend = 0, frame = 0
 132              		@ frame_needed = 0, uses_anonymous_args = 0
 133              	.LVL10:
 134 0000 08B5     		push	{r3, lr}
 135              	.LCFI1:
 136              		.cfi_def_cfa_offset 8
 137              		.loc 1 94 0
 138 0002 0346     		mov	r3, r0
 139              		.cfi_offset 14, -4
 140              		.cfi_offset 3, -8
 141              		.loc 1 99 0
 142 0004 0068     		ldr	r0, [r0, #0]
 143              	.LVL11:
 144 0006 9842     		cmp	r0, r3
 145 0008 06D0     		beq	.L5
 146              	.LVL12:
 147              	.LBB20:
 148              	.LBB21:
 149              		.loc 2 62 0
 150 000a 0268     		ldr	r2, [r0, #0]
 151 000c 1A60     		str	r2, [r3, #0]
 152 000e 5360     		str	r3, [r2, #4]
 153              	.LBE21:
 154              	.LBE20:
 155              		.loc 1 100 0
 156 0010 FFF7FEFF 		bl	chSchReadyI
 157              	.LVL13:
 158 0014 0023     		movs	r3, #0
 159 0016 4362     		str	r3, [r0, #36]
 160              	.L5:
 161 0018 08BD     		pop	{r3, pc}
 162              		.cfi_endproc
 163              	.LFE9:
ARM GAS  /tmp/ccoB6Fi8.s 			page 4


 164              		.size	chCondSignalI, .-chCondSignalI
 165 001a 00BFAFF3 		.section	.text.chCondBroadcastI,"ax",%progbits
 165      0080
 166              		.align	2
 167              		.p2align 4,,15
 168              		.global	chCondBroadcastI
 169              		.thumb
 170              		.thumb_func
 171              		.type	chCondBroadcastI, %function
 172              	chCondBroadcastI:
 173              	.LFB11:
 174              		.loc 1 129 0
 175              		.cfi_startproc
 176              		@ args = 0, pretend = 0, frame = 0
 177              		@ frame_needed = 0, uses_anonymous_args = 0
 178              	.LVL14:
 179 0000 38B5     		push	{r3, r4, r5, lr}
 180              	.LCFI2:
 181              		.cfi_def_cfa_offset 16
 182              		.loc 1 129 0
 183 0002 0446     		mov	r4, r0
 184              		.cfi_offset 14, -4
 185              		.cfi_offset 5, -8
 186              		.cfi_offset 4, -12
 187              		.cfi_offset 3, -16
 188              		.loc 1 137 0
 189 0004 0068     		ldr	r0, [r0, #0]
 190              	.LVL15:
 191 0006 A042     		cmp	r0, r4
 192 0008 0AD0     		beq	.L7
 193              		.loc 1 138 0
 194 000a 6FF00105 		mvn	r5, #1
 195              	.L10:
 196              	.LVL16:
 197              	.LBB22:
 198              	.LBB23:
 199              		.loc 2 62 0
 200 000e 0368     		ldr	r3, [r0, #0]
 201 0010 2360     		str	r3, [r4, #0]
 202 0012 5C60     		str	r4, [r3, #4]
 203              	.LBE23:
 204              	.LBE22:
 205              		.loc 1 138 0
 206 0014 FFF7FEFF 		bl	chSchReadyI
 207              	.LVL17:
 208 0018 4562     		str	r5, [r0, #36]
 209              		.loc 1 137 0
 210 001a 2068     		ldr	r0, [r4, #0]
 211 001c A042     		cmp	r0, r4
 212 001e F6D1     		bne	.L10
 213              	.LVL18:
 214              	.L7:
 215 0020 38BD     		pop	{r3, r4, r5, pc}
 216              		.cfi_endproc
 217              	.LFE11:
 218              		.size	chCondBroadcastI, .-chCondBroadcastI
 219 0022 00BFAFF3 		.section	.text.chCondBroadcast,"ax",%progbits
ARM GAS  /tmp/ccoB6Fi8.s 			page 5


 219      0080AFF3 
 219      0080AFF3 
 219      0080
 220              		.align	2
 221              		.p2align 4,,15
 222              		.global	chCondBroadcast
 223              		.thumb
 224              		.thumb_func
 225              		.type	chCondBroadcast, %function
 226              	chCondBroadcast:
 227              	.LFB10:
 228              		.loc 1 110 0
 229              		.cfi_startproc
 230              		@ args = 0, pretend = 0, frame = 0
 231              		@ frame_needed = 0, uses_anonymous_args = 0
 232              	.LVL19:
 233 0000 08B5     		push	{r3, lr}
 234              	.LCFI3:
 235              		.cfi_def_cfa_offset 8
 236              	.LBB24:
 237              		.loc 1 112 0
 238 0002 2023     		movs	r3, #32
 239              		.cfi_offset 14, -4
 240              		.cfi_offset 3, -8
 241              	.LVL20:
 242              	@ 112 "../ChibiOS_2.6.2/os/kernel/src/chcond.c" 1
 243 0004 83F31188 		msr     BASEPRI, r3
 244              	@ 0 "" 2
 245              	.LVL21:
 246              		.thumb
 247              	.LBE24:
 248              		.loc 1 113 0
 249 0008 FFF7FEFF 		bl	chCondBroadcastI
 250              	.LVL22:
 251              		.loc 1 114 0
 252 000c FFF7FEFF 		bl	chSchRescheduleS
 253              	.LBB25:
 254              		.loc 1 115 0
 255 0010 0023     		movs	r3, #0
 256              	.LVL23:
 257              	@ 115 "../ChibiOS_2.6.2/os/kernel/src/chcond.c" 1
 258 0012 83F31188 		msr     BASEPRI, r3
 259              	@ 0 "" 2
 260              	.LVL24:
 261              		.thumb
 262              	.LBE25:
 263              		.loc 1 116 0
 264 0016 08BD     		pop	{r3, pc}
 265              		.cfi_endproc
 266              	.LFE10:
 267              		.size	chCondBroadcast, .-chCondBroadcast
 268 0018 AFF30080 		.section	.text.chCondWaitS,"ax",%progbits
 268      AFF30080 
 269              		.align	2
 270              		.p2align 4,,15
 271              		.global	chCondWaitS
 272              		.thumb
ARM GAS  /tmp/ccoB6Fi8.s 			page 6


 273              		.thumb_func
 274              		.type	chCondWaitS, %function
 275              	chCondWaitS:
 276              	.LFB13:
 277              		.loc 1 184 0
 278              		.cfi_startproc
 279              		@ args = 0, pretend = 0, frame = 0
 280              		@ frame_needed = 0, uses_anonymous_args = 0
 281              	.LVL25:
 282              		.loc 1 185 0
 283 0000 40F20003 		movw	r3, #:lower16:rlist
 284 0004 C0F20003 		movt	r3, #:upper16:rlist
 285              		.loc 1 184 0
 286 0008 70B5     		push	{r4, r5, r6, lr}
 287              	.LCFI4:
 288              		.cfi_def_cfa_offset 16
 289              		.loc 1 184 0
 290 000a 0546     		mov	r5, r0
 291              		.cfi_offset 14, -4
 292              		.cfi_offset 6, -8
 293              		.cfi_offset 5, -12
 294              		.cfi_offset 4, -16
 295              		.loc 1 185 0
 296 000c 9C69     		ldr	r4, [r3, #24]
 297              	.LVL26:
 298              		.loc 1 195 0
 299 000e FFF7FEFF 		bl	chMtxUnlockS
 300              	.LVL27:
 301              		.loc 1 196 0
 302 0012 6562     		str	r5, [r4, #36]
 303              		.loc 1 195 0
 304 0014 0646     		mov	r6, r0
 305              	.LVL28:
 306              	.LBB26:
 307              	.LBB27:
 308              		.loc 2 43 0
 309 0016 2B46     		mov	r3, r5
 310              	.LVL29:
 311 0018 2A46     		mov	r2, r5
 312 001a 03E0     		b	.L15
 313              	.LVL30:
 314              	.L18:
 315              		.loc 2 46 0
 316 001c 9068     		ldr	r0, [r2, #8]
 317 001e A168     		ldr	r1, [r4, #8]
 318 0020 8842     		cmp	r0, r1
 319 0022 10D3     		bcc	.L17
 320              	.L15:
 321              		.loc 2 45 0
 322 0024 1268     		ldr	r2, [r2, #0]
 323              	.LVL31:
 324              		.loc 2 46 0
 325 0026 9542     		cmp	r5, r2
 326 0028 F8D1     		bne	.L18
 327              	.L14:
 328              		.loc 2 48 0
 329 002a 5A68     		ldr	r2, [r3, #4]
ARM GAS  /tmp/ccoB6Fi8.s 			page 7


 330              	.LVL32:
 331              		.loc 2 47 0
 332 002c 2360     		str	r3, [r4, #0]
 333              		.loc 2 48 0
 334 002e 6260     		str	r2, [r4, #4]
 335              		.loc 2 49 0
 336 0030 1460     		str	r4, [r2, #0]
 337 0032 5C60     		str	r4, [r3, #4]
 338              	.LBE27:
 339              	.LBE26:
 340              		.loc 1 198 0
 341 0034 0520     		movs	r0, #5
 342 0036 FFF7FEFF 		bl	chSchGoSleepS
 343              		.loc 1 199 0
 344 003a 646A     		ldr	r4, [r4, #36]
 345              	.LVL33:
 346              		.loc 1 200 0
 347 003c 3046     		mov	r0, r6
 348 003e FFF7FEFF 		bl	chMtxLockS
 349              		.loc 1 202 0
 350 0042 2046     		mov	r0, r4
 351 0044 70BD     		pop	{r4, r5, r6, pc}
 352              	.LVL34:
 353              	.L17:
 354              	.LBB29:
 355              	.LBB28:
 356              		.loc 2 45 0
 357 0046 1346     		mov	r3, r2
 358 0048 EFE7     		b	.L14
 359              	.LBE28:
 360              	.LBE29:
 361              		.cfi_endproc
 362              	.LFE13:
 363              		.size	chCondWaitS, .-chCondWaitS
 364 004a 00BFAFF3 		.section	.text.chCondWait,"ax",%progbits
 364      0080
 365              		.align	2
 366              		.p2align 4,,15
 367              		.global	chCondWait
 368              		.thumb
 369              		.thumb_func
 370              		.type	chCondWait, %function
 371              	chCondWait:
 372              	.LFB12:
 373              		.loc 1 158 0
 374              		.cfi_startproc
 375              		@ args = 0, pretend = 0, frame = 0
 376              		@ frame_needed = 0, uses_anonymous_args = 0
 377              	.LVL35:
 378 0000 08B5     		push	{r3, lr}
 379              	.LCFI5:
 380              		.cfi_def_cfa_offset 8
 381              	.LBB30:
 382              		.loc 1 161 0
 383 0002 2023     		movs	r3, #32
 384              		.cfi_offset 14, -4
 385              		.cfi_offset 3, -8
ARM GAS  /tmp/ccoB6Fi8.s 			page 8


 386              	.LVL36:
 387              	@ 161 "../ChibiOS_2.6.2/os/kernel/src/chcond.c" 1
 388 0004 83F31188 		msr     BASEPRI, r3
 389              	@ 0 "" 2
 390              	.LVL37:
 391              		.thumb
 392              	.LBE30:
 393              		.loc 1 162 0
 394 0008 FFF7FEFF 		bl	chCondWaitS
 395              	.LVL38:
 396              	.LBB31:
 397              		.loc 1 163 0
 398 000c 0023     		movs	r3, #0
 399              	.LVL39:
 400              	@ 163 "../ChibiOS_2.6.2/os/kernel/src/chcond.c" 1
 401 000e 83F31188 		msr     BASEPRI, r3
 402              	@ 0 "" 2
 403              	.LVL40:
 404              		.thumb
 405              	.LBE31:
 406              		.loc 1 165 0
 407 0012 08BD     		pop	{r3, pc}
 408              		.cfi_endproc
 409              	.LFE12:
 410              		.size	chCondWait, .-chCondWait
 411 0014 AFF30080 		.section	.text.chCondWaitTimeoutS,"ax",%progbits
 411      AFF30080 
 411      AFF30080 
 412              		.align	2
 413              		.p2align 4,,15
 414              		.global	chCondWaitTimeoutS
 415              		.thumb
 416              		.thumb_func
 417              		.type	chCondWaitTimeoutS, %function
 418              	chCondWaitTimeoutS:
 419              	.LFB15:
 420              		.loc 1 270 0
 421              		.cfi_startproc
 422              		@ args = 0, pretend = 0, frame = 0
 423              		@ frame_needed = 0, uses_anonymous_args = 0
 424              	.LVL41:
 425 0000 F8B5     		push	{r3, r4, r5, r6, r7, lr}
 426              	.LCFI6:
 427              		.cfi_def_cfa_offset 24
 428              		.loc 1 270 0
 429 0002 0446     		mov	r4, r0
 430              		.cfi_offset 14, -4
 431              		.cfi_offset 7, -8
 432              		.cfi_offset 6, -12
 433              		.cfi_offset 5, -16
 434              		.cfi_offset 4, -20
 435              		.cfi_offset 3, -24
 436 0004 0E46     		mov	r6, r1
 437              		.loc 1 280 0
 438 0006 FFF7FEFF 		bl	chMtxUnlockS
 439              	.LVL42:
 440              		.loc 1 281 0
ARM GAS  /tmp/ccoB6Fi8.s 			page 9


 441 000a 40F20003 		movw	r3, #:lower16:rlist
 442 000e C0F20003 		movt	r3, #:upper16:rlist
 443              		.loc 1 280 0
 444 0012 0546     		mov	r5, r0
 445              	.LVL43:
 446              		.loc 1 281 0
 447 0014 9869     		ldr	r0, [r3, #24]
 448              	.LVL44:
 449              	.LBB32:
 450              	.LBB34:
 451              		.loc 2 43 0
 452 0016 2746     		mov	r7, r4
 453 0018 2346     		mov	r3, r4
 454              	.LBE34:
 455              	.LBE32:
 456              		.loc 1 281 0
 457 001a 4462     		str	r4, [r0, #36]
 458              	.LVL45:
 459 001c 03E0     		b	.L22
 460              	.LVL46:
 461              	.L26:
 462              	.LBB36:
 463              	.LBB33:
 464              		.loc 2 46 0
 465 001e 9968     		ldr	r1, [r3, #8]
 466 0020 8268     		ldr	r2, [r0, #8]
 467 0022 9142     		cmp	r1, r2
 468 0024 14D3     		bcc	.L25
 469              	.L22:
 470              		.loc 2 45 0
 471 0026 1B68     		ldr	r3, [r3, #0]
 472              	.LVL47:
 473              		.loc 2 46 0
 474 0028 9C42     		cmp	r4, r3
 475 002a F8D1     		bne	.L26
 476              	.L21:
 477              		.loc 2 48 0
 478 002c 7C68     		ldr	r4, [r7, #4]
 479              	.LVL48:
 480              		.loc 2 47 0
 481 002e 0760     		str	r7, [r0, #0]
 482              		.loc 2 48 0
 483 0030 4460     		str	r4, [r0, #4]
 484              		.loc 2 49 0
 485 0032 2060     		str	r0, [r4, #0]
 486 0034 7860     		str	r0, [r7, #4]
 487              	.LBE33:
 488              	.LBE36:
 489              		.loc 1 283 0
 490 0036 3146     		mov	r1, r6
 491 0038 0520     		movs	r0, #5
 492 003a FFF7FEFF 		bl	chSchGoSleepTimeoutS
 493              	.LVL49:
 494              		.loc 1 284 0
 495 003e B0F1FF3F 		cmp	r0, #-1
 496              		.loc 1 283 0
 497 0042 0446     		mov	r4, r0
ARM GAS  /tmp/ccoB6Fi8.s 			page 10


 498              	.LVL50:
 499              		.loc 1 284 0
 500 0044 02D0     		beq	.L23
 501              		.loc 1 285 0
 502 0046 2846     		mov	r0, r5
 503              	.LVL51:
 504 0048 FFF7FEFF 		bl	chMtxLockS
 505              	.L23:
 506              		.loc 1 287 0
 507 004c 2046     		mov	r0, r4
 508 004e F8BD     		pop	{r3, r4, r5, r6, r7, pc}
 509              	.LVL52:
 510              	.L25:
 511              	.LBB37:
 512              	.LBB35:
 513              		.loc 2 45 0
 514 0050 1F46     		mov	r7, r3
 515 0052 EBE7     		b	.L21
 516              	.LBE35:
 517              	.LBE37:
 518              		.cfi_endproc
 519              	.LFE15:
 520              		.size	chCondWaitTimeoutS, .-chCondWaitTimeoutS
 521 0054 AFF30080 		.section	.text.chCondWaitTimeout,"ax",%progbits
 521      AFF30080 
 521      AFF30080 
 522              		.align	2
 523              		.p2align 4,,15
 524              		.global	chCondWaitTimeout
 525              		.thumb
 526              		.thumb_func
 527              		.type	chCondWaitTimeout, %function
 528              	chCondWaitTimeout:
 529              	.LFB14:
 530              		.loc 1 233 0
 531              		.cfi_startproc
 532              		@ args = 0, pretend = 0, frame = 0
 533              		@ frame_needed = 0, uses_anonymous_args = 0
 534              	.LVL53:
 535 0000 08B5     		push	{r3, lr}
 536              	.LCFI7:
 537              		.cfi_def_cfa_offset 8
 538              	.LBB38:
 539              		.loc 1 236 0
 540 0002 2023     		movs	r3, #32
 541              		.cfi_offset 14, -4
 542              		.cfi_offset 3, -8
 543              	.LVL54:
 544              	@ 236 "../ChibiOS_2.6.2/os/kernel/src/chcond.c" 1
 545 0004 83F31188 		msr     BASEPRI, r3
 546              	@ 0 "" 2
 547              	.LVL55:
 548              		.thumb
 549              	.LBE38:
 550              		.loc 1 237 0
 551 0008 FFF7FEFF 		bl	chCondWaitTimeoutS
 552              	.LVL56:
ARM GAS  /tmp/ccoB6Fi8.s 			page 11


 553              	.LBB39:
 554              		.loc 1 238 0
 555 000c 0023     		movs	r3, #0
 556              	.LVL57:
 557              	@ 238 "../ChibiOS_2.6.2/os/kernel/src/chcond.c" 1
 558 000e 83F31188 		msr     BASEPRI, r3
 559              	@ 0 "" 2
 560              	.LVL58:
 561              		.thumb
 562              	.LBE39:
 563              		.loc 1 240 0
 564 0012 08BD     		pop	{r3, pc}
 565              		.cfi_endproc
 566              	.LFE14:
 567              		.size	chCondWaitTimeout, .-chCondWaitTimeout
 568 0014 AFF30080 		.text
 568      AFF30080 
 568      AFF30080 
 569              	.Letext0: