ARM GAS  /tmp/ccKETeLa.s 			page 1


   1              		.syntax unified
   2              		.cpu cortex-m4
   3              		.fpu softvfp
   4              		.eabi_attribute 20, 1
   5              		.eabi_attribute 21, 1
   6              		.eabi_attribute 23, 3
   7              		.eabi_attribute 24, 1
   8              		.eabi_attribute 25, 1
   9              		.eabi_attribute 26, 1
  10              		.eabi_attribute 30, 2
  11              		.eabi_attribute 18, 4
  12              		.thumb
  13              		.file	"chibios.c"
  20 0000 16030000 		.text
  20      02003202 
  20      00000201 
  20      FB0E0D00 
  20      01010101 
  21              	.Ltext0:
  22              		.cfi_sections	.debug_frame
  23              		.section	.text._gosInit,"ax",%progbits
  24              		.align	2
  25              		.p2align 4,,15
  26              		.global	_gosInit
  27              		.thumb
  28              		.thumb_func
  29              		.type	_gosInit, %function
  30              	_gosInit:
  31              	.LFB118:
  32              		.file 1 "../ChibiOS_2.6.2/ext/ugfx/src/gos/chibios.c"
  33              		.loc 1 26 0
  34              		.cfi_startproc
  35              		@ args = 0, pretend = 0, frame = 0
  36              		@ frame_needed = 0, uses_anonymous_args = 0
  37              		.loc 1 28 0
  38 0000 40F20000 		movw	r0, #:lower16:rlist
  39 0004 C0F20000 		movt	r0, #:upper16:rlist
  40              		.loc 1 26 0
  41 0008 10B5     		push	{r4, lr}
  42              	.LCFI0:
  43              		.cfi_def_cfa_offset 8
  44              		.loc 1 28 0
  45 000a 8369     		ldr	r3, [r0, #24]
  46 000c 03B1     		cbz	r3, .L4
  47              		.cfi_offset 14, -4
  48              		.cfi_offset 4, -8
  49 000e 10BD     		pop	{r4, pc}
  50              	.L4:
  51              		.loc 1 29 0
  52 0010 FFF7FEFF 		bl	halInit
  53              		.loc 1 32 0
ARM GAS  /tmp/ccKETeLa.s 			page 2


  54 0014 BDE81040 		pop	{r4, lr}
  55              		.loc 1 30 0
  56 0018 FFF7FEBF 		b	chSysInit
  57              		.cfi_endproc
  58              	.LFE118:
  59              		.size	_gosInit, .-_gosInit
  60 001c AFF30080 		.section	.text.gfxRealloc,"ax",%progbits
  61              		.align	2
  62              		.p2align 4,,15
  63              		.global	gfxRealloc
  64              		.thumb
  65              		.thumb_func
  66              		.type	gfxRealloc, %function
  67              	gfxRealloc:
  68              	.LFB119:
  69              		.loc 1 34 0
  70              		.cfi_startproc
  71              		@ args = 0, pretend = 0, frame = 0
  72              		@ frame_needed = 0, uses_anonymous_args = 0
  73              	.LVL0:
  74              		.loc 1 37 0
  75 0000 8A42     		cmp	r2, r1
  76              		.loc 1 34 0
  77 0002 70B5     		push	{r4, r5, r6, lr}
  78              	.LCFI1:
  79              		.cfi_def_cfa_offset 16
  80              		.loc 1 34 0
  81 0004 0C46     		mov	r4, r1
  82              		.cfi_offset 14, -4
  83              		.cfi_offset 6, -8
  84              		.cfi_offset 5, -12
  85              		.cfi_offset 4, -16
  86 0006 0646     		mov	r6, r0
  87              		.loc 1 37 0
  88 0008 01D8     		bhi	.L9
  89              	.LVL1:
  90              	.L6:
  91              		.loc 1 48 0
  92 000a 3046     		mov	r0, r6
  93 000c 70BD     		pop	{r4, r5, r6, pc}
  94              	.LVL2:
  95              	.L9:
  96              		.loc 1 40 0
  97 000e 0020     		movs	r0, #0
  98              	.LVL3:
  99 0010 1146     		mov	r1, r2
 100 0012 FFF7FEFF 		bl	chHeapAlloc
 101              	.LVL4:
 102              		.loc 1 41 0
 103 0016 0546     		mov	r5, r0
 104 0018 00B1     		cbz	r0, .L8
 105              		.loc 1 44 0
 106 001a 0CB9     		cbnz	r4, .L10
 107              	.L8:
 108 001c 2E46     		mov	r6, r5
 109              	.LVL5:
 110 001e F4E7     		b	.L6
ARM GAS  /tmp/ccKETeLa.s 			page 3


 111              	.LVL6:
 112              	.L10:
 113              		.loc 1 45 0
 114 0020 3146     		mov	r1, r6
 115 0022 2246     		mov	r2, r4
 116 0024 FFF7FEFF 		bl	memcpy
 117              	.LVL7:
 118 0028 2E46     		mov	r6, r5
 119              	.LVL8:
 120 002a EEE7     		b	.L6
 121              		.cfi_endproc
 122              	.LFE119:
 123              		.size	gfxRealloc, .-gfxRealloc
 124 002c AFF30080 		.section	.text.gfxSleepMilliseconds,"ax",%progbits
 125              		.align	2
 126              		.p2align 4,,15
 127              		.global	gfxSleepMilliseconds
 128              		.thumb
 129              		.thumb_func
 130              		.type	gfxSleepMilliseconds, %function
 131              	gfxSleepMilliseconds:
 132              	.LFB120:
 133              		.loc 1 50 0
 134              		.cfi_startproc
 135              		@ args = 0, pretend = 0, frame = 0
 136              		@ frame_needed = 0, uses_anonymous_args = 0
 137              		@ link register save eliminated.
 138              	.LVL9:
 139              		.loc 1 51 0
 140 0000 08B9     		cbnz	r0, .L17
 141              		.loc 1 56 0
 142              		.loc 1 52 0
 143 0002 FFF7FEBF 		b	chThdYield
 144              	.LVL10:
 145              	.L17:
 146              		.loc 1 51 0
 147 0006 B0F1FF3F 		cmp	r0, #-1
 148 000a 0CD0     		beq	.L16
 149              		.loc 1 54 0
 150 000c 4FF47A7C 		mov	ip, #1000
 151 0010 0CFB00F0 		mul	r0, ip, r0
 152              	.LVL11:
 153 0014 44F6D351 		movw	r1, #19923
 154 0018 431E     		subs	r3, r0, #1
 155 001a C1F26201 		movt	r1, 4194
 156 001e A1FB0312 		umull	r1, r2, r1, r3
 157 0022 9009     		lsrs	r0, r2, #6
 158 0024 0130     		adds	r0, r0, #1
 159              	.L16:
 160              		.loc 1 56 0
 161              		.loc 1 54 0
 162 0026 FFF7FEBF 		b	chThdSleep
 163              		.cfi_endproc
 164              	.LFE120:
 165              		.size	gfxSleepMilliseconds, .-gfxSleepMilliseconds
 166 002a 00BFAFF3 		.section	.text.gfxSleepMicroseconds,"ax",%progbits
 166      0080
ARM GAS  /tmp/ccKETeLa.s 			page 4


 167              		.align	2
 168              		.p2align 4,,15
 169              		.global	gfxSleepMicroseconds
 170              		.thumb
 171              		.thumb_func
 172              		.type	gfxSleepMicroseconds, %function
 173              	gfxSleepMicroseconds:
 174              	.LFB121:
 175              		.loc 1 58 0
 176              		.cfi_startproc
 177              		@ args = 0, pretend = 0, frame = 0
 178              		@ frame_needed = 0, uses_anonymous_args = 0
 179              		@ link register save eliminated.
 180              	.LVL12:
 181              		.loc 1 59 0
 182 0000 00B9     		cbnz	r0, .L24
 183 0002 7047     		bx	lr
 184              	.L24:
 185 0004 B0F1FF3F 		cmp	r0, #-1
 186 0008 0CD0     		beq	.L23
 187              		.loc 1 62 0
 188 000a 4FF47A7C 		mov	ip, #1000
 189 000e 0CFB00F0 		mul	r0, ip, r0
 190              	.LVL13:
 191 0012 4DF68361 		movw	r1, #56963
 192 0016 431E     		subs	r3, r0, #1
 193 0018 C4F21B31 		movt	r1, 17179
 194 001c A1FB0312 		umull	r1, r2, r1, r3
 195 0020 900C     		lsrs	r0, r2, #18
 196 0022 0130     		adds	r0, r0, #1
 197              	.L23:
 198              		.loc 1 64 0
 199              		.loc 1 62 0
 200 0024 FFF7FEBF 		b	chThdSleep
 201              		.cfi_endproc
 202              	.LFE121:
 203              		.size	gfxSleepMicroseconds, .-gfxSleepMicroseconds
 204 0028 AFF30080 		.section	.text.gfxSemInit,"ax",%progbits
 204      AFF30080 
 205              		.align	2
 206              		.p2align 4,,15
 207              		.global	gfxSemInit
 208              		.thumb
 209              		.thumb_func
 210              		.type	gfxSemInit, %function
 211              	gfxSemInit:
 212              	.LFB122:
 213              		.loc 1 66 0
 214              		.cfi_startproc
 215              		@ args = 0, pretend = 0, frame = 0
 216              		@ frame_needed = 0, uses_anonymous_args = 0
 217              		@ link register save eliminated.
 218              	.LVL14:
 219              		.loc 1 71 0
 220 0000 8A42     		cmp	r2, r1
 221 0002 B8BF     		it	lt
 222 0004 1146     		movlt	r1, r2
ARM GAS  /tmp/ccKETeLa.s 			page 5


 223              	.LVL15:
 224              		.loc 1 70 0
 225 0006 C260     		str	r2, [r0, #12]
 226              		.loc 1 72 0
 227              		.loc 1 71 0
 228 0008 FFF7FEBF 		b	chSemInit
 229              		.cfi_endproc
 230              	.LFE122:
 231              		.size	gfxSemInit, .-gfxSemInit
 232 000c AFF30080 		.section	.text.gfxSemDestroy,"ax",%progbits
 233              		.align	2
 234              		.p2align 4,,15
 235              		.global	gfxSemDestroy
 236              		.thumb
 237              		.thumb_func
 238              		.type	gfxSemDestroy, %function
 239              	gfxSemDestroy:
 240              	.LFB123:
 241              		.loc 1 74 0
 242              		.cfi_startproc
 243              		@ args = 0, pretend = 0, frame = 0
 244              		@ frame_needed = 0, uses_anonymous_args = 0
 245              		@ link register save eliminated.
 246              	.LVL16:
 247              		.loc 1 75 0
 248 0000 0121     		movs	r1, #1
 249              		.loc 1 76 0
 250              		.loc 1 75 0
 251 0002 FFF7FEBF 		b	chSemReset
 252              		.cfi_endproc
 253              	.LFE123:
 254              		.size	gfxSemDestroy, .-gfxSemDestroy
 255 0006 00BFAFF3 		.section	.text.gfxSemWait,"ax",%progbits
 255      0080AFF3 
 255      0080
 256              		.align	2
 257              		.p2align 4,,15
 258              		.global	gfxSemWait
 259              		.thumb
 260              		.thumb_func
 261              		.type	gfxSemWait, %function
 262              	gfxSemWait:
 263              	.LFB124:
 264              		.loc 1 78 0
 265              		.cfi_startproc
 266              		@ args = 0, pretend = 0, frame = 0
 267              		@ frame_needed = 0, uses_anonymous_args = 0
 268              	.LVL17:
 269              		.loc 1 79 0
 270 0000 B1F1FF3F 		cmp	r1, #-1
 271              		.loc 1 78 0
 272 0004 08B5     		push	{r3, lr}
 273              	.LCFI2:
 274              		.cfi_def_cfa_offset 8
 275              		.loc 1 79 0
 276 0006 13D0     		beq	.L30
 277              		.cfi_offset 14, -4
ARM GAS  /tmp/ccKETeLa.s 			page 6


 278              		.cfi_offset 3, -8
 279              		.loc 1 84 0
 280 0008 4FF47A7E 		mov	lr, #1000
 281 000c 0EFB01F1 		mul	r1, lr, r1
 282              	.LVL18:
 283 0010 44F6D35C 		movw	ip, #19923
 284 0014 4A1E     		subs	r2, r1, #1
 285 0016 C1F2620C 		movt	ip, 4194
 286 001a ACFB0223 		umull	r2, r3, ip, r2
 287 001e 9909     		lsrs	r1, r3, #6
 288 0020 0131     		adds	r1, r1, #1
 289 0022 FFF7FEFF 		bl	chSemWaitTimeout
 290              	.LVL19:
 291 0026 B0F1FF30 		subs	r0, r0, #-1
 292 002a 18BF     		it	ne
 293 002c 0120     		movne	r0, #1
 294              		.loc 1 85 0
 295 002e 08BD     		pop	{r3, pc}
 296              	.LVL20:
 297              	.L30:
 298              		.loc 1 80 0
 299 0030 FFF7FEFF 		bl	chSemWait
 300              	.LVL21:
 301              		.loc 1 81 0
 302 0034 0120     		movs	r0, #1
 303 0036 08BD     		pop	{r3, pc}
 304              		.cfi_endproc
 305              	.LFE124:
 306              		.size	gfxSemWait, .-gfxSemWait
 307 0038 AFF30080 		.section	.text.gfxSemSignal,"ax",%progbits
 307      AFF30080 
 308              		.align	2
 309              		.p2align 4,,15
 310              		.global	gfxSemSignal
 311              		.thumb
 312              		.thumb_func
 313              		.type	gfxSemSignal, %function
 314              	gfxSemSignal:
 315              	.LFB125:
 316              		.loc 1 87 0
 317              		.cfi_startproc
 318              		@ args = 0, pretend = 0, frame = 0
 319              		@ frame_needed = 0, uses_anonymous_args = 0
 320              	.LVL22:
 321 0000 08B5     		push	{r3, lr}
 322              	.LCFI3:
 323              		.cfi_def_cfa_offset 8
 324              	.LBB2:
 325              		.loc 1 88 0
 326 0002 2023     		movs	r3, #32
 327              		.cfi_offset 14, -4
 328              		.cfi_offset 3, -8
 329              	.LVL23:
 330              	@ 88 "../ChibiOS_2.6.2/ext/ugfx/src/gos/chibios.c" 1
 331 0004 83F31188 		msr     BASEPRI, r3
 332              	@ 0 "" 2
 333              	.LVL24:
ARM GAS  /tmp/ccKETeLa.s 			page 7


 334              		.thumb
 335              	.LBE2:
 336              		.loc 1 90 0
 337 0008 8168     		ldr	r1, [r0, #8]
 338 000a C368     		ldr	r3, [r0, #12]
 339              	.LVL25:
 340 000c 9942     		cmp	r1, r3
 341 000e 01DA     		bge	.L32
 342              		.loc 1 91 0
 343 0010 FFF7FEFF 		bl	chSemSignalI
 344              	.LVL26:
 345              	.L32:
 346              		.loc 1 93 0
 347 0014 FFF7FEFF 		bl	chSchRescheduleS
 348              	.LBB3:
 349              		.loc 1 94 0
 350 0018 0023     		movs	r3, #0
 351              	.LVL27:
 352              	@ 94 "../ChibiOS_2.6.2/ext/ugfx/src/gos/chibios.c" 1
 353 001a 83F31188 		msr     BASEPRI, r3
 354              	@ 0 "" 2
 355              	.LVL28:
 356              		.thumb
 357              	.LBE3:
 358              		.loc 1 95 0
 359 001e 08BD     		pop	{r3, pc}
 360              		.cfi_endproc
 361              	.LFE125:
 362              		.size	gfxSemSignal, .-gfxSemSignal
 363              		.section	.text.gfxSemSignalI,"ax",%progbits
 364              		.align	2
 365              		.p2align 4,,15
 366              		.global	gfxSemSignalI
 367              		.thumb
 368              		.thumb_func
 369              		.type	gfxSemSignalI, %function
 370              	gfxSemSignalI:
 371              	.LFB126:
 372              		.loc 1 97 0
 373              		.cfi_startproc
 374              		@ args = 0, pretend = 0, frame = 0
 375              		@ frame_needed = 0, uses_anonymous_args = 0
 376              		@ link register save eliminated.
 377              	.LVL29:
 378              		.loc 1 98 0
 379 0000 8268     		ldr	r2, [r0, #8]
 380 0002 C368     		ldr	r3, [r0, #12]
 381 0004 9A42     		cmp	r2, r3
 382 0006 00DB     		blt	.L35
 383 0008 7047     		bx	lr
 384              	.L35:
 385              		.loc 1 100 0
 386              		.loc 1 99 0
 387 000a FFF7FEBF 		b	chSemSignalI
 388              		.cfi_endproc
 389              	.LFE126:
 390              		.size	gfxSemSignalI, .-gfxSemSignalI
ARM GAS  /tmp/ccKETeLa.s 			page 8


 391 000e 00BF     		.section	.text.gfxThreadCreate,"ax",%progbits
 392              		.align	2
 393              		.p2align 4,,15
 394              		.global	gfxThreadCreate
 395              		.thumb
 396              		.thumb_func
 397              		.type	gfxThreadCreate, %function
 398              	gfxThreadCreate:
 399              	.LFB127:
 400              		.loc 1 102 0
 401              		.cfi_startproc
 402              		@ args = 4, pretend = 0, frame = 0
 403              		@ frame_needed = 0, uses_anonymous_args = 0
 404              		@ link register save eliminated.
 405              	.LVL30:
 406 0000 30B4     		push	{r4, r5}
 407              	.LCFI4:
 408              		.cfi_def_cfa_offset 8
 409              		.loc 1 102 0
 410 0002 029D     		ldr	r5, [sp, #8]
 411              		.cfi_offset 5, -4
 412              		.cfi_offset 4, -8
 413 0004 0C46     		mov	r4, r1
 414              		.loc 1 103 0
 415 0006 30B9     		cbnz	r0, .L37
 416              	.LVL31:
 417              		.loc 1 105 0
 418 0008 0029     		cmp	r1, #0
 419 000a 08BF     		it	eq
 420 000c 4FF48071 		moveq	r1, #256
 421              		.loc 1 112 0
 422 0010 30BC     		pop	{r4, r5}
 423              		.loc 1 105 0
 424 0012 FFF7FEBF 		b	chThdCreateFromHeap
 425              	.LVL32:
 426              	.L37:
 427              		.loc 1 108 0
 428 0016 11B9     		cbnz	r1, .L41
 429              		.loc 1 112 0
 430 0018 0846     		mov	r0, r1
 431              	.LVL33:
 432 001a 30BC     		pop	{r4, r5}
 433 001c 7047     		bx	lr
 434              	.LVL34:
 435              	.L41:
 436              		.loc 1 111 0
 437 001e 0295     		str	r5, [sp, #8]
 438              		.loc 1 112 0
 439 0020 30BC     		pop	{r4, r5}
 440              		.loc 1 111 0
 441 0022 FFF7FEBF 		b	chThdCreateStatic
 442              		.cfi_endproc
 443              	.LFE127:
 444              		.size	gfxThreadCreate, .-gfxThreadCreate
 445 0026 00BFAFF3 		.text
 445      0080AFF3 
 445      0080
ARM GAS  /tmp/ccKETeLa.s 			page 9


 446              	.Letext0: