ARM GAS  /tmp/ccJB9ulb.s 			page 1


   1              		.syntax unified
   2              		.cpu cortex-m4
   3              		.fpu softvfp
   4              		.eabi_attribute 20, 1
   5              		.eabi_attribute 21, 1
   6              		.eabi_attribute 23, 3
   7              		.eabi_attribute 24, 1
   8              		.eabi_attribute 25, 1
   9              		.eabi_attribute 26, 1
  10              		.eabi_attribute 30, 2
  11              		.eabi_attribute 18, 4
  12              		.thumb
  13              		.file	"chmsg.c"
  20 0000 DC010000 		.text
  20      02005B01 
  20      00000201 
  20      FB0E0D00 
  20      01010101 
  21              	.Ltext0:
  22              		.cfi_sections	.debug_frame
  23              		.section	.text.chMsgSend,"ax",%progbits
  24              		.align	2
  25              		.p2align 4,,15
  26              		.global	chMsgSend
  27              		.thumb
  28              		.thumb_func
  29              		.type	chMsgSend, %function
  30              	chMsgSend:
  31              	.LFB7:
  32              		.file 1 "../ChibiOS_2.6.2/os/kernel/src/chmsg.c"
  33              		.loc 1 75 0
  34              		.cfi_startproc
  35              		@ args = 0, pretend = 0, frame = 0
  36              		@ frame_needed = 0, uses_anonymous_args = 0
  37              	.LVL0:
  38 0000 38B5     		push	{r3, r4, r5, lr}
  39              	.LCFI0:
  40              		.cfi_def_cfa_offset 16
  41              		.loc 1 76 0
  42 0002 40F20004 		movw	r4, #:lower16:rlist
  43              		.cfi_offset 14, -4
  44              		.cfi_offset 5, -8
  45              		.cfi_offset 4, -12
  46              		.cfi_offset 3, -16
  47 0006 C0F20004 		movt	r4, #:upper16:rlist
  48              	.LBB10:
  49              		.loc 1 80 0
  50 000a 2023     		movs	r3, #32
  51              	.LVL1:
  52              	.LBE10:
  53              		.loc 1 76 0
ARM GAS  /tmp/ccJB9ulb.s 			page 2


  54 000c A469     		ldr	r4, [r4, #24]
  55              	.LVL2:
  56              	.LBB11:
  57              		.loc 1 80 0
  58              	@ 80 "../ChibiOS_2.6.2/os/kernel/src/chmsg.c" 1
  59 000e 83F31188 		msr     BASEPRI, r3
  60              	@ 0 "" 2
  61              	.LVL3:
  62              		.thumb
  63              	.LBE11:
  64              		.loc 1 84 0
  65 0012 057F     		ldrb	r5, [r0, #28]	@ zero_extendqisi2
  66              	.LBB12:
  67              	.LBB14:
  68              		.file 2 "../ChibiOS_2.6.2/os/kernel/include/chinline.h"
  69              		.loc 2 55 0
  70 0014 036B     		ldr	r3, [r0, #48]
  71              	.LVL4:
  72              	.LBE14:
  73              	.LBE12:
  74              		.loc 1 81 0
  75 0016 6163     		str	r1, [r4, #52]
  76              		.loc 1 84 0
  77 0018 0C2D     		cmp	r5, #12
  78              		.loc 1 82 0
  79 001a 00F12C01 		add	r1, r0, #44
  80              	.LVL5:
  81              	.LBB16:
  82              	.LBB13:
  83              		.loc 2 54 0
  84 001e 2160     		str	r1, [r4, #0]
  85              	.LBE13:
  86              	.LBE16:
  87              		.loc 1 82 0
  88 0020 6162     		str	r1, [r4, #36]
  89              	.LVL6:
  90              	.LBB17:
  91              	.LBB15:
  92              		.loc 2 55 0
  93 0022 6360     		str	r3, [r4, #4]
  94              		.loc 2 56 0
  95 0024 0463     		str	r4, [r0, #48]
  96 0026 1C60     		str	r4, [r3, #0]
  97              	.LBE15:
  98              	.LBE17:
  99              		.loc 1 84 0
 100 0028 07D0     		beq	.L4
 101              		.loc 1 86 0
 102 002a 0A20     		movs	r0, #10
 103              	.LVL7:
 104 002c FFF7FEFF 		bl	chSchGoSleepS
 105              	.LVL8:
 106              		.loc 1 87 0
 107 0030 606A     		ldr	r0, [r4, #36]
 108              	.LVL9:
 109              	.LBB18:
 110              		.loc 1 88 0
ARM GAS  /tmp/ccJB9ulb.s 			page 3


 111 0032 0023     		movs	r3, #0
 112              	.LVL10:
 113              	@ 88 "../ChibiOS_2.6.2/os/kernel/src/chmsg.c" 1
 114 0034 83F31188 		msr     BASEPRI, r3
 115              	@ 0 "" 2
 116              	.LVL11:
 117              		.thumb
 118              	.LBE18:
 119              		.loc 1 90 0
 120 0038 38BD     		pop	{r3, r4, r5, pc}
 121              	.LVL12:
 122              	.L4:
 123              		.loc 1 85 0
 124 003a FFF7FEFF 		bl	chSchReadyI
 125              	.LVL13:
 126              		.loc 1 86 0
 127 003e 0A20     		movs	r0, #10
 128 0040 FFF7FEFF 		bl	chSchGoSleepS
 129              		.loc 1 87 0
 130 0044 606A     		ldr	r0, [r4, #36]
 131              	.LVL14:
 132              	.LBB19:
 133              		.loc 1 88 0
 134 0046 0023     		movs	r3, #0
 135              	@ 88 "../ChibiOS_2.6.2/os/kernel/src/chmsg.c" 1
 136 0048 83F31188 		msr     BASEPRI, r3
 137              	@ 0 "" 2
 138              	.LVL15:
 139              		.thumb
 140              	.LBE19:
 141              		.loc 1 90 0
 142 004c 38BD     		pop	{r3, r4, r5, pc}
 143              		.cfi_endproc
 144              	.LFE7:
 145              		.size	chMsgSend, .-chMsgSend
 146 004e 00BF     		.section	.text.chMsgWait,"ax",%progbits
 147              		.align	2
 148              		.p2align 4,,15
 149              		.global	chMsgWait
 150              		.thumb
 151              		.thumb_func
 152              		.type	chMsgWait, %function
 153              	chMsgWait:
 154              	.LFB8:
 155              		.loc 1 106 0
 156              		.cfi_startproc
 157              		@ args = 0, pretend = 0, frame = 0
 158              		@ frame_needed = 0, uses_anonymous_args = 0
 159 0000 10B5     		push	{r4, lr}
 160              	.LCFI1:
 161              		.cfi_def_cfa_offset 8
 162              	.LBB20:
 163              		.loc 1 109 0
 164 0002 2023     		movs	r3, #32
 165              	.LVL16:
 166              	@ 109 "../ChibiOS_2.6.2/os/kernel/src/chmsg.c" 1
 167 0004 83F31188 		msr     BASEPRI, r3
ARM GAS  /tmp/ccJB9ulb.s 			page 4


 168              	@ 0 "" 2
 169              	.LVL17:
 170              		.thumb
 171              	.LBE20:
 172              		.loc 1 110 0
 173 0008 40F20004 		movw	r4, #:lower16:rlist
 174              		.cfi_offset 14, -4
 175              		.cfi_offset 4, -8
 176 000c C0F20004 		movt	r4, #:upper16:rlist
 177 0010 A269     		ldr	r2, [r4, #24]
 178 0012 1346     		mov	r3, r2
 179              	.LVL18:
 180 0014 53F82C0F 		ldr	r0, [r3, #44]!
 181 0018 9842     		cmp	r0, r3
 182 001a 08D0     		beq	.L7
 183              	.L6:
 184              	.LVL19:
 185              	.LBB21:
 186              	.LBB22:
 187              		.loc 2 62 0
 188 001c 0168     		ldr	r1, [r0, #0]
 189 001e 4B60     		str	r3, [r1, #4]
 190              	.LBE22:
 191              	.LBE21:
 192              		.loc 1 113 0
 193 0020 0B23     		movs	r3, #11
 194 0022 0377     		strb	r3, [r0, #28]
 195              	.LBB24:
 196              	.LBB23:
 197              		.loc 2 62 0
 198 0024 D162     		str	r1, [r2, #44]
 199              	.LBE23:
 200              	.LBE24:
 201              	.LBB25:
 202              		.loc 1 114 0
 203 0026 0023     		movs	r3, #0
 204              	.LVL20:
 205              	@ 114 "../ChibiOS_2.6.2/os/kernel/src/chmsg.c" 1
 206 0028 83F31188 		msr     BASEPRI, r3
 207              	@ 0 "" 2
 208              	.LVL21:
 209              		.thumb
 210              	.LBE25:
 211              		.loc 1 116 0
 212 002c 10BD     		pop	{r4, pc}
 213              	.LVL22:
 214              	.L7:
 215              		.loc 1 111 0
 216 002e 0C20     		movs	r0, #12
 217 0030 FFF7FEFF 		bl	chSchGoSleepS
 218 0034 A269     		ldr	r2, [r4, #24]
 219 0036 1346     		mov	r3, r2
 220 0038 53F82C0F 		ldr	r0, [r3, #44]!
 221 003c EEE7     		b	.L6
 222              		.cfi_endproc
 223              	.LFE8:
 224              		.size	chMsgWait, .-chMsgWait
ARM GAS  /tmp/ccJB9ulb.s 			page 5


 225 003e 00BF     		.section	.text.chMsgRelease,"ax",%progbits
 226              		.align	2
 227              		.p2align 4,,15
 228              		.global	chMsgRelease
 229              		.thumb
 230              		.thumb_func
 231              		.type	chMsgRelease, %function
 232              	chMsgRelease:
 233              	.LFB9:
 234              		.loc 1 128 0
 235              		.cfi_startproc
 236              		@ args = 0, pretend = 0, frame = 0
 237              		@ frame_needed = 0, uses_anonymous_args = 0
 238              	.LVL23:
 239 0000 08B5     		push	{r3, lr}
 240              	.LCFI2:
 241              		.cfi_def_cfa_offset 8
 242              	.LBB26:
 243              		.loc 1 130 0
 244 0002 2023     		movs	r3, #32
 245              		.cfi_offset 14, -4
 246              		.cfi_offset 3, -8
 247              	.LVL24:
 248              	@ 130 "../ChibiOS_2.6.2/os/kernel/src/chmsg.c" 1
 249 0004 83F31188 		msr     BASEPRI, r3
 250              	@ 0 "" 2
 251              	.LVL25:
 252              		.thumb
 253              	.LBE26:
 254              		.loc 1 133 0
 255 0008 FFF7FEFF 		bl	chSchWakeupS
 256              	.LVL26:
 257              	.LBB27:
 258              		.loc 1 134 0
 259 000c 0023     		movs	r3, #0
 260              	.LVL27:
 261              	@ 134 "../ChibiOS_2.6.2/os/kernel/src/chmsg.c" 1
 262 000e 83F31188 		msr     BASEPRI, r3
 263              	@ 0 "" 2
 264              	.LVL28:
 265              		.thumb
 266              	.LBE27:
 267              		.loc 1 135 0
 268 0012 08BD     		pop	{r3, pc}
 269              		.cfi_endproc
 270              	.LFE9:
 271              		.size	chMsgRelease, .-chMsgRelease
 272 0014 AFF30080 		.text
 272      AFF30080 
 272      AFF30080 
 273              	.Letext0: