ARM GAS  /tmp/ccai58t1.s 			page 1


   1              		.syntax unified
   2              		.cpu cortex-m4
   3              		.fpu softvfp
   4              		.eabi_attribute 20, 1
   5              		.eabi_attribute 21, 1
   6              		.eabi_attribute 23, 3
   7              		.eabi_attribute 24, 1
   8              		.eabi_attribute 25, 1
   9              		.eabi_attribute 26, 1
  10              		.eabi_attribute 30, 2
  11              		.eabi_attribute 18, 4
  12              		.thumb
  13              		.file	"chmtx.c"
  20 0000 63030000 		.text
  20      02005B01 
  20      00000201 
  20      FB0E0D00 
  20      01010101 
  21              	.Ltext0:
  22              		.cfi_sections	.debug_frame
  23              		.section	.text.chMtxInit,"ax",%progbits
  24              		.align	2
  25              		.p2align 4,,15
  26              		.global	chMtxInit
  27              		.thumb
  28              		.thumb_func
  29              		.type	chMtxInit, %function
  30              	chMtxInit:
  31              	.LFB7:
  32              		.file 1 "../ChibiOS_2.6.2/os/kernel/src/chmtx.c"
  33              		.loc 1 86 0
  34              		.cfi_startproc
  35              		@ args = 0, pretend = 0, frame = 0
  36              		@ frame_needed = 0, uses_anonymous_args = 0
  37              		@ link register save eliminated.
  38              	.LVL0:
  39              		.loc 1 91 0
  40 0000 0023     		movs	r3, #0
  41              		.loc 1 90 0
  42 0002 4060     		str	r0, [r0, #4]
  43 0004 0060     		str	r0, [r0, #0]
  44              		.loc 1 91 0
  45 0006 8360     		str	r3, [r0, #8]
  46              		.loc 1 92 0
  47 0008 7047     		bx	lr
  48              		.cfi_endproc
  49              	.LFE7:
  50              		.size	chMtxInit, .-chMtxInit
  51 000a 00BFAFF3 		.section	.text.chMtxLockS,"ax",%progbits
  51      0080
  52              		.align	2
ARM GAS  /tmp/ccai58t1.s 			page 2


  53              		.p2align 4,,15
  54              		.global	chMtxLockS
  55              		.thumb
  56              		.thumb_func
  57              		.type	chMtxLockS, %function
  58              	chMtxLockS:
  59              	.LFB9:
  60              		.loc 1 121 0
  61              		.cfi_startproc
  62              		@ args = 0, pretend = 0, frame = 0
  63              		@ frame_needed = 0, uses_anonymous_args = 0
  64              	.LVL1:
  65              		.loc 1 122 0
  66 0000 40F20003 		movw	r3, #:lower16:rlist
  67              		.loc 1 121 0
  68 0004 2DE9F041 		push	{r4, r5, r6, r7, r8, lr}
  69              	.LCFI0:
  70              		.cfi_def_cfa_offset 24
  71              		.loc 1 122 0
  72 0008 C0F20003 		movt	r3, #:upper16:rlist
  73              		.loc 1 121 0
  74 000c 0546     		mov	r5, r0
  75              		.cfi_offset 14, -4
  76              		.cfi_offset 8, -8
  77              		.cfi_offset 7, -12
  78              		.cfi_offset 6, -16
  79              		.cfi_offset 5, -20
  80              		.cfi_offset 4, -24
  81              		.loc 1 128 0
  82 000e 8068     		ldr	r0, [r0, #8]
  83              	.LVL2:
  84              		.loc 1 122 0
  85 0010 9C69     		ldr	r4, [r3, #24]
  86              	.LVL3:
  87              		.loc 1 128 0
  88 0012 0028     		cmp	r0, #0
  89 0014 50D0     		beq	.L3
  90              	.LVL4:
  91              	.LBB33:
  92              		.loc 1 135 0 discriminator 1
  93 0016 A268     		ldr	r2, [r4, #8]
  94 0018 8168     		ldr	r1, [r0, #8]
  95 001a 8A42     		cmp	r2, r1
  96 001c 06D9     		bls	.L4
  97              	.LVL5:
  98              	.L18:
  99              		.loc 1 139 0
 100 001e 037F     		ldrb	r3, [r0, #28]	@ zero_extendqisi2
 101              		.loc 1 137 0
 102 0020 8260     		str	r2, [r0, #8]
 103              		.loc 1 139 0
 104 0022 042B     		cmp	r3, #4
 105 0024 30D0     		beq	.L6
 106 0026 052B     		cmp	r3, #5
 107 0028 1BD0     		beq	.L7
 108 002a 93B1     		cbz	r3, .L5
 109              	.LVL6:
ARM GAS  /tmp/ccai58t1.s 			page 3


 110              	.L4:
 111              	.LBB35:
 112              	.LBB36:
 113              		.file 2 "../ChibiOS_2.6.2/os/kernel/include/chinline.h"
 114              		.loc 2 43 0
 115 002c 2B46     		mov	r3, r5
 116              	.LVL7:
 117              	.L14:
 118              		.loc 2 45 0
 119 002e 1B68     		ldr	r3, [r3, #0]
 120              	.LVL8:
 121              		.loc 2 46 0
 122 0030 9D42     		cmp	r5, r3
 123 0032 03D0     		beq	.L13
 124 0034 9868     		ldr	r0, [r3, #8]
 125 0036 A168     		ldr	r1, [r4, #8]
 126 0038 8842     		cmp	r0, r1
 127 003a F8D2     		bcs	.L14
 128              	.L13:
 129              		.loc 2 48 0
 130 003c 5A68     		ldr	r2, [r3, #4]
 131              		.loc 2 47 0
 132 003e 2360     		str	r3, [r4, #0]
 133              	.LBE36:
 134              	.LBE35:
 135              		.loc 1 175 0
 136 0040 0420     		movs	r0, #4
 137              	.LBB34:
 138              	.LBB37:
 139              		.loc 2 48 0
 140 0042 6260     		str	r2, [r4, #4]
 141              		.loc 2 49 0
 142 0044 1460     		str	r4, [r2, #0]
 143 0046 5C60     		str	r4, [r3, #4]
 144              	.LBE37:
 145              	.LBE34:
 146              		.loc 1 174 0
 147 0048 6562     		str	r5, [r4, #36]
 148              	.LBE33:
 149              		.loc 1 187 0
 150 004a BDE8F041 		pop	{r4, r5, r6, r7, r8, lr}
 151              	.LBB62:
 152              		.loc 1 175 0
 153 004e FFF7FEBF 		b	chSchGoSleepS
 154              	.LVL9:
 155              	.L5:
 156              	.LBB38:
 157              	.LBB39:
 158              		.loc 2 75 0
 159 0052 4368     		ldr	r3, [r0, #4]
 160 0054 0268     		ldr	r2, [r0, #0]
 161 0056 1A60     		str	r2, [r3, #0]
 162              		.loc 2 76 0
 163 0058 0168     		ldr	r1, [r0, #0]
 164 005a 4B60     		str	r3, [r1, #4]
 165              	.LBE39:
 166              	.LBE38:
ARM GAS  /tmp/ccai58t1.s 			page 4


 167              		.loc 1 167 0
 168 005c FFF7FEFF 		bl	chSchReadyI
 169              	.LVL10:
 170              		.loc 1 168 0
 171 0060 E4E7     		b	.L4
 172              	.LVL11:
 173              	.L7:
 174              	.LBB40:
 175              	.LBB42:
 176              		.loc 2 75 0
 177 0062 4168     		ldr	r1, [r0, #4]
 178 0064 0768     		ldr	r7, [r0, #0]
 179              	.LBE42:
 180              	.LBE40:
 181              	.LBB44:
 182              	.LBB46:
 183              		.loc 2 43 0
 184 0066 466A     		ldr	r6, [r0, #36]
 185              	.LBE46:
 186              	.LBE44:
 187              	.LBB48:
 188              	.LBB41:
 189              		.loc 2 75 0
 190 0068 0F60     		str	r7, [r1, #0]
 191              		.loc 2 76 0
 192 006a 0768     		ldr	r7, [r0, #0]
 193              	.LBE41:
 194              	.LBE48:
 195              	.LBB49:
 196              	.LBB45:
 197              		.loc 2 43 0
 198 006c 3346     		mov	r3, r6
 199              	.LBE45:
 200              	.LBE49:
 201              	.LBB50:
 202              	.LBB43:
 203              		.loc 2 76 0
 204 006e 7960     		str	r1, [r7, #4]
 205              	.LVL12:
 206              	.L12:
 207              	.LBE43:
 208              	.LBE50:
 209              	.LBB51:
 210              	.LBB47:
 211              		.loc 2 45 0
 212 0070 1B68     		ldr	r3, [r3, #0]
 213              	.LVL13:
 214              		.loc 2 46 0
 215 0072 9E42     		cmp	r6, r3
 216 0074 02D0     		beq	.L11
 217 0076 9968     		ldr	r1, [r3, #8]
 218 0078 9142     		cmp	r1, r2
 219 007a F9D2     		bcs	.L12
 220              	.L11:
 221              		.loc 2 48 0
 222 007c 5A68     		ldr	r2, [r3, #4]
 223              		.loc 2 47 0
ARM GAS  /tmp/ccai58t1.s 			page 5


 224 007e 0360     		str	r3, [r0, #0]
 225              		.loc 2 48 0
 226 0080 4260     		str	r2, [r0, #4]
 227              		.loc 2 49 0
 228 0082 1060     		str	r0, [r2, #0]
 229 0084 5860     		str	r0, [r3, #4]
 230              	.LBE47:
 231              	.LBE51:
 232              		.loc 1 159 0
 233 0086 D1E7     		b	.L4
 234              	.LVL14:
 235              	.L6:
 236              	.LBB52:
 237              	.LBB54:
 238              		.loc 2 75 0
 239 0088 4168     		ldr	r1, [r0, #4]
 240 008a 0768     		ldr	r7, [r0, #0]
 241              	.LBE54:
 242              	.LBE52:
 243              		.loc 1 142 0
 244 008c 466A     		ldr	r6, [r0, #36]
 245              	.LVL15:
 246              	.LBB56:
 247              	.LBB53:
 248              		.loc 2 75 0
 249 008e 0F60     		str	r7, [r1, #0]
 250              		.loc 2 76 0
 251 0090 0768     		ldr	r7, [r0, #0]
 252              	.LBE53:
 253              	.LBE56:
 254              	.LBB57:
 255              	.LBB58:
 256              		.loc 2 43 0
 257 0092 3346     		mov	r3, r6
 258              	.LBE58:
 259              	.LBE57:
 260              	.LBB60:
 261              	.LBB55:
 262              		.loc 2 76 0
 263 0094 7960     		str	r1, [r7, #4]
 264              	.LVL16:
 265              	.L9:
 266              	.LBE55:
 267              	.LBE60:
 268              	.LBB61:
 269              	.LBB59:
 270              		.loc 2 45 0
 271 0096 1B68     		ldr	r3, [r3, #0]
 272              	.LVL17:
 273              		.loc 2 46 0
 274 0098 9E42     		cmp	r6, r3
 275 009a 02D0     		beq	.L8
 276 009c 9968     		ldr	r1, [r3, #8]
 277 009e 9142     		cmp	r1, r2
 278 00a0 F9D2     		bcs	.L9
 279              	.L8:
 280              		.loc 2 48 0
ARM GAS  /tmp/ccai58t1.s 			page 6


 281 00a2 5A68     		ldr	r2, [r3, #4]
 282              		.loc 2 47 0
 283 00a4 0360     		str	r3, [r0, #0]
 284              		.loc 2 48 0
 285 00a6 4260     		str	r2, [r0, #4]
 286              		.loc 2 49 0
 287 00a8 1060     		str	r0, [r2, #0]
 288 00aa 5860     		str	r0, [r3, #4]
 289              	.LBE59:
 290              	.LBE61:
 291              		.loc 1 143 0
 292 00ac B068     		ldr	r0, [r6, #8]
 293              	.LVL18:
 294              		.loc 1 135 0
 295 00ae A268     		ldr	r2, [r4, #8]
 296 00b0 8368     		ldr	r3, [r0, #8]
 297              	.LVL19:
 298 00b2 9342     		cmp	r3, r2
 299 00b4 B3D3     		bcc	.L18
 300 00b6 B9E7     		b	.L4
 301              	.LVL20:
 302              	.L3:
 303              	.LBE62:
 304              		.loc 1 184 0
 305 00b8 E36B     		ldr	r3, [r4, #60]
 306              		.loc 1 183 0
 307 00ba AC60     		str	r4, [r5, #8]
 308              		.loc 1 184 0
 309 00bc EB60     		str	r3, [r5, #12]
 310              		.loc 1 185 0
 311 00be E563     		str	r5, [r4, #60]
 312              		.loc 1 187 0
 313 00c0 BDE8F081 		pop	{r4, r5, r6, r7, r8, pc}
 314              		.cfi_endproc
 315              	.LFE9:
 316              		.size	chMtxLockS, .-chMtxLockS
 317 00c4 AFF30080 		.section	.text.chMtxLock,"ax",%progbits
 317      AFF30080 
 317      AFF30080 
 318              		.align	2
 319              		.p2align 4,,15
 320              		.global	chMtxLock
 321              		.thumb
 322              		.thumb_func
 323              		.type	chMtxLock, %function
 324              	chMtxLock:
 325              	.LFB8:
 326              		.loc 1 103 0
 327              		.cfi_startproc
 328              		@ args = 0, pretend = 0, frame = 0
 329              		@ frame_needed = 0, uses_anonymous_args = 0
 330              	.LVL21:
 331 0000 08B5     		push	{r3, lr}
 332              	.LCFI1:
 333              		.cfi_def_cfa_offset 8
 334              	.LBB63:
 335              		.loc 1 105 0
ARM GAS  /tmp/ccai58t1.s 			page 7


 336 0002 2023     		movs	r3, #32
 337              		.cfi_offset 14, -4
 338              		.cfi_offset 3, -8
 339              	.LVL22:
 340              	@ 105 "../ChibiOS_2.6.2/os/kernel/src/chmtx.c" 1
 341 0004 83F31188 		msr     BASEPRI, r3
 342              	@ 0 "" 2
 343              	.LVL23:
 344              		.thumb
 345              	.LBE63:
 346              		.loc 1 107 0
 347 0008 FFF7FEFF 		bl	chMtxLockS
 348              	.LVL24:
 349              	.LBB64:
 350              		.loc 1 109 0
 351 000c 0023     		movs	r3, #0
 352              	.LVL25:
 353              	@ 109 "../ChibiOS_2.6.2/os/kernel/src/chmtx.c" 1
 354 000e 83F31188 		msr     BASEPRI, r3
 355              	@ 0 "" 2
 356              	.LVL26:
 357              		.thumb
 358              	.LBE64:
 359              		.loc 1 110 0
 360 0012 08BD     		pop	{r3, pc}
 361              		.cfi_endproc
 362              	.LFE8:
 363              		.size	chMtxLock, .-chMtxLock
 364 0014 AFF30080 		.section	.text.chMtxTryLock,"ax",%progbits
 364      AFF30080 
 364      AFF30080 
 365              		.align	2
 366              		.p2align 4,,15
 367              		.global	chMtxTryLock
 368              		.thumb
 369              		.thumb_func
 370              		.type	chMtxTryLock, %function
 371              	chMtxTryLock:
 372              	.LFB10:
 373              		.loc 1 206 0
 374              		.cfi_startproc
 375              		@ args = 0, pretend = 0, frame = 0
 376              		@ frame_needed = 0, uses_anonymous_args = 0
 377              		@ link register save eliminated.
 378              	.LVL27:
 379              		.loc 1 206 0
 380 0000 0246     		mov	r2, r0
 381              	.LBB65:
 382              		.loc 1 209 0
 383 0002 2023     		movs	r3, #32
 384              	.LVL28:
 385              	@ 209 "../ChibiOS_2.6.2/os/kernel/src/chmtx.c" 1
 386 0004 83F31188 		msr     BASEPRI, r3
 387              	@ 0 "" 2
 388              	.LVL29:
 389              		.thumb
 390              	.LBE65:
ARM GAS  /tmp/ccai58t1.s 			page 8


 391              	.LBB66:
 392              	.LBB67:
 393              		.loc 1 239 0
 394 0008 8368     		ldr	r3, [r0, #8]
 395              	.LVL30:
 396 000a 23B1     		cbz	r3, .L28
 397              		.loc 1 240 0
 398 000c 0020     		movs	r0, #0
 399              	.LVL31:
 400              	.LBE67:
 401              	.LBE66:
 402              	.LBB69:
 403              		.loc 1 213 0
 404 000e 0023     		movs	r3, #0
 405              	.LVL32:
 406              	@ 213 "../ChibiOS_2.6.2/os/kernel/src/chmtx.c" 1
 407 0010 83F31188 		msr     BASEPRI, r3
 408              	@ 0 "" 2
 409              	.LVL33:
 410              		.thumb
 411              	.LBE69:
 412              		.loc 1 215 0
 413 0014 7047     		bx	lr
 414              	.LVL34:
 415              	.L28:
 416              	.LBB70:
 417              	.LBB68:
 418              		.loc 1 241 0
 419 0016 40F2000C 		movw	ip, #:lower16:rlist
 420 001a C0F2000C 		movt	ip, #:upper16:rlist
 421              		.loc 1 244 0
 422 001e 0120     		movs	r0, #1
 423              		.loc 1 241 0
 424 0020 DCF81830 		ldr	r3, [ip, #24]
 425              		.loc 1 242 0
 426 0024 D96B     		ldr	r1, [r3, #60]
 427              		.loc 1 241 0
 428 0026 9360     		str	r3, [r2, #8]
 429              		.loc 1 242 0
 430 0028 D160     		str	r1, [r2, #12]
 431              		.loc 1 243 0
 432 002a DA63     		str	r2, [r3, #60]
 433              	.LBE68:
 434              	.LBE70:
 435              	.LBB71:
 436              		.loc 1 213 0
 437 002c 0023     		movs	r3, #0
 438              	@ 213 "../ChibiOS_2.6.2/os/kernel/src/chmtx.c" 1
 439 002e 83F31188 		msr     BASEPRI, r3
 440              	@ 0 "" 2
 441              	.LVL35:
 442              		.thumb
 443              	.LBE71:
 444              		.loc 1 215 0
 445 0032 7047     		bx	lr
 446              		.cfi_endproc
 447              	.LFE10:
ARM GAS  /tmp/ccai58t1.s 			page 9


 448              		.size	chMtxTryLock, .-chMtxTryLock
 449 0034 AFF30080 		.section	.text.chMtxTryLockS,"ax",%progbits
 449      AFF30080 
 449      AFF30080 
 450              		.align	2
 451              		.p2align 4,,15
 452              		.global	chMtxTryLockS
 453              		.thumb
 454              		.thumb_func
 455              		.type	chMtxTryLockS, %function
 456              	chMtxTryLockS:
 457              	.LFB11:
 458              		.loc 1 234 0
 459              		.cfi_startproc
 460              		@ args = 0, pretend = 0, frame = 0
 461              		@ frame_needed = 0, uses_anonymous_args = 0
 462              		@ link register save eliminated.
 463              	.LVL36:
 464              		.loc 1 239 0
 465 0000 8268     		ldr	r2, [r0, #8]
 466              		.loc 1 234 0
 467 0002 0346     		mov	r3, r0
 468              		.loc 1 239 0
 469 0004 0AB1     		cbz	r2, .L32
 470              		.loc 1 240 0
 471 0006 0020     		movs	r0, #0
 472              	.LVL37:
 473              		.loc 1 245 0
 474 0008 7047     		bx	lr
 475              	.L32:
 476              		.loc 1 241 0
 477 000a 40F2000C 		movw	ip, #:lower16:rlist
 478 000e C0F2000C 		movt	ip, #:upper16:rlist
 479              		.loc 1 244 0
 480 0012 0120     		movs	r0, #1
 481              		.loc 1 241 0
 482 0014 DCF81820 		ldr	r2, [ip, #24]
 483              		.loc 1 242 0
 484 0018 D16B     		ldr	r1, [r2, #60]
 485              		.loc 1 241 0
 486 001a 9A60     		str	r2, [r3, #8]
 487              		.loc 1 242 0
 488 001c D960     		str	r1, [r3, #12]
 489              		.loc 1 243 0
 490 001e D363     		str	r3, [r2, #60]
 491              		.loc 1 244 0
 492 0020 7047     		bx	lr
 493              		.cfi_endproc
 494              	.LFE11:
 495              		.size	chMtxTryLockS, .-chMtxTryLockS
 496 0022 00BFAFF3 		.section	.text.chMtxUnlock,"ax",%progbits
 496      0080AFF3 
 496      0080AFF3 
 496      0080
 497              		.align	2
 498              		.p2align 4,,15
 499              		.global	chMtxUnlock
ARM GAS  /tmp/ccai58t1.s 			page 10


 500              		.thumb
 501              		.thumb_func
 502              		.type	chMtxUnlock, %function
 503              	chMtxUnlock:
 504              	.LFB12:
 505              		.loc 1 257 0
 506              		.cfi_startproc
 507              		@ args = 0, pretend = 0, frame = 0
 508              		@ frame_needed = 0, uses_anonymous_args = 0
 509              		.loc 1 258 0
 510 0000 40F20002 		movw	r2, #:lower16:rlist
 511 0004 C0F20002 		movt	r2, #:upper16:rlist
 512              		.loc 1 257 0
 513 0008 F8B5     		push	{r3, r4, r5, r6, r7, lr}
 514              	.LCFI2:
 515              		.cfi_def_cfa_offset 24
 516              		.loc 1 258 0
 517 000a 9269     		ldr	r2, [r2, #24]
 518              	.LVL38:
 519              	.LBB72:
 520              		.loc 1 261 0
 521 000c 2023     		movs	r3, #32
 522              		.cfi_offset 14, -4
 523              		.cfi_offset 7, -8
 524              		.cfi_offset 6, -12
 525              		.cfi_offset 5, -16
 526              		.cfi_offset 4, -20
 527              		.cfi_offset 3, -24
 528              	.LVL39:
 529              	@ 261 "../ChibiOS_2.6.2/os/kernel/src/chmtx.c" 1
 530 000e 83F31188 		msr     BASEPRI, r3
 531              	@ 0 "" 2
 532              	.LVL40:
 533              		.thumb
 534              	.LBE72:
 535              		.loc 1 270 0
 536 0012 D46B     		ldr	r4, [r2, #60]
 537              	.LVL41:
 538              		.loc 1 273 0
 539 0014 2368     		ldr	r3, [r4, #0]
 540              	.LVL42:
 541              		.loc 1 271 0
 542 0016 E168     		ldr	r1, [r4, #12]
 543              		.loc 1 273 0
 544 0018 A342     		cmp	r3, r4
 545              		.loc 1 271 0
 546 001a D163     		str	r1, [r2, #60]
 547              		.loc 1 273 0
 548 001c 1CD0     		beq	.L34
 549              	.LBB73:
 550              		.loc 1 278 0
 551 001e 176C     		ldr	r7, [r2, #64]
 552              	.LVL43:
 553              		.loc 1 280 0
 554 0020 49B1     		cbz	r1, .L35
 555              	.LVL44:
 556              	.L39:
ARM GAS  /tmp/ccai58t1.s 			page 11


 557              		.loc 1 284 0
 558 0022 0868     		ldr	r0, [r1, #0]
 559 0024 8842     		cmp	r0, r1
 560 0026 03D0     		beq	.L36
 561              		.loc 1 284 0 is_stmt 0 discriminator 1
 562 0028 8068     		ldr	r0, [r0, #8]
 563 002a 8742     		cmp	r7, r0
 564 002c 38BF     		it	cc
 565 002e 0746     		movcc	r7, r0
 566              	.LVL45:
 567              	.L36:
 568              		.loc 1 286 0 is_stmt 1
 569 0030 C968     		ldr	r1, [r1, #12]
 570              	.LVL46:
 571              		.loc 1 280 0
 572 0032 0029     		cmp	r1, #0
 573 0034 F5D1     		bne	.L39
 574              	.L35:
 575              	.LBB74:
 576              	.LBB76:
 577              		.loc 2 62 0
 578 0036 1D68     		ldr	r5, [r3, #0]
 579              	.LBE76:
 580              	.LBE74:
 581              		.loc 1 295 0
 582 0038 DE6B     		ldr	r6, [r3, #60]
 583              		.loc 1 290 0
 584 003a 9760     		str	r7, [r2, #8]
 585              	.LVL47:
 586              		.loc 1 297 0
 587 003c 1846     		mov	r0, r3
 588              	.LBB78:
 589              	.LBB75:
 590              		.loc 2 62 0
 591 003e 2560     		str	r5, [r4, #0]
 592              	.LBE75:
 593              	.LBE78:
 594              		.loc 1 297 0
 595 0040 0021     		movs	r1, #0
 596              	.LVL48:
 597              	.LBB79:
 598              	.LBB77:
 599              		.loc 2 62 0
 600 0042 6C60     		str	r4, [r5, #4]
 601              	.LBE77:
 602              	.LBE79:
 603              		.loc 1 294 0
 604 0044 A360     		str	r3, [r4, #8]
 605              		.loc 1 295 0
 606 0046 E660     		str	r6, [r4, #12]
 607              		.loc 1 296 0
 608 0048 DC63     		str	r4, [r3, #60]
 609              		.loc 1 297 0
 610 004a FFF7FEFF 		bl	chSchWakeupS
 611              	.LVL49:
 612              	.LBE73:
 613              	.LBB80:
ARM GAS  /tmp/ccai58t1.s 			page 12


 614              		.loc 1 301 0
 615 004e 0023     		movs	r3, #0
 616              	.LVL50:
 617              	@ 301 "../ChibiOS_2.6.2/os/kernel/src/chmtx.c" 1
 618 0050 83F31188 		msr     BASEPRI, r3
 619              	@ 0 "" 2
 620              	.LVL51:
 621              		.thumb
 622              	.LBE80:
 623              		.loc 1 303 0
 624 0054 2046     		mov	r0, r4
 625 0056 F8BD     		pop	{r3, r4, r5, r6, r7, pc}
 626              	.LVL52:
 627              	.L34:
 628              		.loc 1 300 0
 629 0058 0023     		movs	r3, #0
 630 005a A360     		str	r3, [r4, #8]
 631              	.LBB81:
 632              		.loc 1 301 0
 633 005c 0023     		movs	r3, #0
 634              	@ 301 "../ChibiOS_2.6.2/os/kernel/src/chmtx.c" 1
 635 005e 83F31188 		msr     BASEPRI, r3
 636              	@ 0 "" 2
 637              	.LVL53:
 638              		.thumb
 639              	.LBE81:
 640              		.loc 1 303 0
 641 0062 2046     		mov	r0, r4
 642 0064 F8BD     		pop	{r3, r4, r5, r6, r7, pc}
 643              		.cfi_endproc
 644              	.LFE12:
 645              		.size	chMtxUnlock, .-chMtxUnlock
 646 0066 00BFAFF3 		.section	.text.chMtxUnlockS,"ax",%progbits
 646      0080AFF3 
 646      0080
 647              		.align	2
 648              		.p2align 4,,15
 649              		.global	chMtxUnlockS
 650              		.thumb
 651              		.thumb_func
 652              		.type	chMtxUnlockS, %function
 653              	chMtxUnlockS:
 654              	.LFB13:
 655              		.loc 1 317 0
 656              		.cfi_startproc
 657              		@ args = 0, pretend = 0, frame = 0
 658              		@ frame_needed = 0, uses_anonymous_args = 0
 659              		.loc 1 318 0
 660 0000 40F20003 		movw	r3, #:lower16:rlist
 661 0004 C0F20003 		movt	r3, #:upper16:rlist
 662              		.loc 1 317 0
 663 0008 70B5     		push	{r4, r5, r6, lr}
 664              	.LCFI3:
 665              		.cfi_def_cfa_offset 16
 666              		.loc 1 318 0
 667 000a 9969     		ldr	r1, [r3, #24]
 668              	.LVL54:
ARM GAS  /tmp/ccai58t1.s 			page 13


 669              		.loc 1 331 0
 670 000c CC6B     		ldr	r4, [r1, #60]
 671              		.cfi_offset 14, -4
 672              		.cfi_offset 6, -8
 673              		.cfi_offset 5, -12
 674              		.cfi_offset 4, -16
 675              	.LVL55:
 676              		.loc 1 334 0
 677 000e 2368     		ldr	r3, [r4, #0]
 678              	.LVL56:
 679              		.loc 1 332 0
 680 0010 E268     		ldr	r2, [r4, #12]
 681              		.loc 1 334 0
 682 0012 A342     		cmp	r3, r4
 683              		.loc 1 332 0
 684 0014 CA63     		str	r2, [r1, #60]
 685              		.loc 1 334 0
 686 0016 18D0     		beq	.L42
 687              	.LBB82:
 688              		.loc 1 339 0
 689 0018 0E6C     		ldr	r6, [r1, #64]
 690              	.LVL57:
 691              		.loc 1 341 0
 692 001a 4AB1     		cbz	r2, .L43
 693              	.LVL58:
 694              	.L47:
 695              		.loc 1 345 0
 696 001c 1068     		ldr	r0, [r2, #0]
 697 001e 9042     		cmp	r0, r2
 698 0020 03D0     		beq	.L44
 699              		.loc 1 345 0 is_stmt 0 discriminator 1
 700 0022 8068     		ldr	r0, [r0, #8]
 701 0024 8642     		cmp	r6, r0
 702 0026 38BF     		it	cc
 703 0028 0646     		movcc	r6, r0
 704              	.LVL59:
 705              	.L44:
 706              		.loc 1 347 0 is_stmt 1
 707 002a D268     		ldr	r2, [r2, #12]
 708              	.LVL60:
 709              		.loc 1 341 0
 710 002c 002A     		cmp	r2, #0
 711 002e F5D1     		bne	.L47
 712              	.L43:
 713              	.LBB83:
 714              	.LBB84:
 715              		.loc 2 62 0
 716 0030 1A68     		ldr	r2, [r3, #0]
 717              	.LVL61:
 718              	.LBE84:
 719              	.LBE83:
 720              		.loc 1 354 0
 721 0032 DD6B     		ldr	r5, [r3, #60]
 722              		.loc 1 349 0
 723 0034 8E60     		str	r6, [r1, #8]
 724              	.LVL62:
 725              		.loc 1 356 0
ARM GAS  /tmp/ccai58t1.s 			page 14


 726 0036 1846     		mov	r0, r3
 727              	.LBB86:
 728              	.LBB85:
 729              		.loc 2 62 0
 730 0038 2260     		str	r2, [r4, #0]
 731 003a 5460     		str	r4, [r2, #4]
 732              	.LBE85:
 733              	.LBE86:
 734              		.loc 1 353 0
 735 003c A360     		str	r3, [r4, #8]
 736              		.loc 1 354 0
 737 003e E560     		str	r5, [r4, #12]
 738              		.loc 1 355 0
 739 0040 DC63     		str	r4, [r3, #60]
 740              		.loc 1 356 0
 741 0042 FFF7FEFF 		bl	chSchReadyI
 742              	.LVL63:
 743              	.LBE82:
 744              		.loc 1 361 0
 745 0046 2046     		mov	r0, r4
 746 0048 70BD     		pop	{r4, r5, r6, pc}
 747              	.LVL64:
 748              	.L42:
 749              		.loc 1 359 0
 750 004a 0021     		movs	r1, #0
 751              	.LVL65:
 752 004c A160     		str	r1, [r4, #8]
 753              		.loc 1 361 0
 754 004e 2046     		mov	r0, r4
 755 0050 70BD     		pop	{r4, r5, r6, pc}
 756              		.cfi_endproc
 757              	.LFE13:
 758              		.size	chMtxUnlockS, .-chMtxUnlockS
 759 0052 00BFAFF3 		.section	.text.chMtxUnlockAll,"ax",%progbits
 759      0080AFF3 
 759      0080AFF3 
 759      0080
 760              		.align	2
 761              		.p2align 4,,15
 762              		.global	chMtxUnlockAll
 763              		.thumb
 764              		.thumb_func
 765              		.type	chMtxUnlockAll, %function
 766              	chMtxUnlockAll:
 767              	.LFB14:
 768              		.loc 1 374 0
 769              		.cfi_startproc
 770              		@ args = 0, pretend = 0, frame = 0
 771              		@ frame_needed = 0, uses_anonymous_args = 0
 772              		.loc 1 375 0
 773 0000 40F20002 		movw	r2, #:lower16:rlist
 774 0004 C0F20002 		movt	r2, #:upper16:rlist
 775              		.loc 1 374 0
 776 0008 70B5     		push	{r4, r5, r6, lr}
 777              	.LCFI4:
 778              		.cfi_def_cfa_offset 16
 779              	.LBB87:
ARM GAS  /tmp/ccai58t1.s 			page 15


 780              		.loc 1 377 0
 781 000a 2023     		movs	r3, #32
 782              	.LVL66:
 783              	.LBE87:
 784              		.loc 1 375 0
 785 000c 9469     		ldr	r4, [r2, #24]
 786              		.cfi_offset 14, -4
 787              		.cfi_offset 6, -8
 788              		.cfi_offset 5, -12
 789              		.cfi_offset 4, -16
 790              	.LVL67:
 791              	.LBB88:
 792              		.loc 1 377 0
 793              	@ 377 "../ChibiOS_2.6.2/os/kernel/src/chmtx.c" 1
 794 000e 83F31188 		msr     BASEPRI, r3
 795              	@ 0 "" 2
 796              	.LVL68:
 797              		.thumb
 798              	.LBE88:
 799              		.loc 1 378 0
 800 0012 E36B     		ldr	r3, [r4, #60]
 801              	.LVL69:
 802 0014 CBB1     		cbz	r3, .L50
 803              	.LBB89:
 804              		.loc 1 390 0
 805 0016 0025     		movs	r5, #0
 806              	.LVL70:
 807              	.L54:
 808              		.loc 1 382 0
 809 0018 1A68     		ldr	r2, [r3, #0]
 810              		.loc 1 381 0
 811 001a D968     		ldr	r1, [r3, #12]
 812              		.loc 1 382 0
 813 001c 9A42     		cmp	r2, r3
 814              		.loc 1 381 0
 815 001e E163     		str	r1, [r4, #60]
 816              		.loc 1 390 0
 817 0020 04BF     		itt	eq
 818 0022 9D60     		streq	r5, [r3, #8]
 819 0024 0B46     		moveq	r3, r1
 820              	.LVL71:
 821              		.loc 1 382 0
 822 0026 0AD0     		beq	.L52
 823              	.LVL72:
 824              	.LBB90:
 825              	.LBB91:
 826              	.LBB93:
 827              		.loc 2 62 0
 828 0028 1168     		ldr	r1, [r2, #0]
 829              	.LBE93:
 830              	.LBE91:
 831              		.loc 1 385 0
 832 002a D66B     		ldr	r6, [r2, #60]
 833              	.LBB95:
 834              	.LBB92:
 835              		.loc 2 62 0
 836 002c 1960     		str	r1, [r3, #0]
ARM GAS  /tmp/ccai58t1.s 			page 16


 837              	.LBE92:
 838              	.LBE95:
 839              		.loc 1 387 0
 840 002e 1046     		mov	r0, r2
 841              	.LBB96:
 842              	.LBB94:
 843              		.loc 2 62 0
 844 0030 4B60     		str	r3, [r1, #4]
 845              	.LBE94:
 846              	.LBE96:
 847              		.loc 1 384 0
 848 0032 9A60     		str	r2, [r3, #8]
 849              		.loc 1 385 0
 850 0034 DE60     		str	r6, [r3, #12]
 851              		.loc 1 386 0
 852 0036 D363     		str	r3, [r2, #60]
 853              		.loc 1 387 0
 854 0038 FFF7FEFF 		bl	chSchReadyI
 855              	.LVL73:
 856 003c E36B     		ldr	r3, [r4, #60]
 857              	.LVL74:
 858              	.L52:
 859              	.LBE90:
 860              	.LBE89:
 861              		.loc 1 391 0
 862 003e 002B     		cmp	r3, #0
 863 0040 EAD1     		bne	.L54
 864              		.loc 1 392 0
 865 0042 236C     		ldr	r3, [r4, #64]
 866 0044 A360     		str	r3, [r4, #8]
 867              		.loc 1 393 0
 868 0046 FFF7FEFF 		bl	chSchRescheduleS
 869              	.L50:
 870              	.LBB97:
 871              		.loc 1 395 0
 872 004a 0023     		movs	r3, #0
 873              	.LVL75:
 874              	@ 395 "../ChibiOS_2.6.2/os/kernel/src/chmtx.c" 1
 875 004c 83F31188 		msr     BASEPRI, r3
 876              	@ 0 "" 2
 877              	.LVL76:
 878              		.thumb
 879              	.LBE97:
 880              		.loc 1 396 0
 881 0050 70BD     		pop	{r4, r5, r6, pc}
 882              		.cfi_endproc
 883              	.LFE14:
 884              		.size	chMtxUnlockAll, .-chMtxUnlockAll
 885 0052 00BFAFF3 		.text
 885      0080AFF3 
 885      0080AFF3 
 885      0080
 886              	.Letext0: