ARM GAS  /tmp/cc9ujUVj.s 			page 1


   1              		.syntax unified
   2              		.cpu cortex-m4
   3              		.fpu softvfp
   4              		.eabi_attribute 20, 1
   5              		.eabi_attribute 21, 1
   6              		.eabi_attribute 23, 3
   7              		.eabi_attribute 24, 1
   8              		.eabi_attribute 25, 1
   9              		.eabi_attribute 26, 1
  10              		.eabi_attribute 30, 2
  11              		.eabi_attribute 18, 4
  12              		.thumb
  13              		.file	"chqueues.c"
  20 0000 92030000 		.text
  20      0200CA01 
  20      00000201 
  20      FB0E0D00 
  20      01010101 
  21              	.Ltext0:
  22              		.cfi_sections	.debug_frame
  23              		.section	.text.qwait,"ax",%progbits
  24              		.align	2
  25              		.p2align 4,,15
  26              		.thumb
  27              		.thumb_func
  28              		.type	qwait, %function
  29              	qwait:
  30              	.LFB7:
  31              		.file 1 "../ChibiOS_2.6.2/os/kernel/src/chqueues.c"
  32              		.loc 1 70 0
  33              		.cfi_startproc
  34              		@ args = 0, pretend = 0, frame = 0
  35              		@ frame_needed = 0, uses_anonymous_args = 0
  36              		@ link register save eliminated.
  37              	.LVL0:
  38 0000 10B4     		push	{r4}
  39              	.LCFI0:
  40              		.cfi_def_cfa_offset 4
  41              		.loc 1 70 0
  42 0002 0346     		mov	r3, r0
  43              		.loc 1 72 0
  44 0004 19B9     		cbnz	r1, .L4
  45              		.cfi_offset 4, -4
  46              		.loc 1 77 0
  47 0006 4FF0FF30 		mov	r0, #-1
  48              	.LVL1:
  49 000a 10BC     		pop	{r4}
  50 000c 7047     		bx	lr
  51              	.L4:
  52              		.loc 1 74 0
  53 000e 40F20004 		movw	r4, #:lower16:rlist
ARM GAS  /tmp/cc9ujUVj.s 			page 2


  54 0012 C0F20004 		movt	r4, #:upper16:rlist
  55              		.loc 1 76 0
  56 0016 0D20     		movs	r0, #13
  57              		.loc 1 74 0
  58 0018 A269     		ldr	r2, [r4, #24]
  59 001a 5362     		str	r3, [r2, #36]
  60              	.LVL2:
  61              	.LBB12:
  62              	.LBB13:
  63              		.file 2 "../ChibiOS_2.6.2/os/kernel/include/chinline.h"
  64              		.loc 2 55 0
  65 001c 5C68     		ldr	r4, [r3, #4]
  66              	.LVL3:
  67              		.loc 2 54 0
  68 001e 1360     		str	r3, [r2, #0]
  69              		.loc 2 55 0
  70 0020 5460     		str	r4, [r2, #4]
  71              		.loc 2 56 0
  72 0022 5A60     		str	r2, [r3, #4]
  73 0024 2260     		str	r2, [r4, #0]
  74              	.LBE13:
  75              	.LBE12:
  76              		.loc 1 77 0
  77 0026 10BC     		pop	{r4}
  78              		.loc 1 76 0
  79 0028 FFF7FEBF 		b	chSchGoSleepTimeoutS
  80              		.cfi_endproc
  81              	.LFE7:
  82              		.size	qwait, .-qwait
  83 002c AFF30080 		.section	.text.chIQInit,"ax",%progbits
  84              		.align	2
  85              		.p2align 4,,15
  86              		.global	chIQInit
  87              		.thumb
  88              		.thumb_func
  89              		.type	chIQInit, %function
  90              	chIQInit:
  91              	.LFB8:
  92              		.loc 1 96 0
  93              		.cfi_startproc
  94              		@ args = 4, pretend = 0, frame = 0
  95              		@ frame_needed = 0, uses_anonymous_args = 0
  96              		@ link register save eliminated.
  97              	.LVL4:
  98 0000 10B4     		push	{r4}
  99              	.LCFI1:
 100              		.cfi_def_cfa_offset 4
 101              		.loc 1 102 0
 102 0002 C361     		str	r3, [r0, #28]
 103              		.loc 1 103 0
 104 0004 019B     		ldr	r3, [sp, #4]
 105              	.LVL5:
 106              		.loc 1 98 0
 107 0006 4060     		str	r0, [r0, #4]
 108              		.loc 1 101 0
 109 0008 8A18     		adds	r2, r1, r2
 110              	.LVL6:
ARM GAS  /tmp/cc9ujUVj.s 			page 3


 111              		.loc 1 99 0
 112 000a 0024     		movs	r4, #0
 113              		.cfi_offset 4, -4
 114              		.loc 1 98 0
 115 000c 0060     		str	r0, [r0, #0]
 116              		.loc 1 99 0
 117 000e 8460     		str	r4, [r0, #8]
 118              		.loc 1 100 0
 119 0010 4161     		str	r1, [r0, #20]
 120 0012 8161     		str	r1, [r0, #24]
 121 0014 C160     		str	r1, [r0, #12]
 122              		.loc 1 101 0
 123 0016 0261     		str	r2, [r0, #16]
 124              		.loc 1 103 0
 125 0018 0362     		str	r3, [r0, #32]
 126              		.loc 1 104 0
 127 001a 10BC     		pop	{r4}
 128 001c 7047     		bx	lr
 129              		.cfi_endproc
 130              	.LFE8:
 131              		.size	chIQInit, .-chIQInit
 132 001e 00BF     		.section	.text.chIQResetI,"ax",%progbits
 133              		.align	2
 134              		.p2align 4,,15
 135              		.global	chIQResetI
 136              		.thumb
 137              		.thumb_func
 138              		.type	chIQResetI, %function
 139              	chIQResetI:
 140              	.LFB9:
 141              		.loc 1 117 0
 142              		.cfi_startproc
 143              		@ args = 0, pretend = 0, frame = 0
 144              		@ frame_needed = 0, uses_anonymous_args = 0
 145              	.LVL7:
 146 0000 38B5     		push	{r3, r4, r5, lr}
 147              	.LCFI2:
 148              		.cfi_def_cfa_offset 16
 149              		.loc 1 121 0
 150 0002 C168     		ldr	r1, [r0, #12]
 151              		.loc 1 117 0
 152 0004 0446     		mov	r4, r0
 153              		.cfi_offset 14, -4
 154              		.cfi_offset 5, -8
 155              		.cfi_offset 4, -12
 156              		.cfi_offset 3, -16
 157              		.loc 1 123 0
 158 0006 0068     		ldr	r0, [r0, #0]
 159              	.LVL8:
 160              		.loc 1 121 0
 161 0008 6161     		str	r1, [r4, #20]
 162              		.loc 1 122 0
 163 000a 0023     		movs	r3, #0
 164              		.loc 1 123 0
 165 000c A042     		cmp	r0, r4
 166              		.loc 1 121 0
 167 000e A161     		str	r1, [r4, #24]
ARM GAS  /tmp/cc9ujUVj.s 			page 4


 168              		.loc 1 122 0
 169 0010 A360     		str	r3, [r4, #8]
 170              		.loc 1 123 0
 171 0012 0AD0     		beq	.L6
 172              		.loc 1 124 0
 173 0014 6FF00105 		mvn	r5, #1
 174              	.L9:
 175              	.LVL9:
 176              	.LBB14:
 177              	.LBB15:
 178              		.loc 2 62 0
 179 0018 0268     		ldr	r2, [r0, #0]
 180 001a 2260     		str	r2, [r4, #0]
 181 001c 5460     		str	r4, [r2, #4]
 182              	.LBE15:
 183              	.LBE14:
 184              		.loc 1 124 0
 185 001e FFF7FEFF 		bl	chSchReadyI
 186              	.LVL10:
 187 0022 4562     		str	r5, [r0, #36]
 188              		.loc 1 123 0
 189 0024 2068     		ldr	r0, [r4, #0]
 190 0026 A042     		cmp	r0, r4
 191 0028 F6D1     		bne	.L9
 192              	.LVL11:
 193              	.L6:
 194 002a 38BD     		pop	{r3, r4, r5, pc}
 195              		.cfi_endproc
 196              	.LFE9:
 197              		.size	chIQResetI, .-chIQResetI
 198 002c AFF30080 		.section	.text.chIQPutI,"ax",%progbits
 199              		.align	2
 200              		.p2align 4,,15
 201              		.global	chIQPutI
 202              		.thumb
 203              		.thumb_func
 204              		.type	chIQPutI, %function
 205              	chIQPutI:
 206              	.LFB10:
 207              		.loc 1 140 0
 208              		.cfi_startproc
 209              		@ args = 0, pretend = 0, frame = 0
 210              		@ frame_needed = 0, uses_anonymous_args = 0
 211              	.LVL12:
 212              		.loc 1 144 0
 213 0000 4269     		ldr	r2, [r0, #20]
 214              		.loc 1 140 0
 215 0002 08B5     		push	{r3, lr}
 216              	.LCFI3:
 217              		.cfi_def_cfa_offset 8
 218              		.loc 1 140 0
 219 0004 0346     		mov	r3, r0
 220              		.cfi_offset 14, -4
 221              		.cfi_offset 3, -8
 222              		.loc 1 144 0
 223 0006 8069     		ldr	r0, [r0, #24]
 224              	.LVL13:
ARM GAS  /tmp/cc9ujUVj.s 			page 5


 225 0008 8242     		cmp	r2, r0
 226              		.loc 1 153 0
 227 000a 18BF     		it	ne
 228 000c 9868     		ldrne	r0, [r3, #8]
 229              		.loc 1 144 0
 230 000e 17D0     		beq	.L19
 231              	.L14:
 232              		.loc 1 147 0
 233 0010 0130     		adds	r0, r0, #1
 234 0012 9860     		str	r0, [r3, #8]
 235              		.loc 1 148 0
 236 0014 02F8011B 		strb	r1, [r2], #1
 237              		.loc 1 149 0
 238 0018 1869     		ldr	r0, [r3, #16]
 239              		.loc 1 148 0
 240 001a 5A61     		str	r2, [r3, #20]
 241              		.loc 1 149 0
 242 001c 8242     		cmp	r2, r0
 243 001e 01D3     		bcc	.L16
 244              		.loc 1 150 0
 245 0020 DA68     		ldr	r2, [r3, #12]
 246 0022 5A61     		str	r2, [r3, #20]
 247              	.L16:
 248              		.loc 1 152 0
 249 0024 1868     		ldr	r0, [r3, #0]
 250 0026 9842     		cmp	r0, r3
 251 0028 08D0     		beq	.L18
 252              	.LVL14:
 253              	.LBB16:
 254              	.LBB17:
 255              		.loc 2 62 0
 256 002a 0168     		ldr	r1, [r0, #0]
 257              	.LVL15:
 258 002c 1960     		str	r1, [r3, #0]
 259 002e 4B60     		str	r3, [r1, #4]
 260              	.LBE17:
 261              	.LBE16:
 262              		.loc 1 153 0
 263 0030 FFF7FEFF 		bl	chSchReadyI
 264              	.LVL16:
 265 0034 0023     		movs	r3, #0
 266 0036 4362     		str	r3, [r0, #36]
 267              		.loc 1 155 0
 268 0038 1846     		mov	r0, r3
 269 003a 08BD     		pop	{r3, pc}
 270              	.LVL17:
 271              	.L18:
 272 003c 0020     		movs	r0, #0
 273              		.loc 1 156 0
 274 003e 08BD     		pop	{r3, pc}
 275              	.L19:
 276              		.loc 1 144 0 discriminator 1
 277 0040 9868     		ldr	r0, [r3, #8]
 278 0042 0028     		cmp	r0, #0
 279 0044 E4D0     		beq	.L14
 280              		.loc 1 145 0
 281 0046 6FF00300 		mvn	r0, #3
ARM GAS  /tmp/cc9ujUVj.s 			page 6


 282 004a 08BD     		pop	{r3, pc}
 283              		.cfi_endproc
 284              	.LFE10:
 285              		.size	chIQPutI, .-chIQPutI
 286 004c AFF30080 		.section	.text.chIQGetTimeout,"ax",%progbits
 287              		.align	2
 288              		.p2align 4,,15
 289              		.global	chIQGetTimeout
 290              		.thumb
 291              		.thumb_func
 292              		.type	chIQGetTimeout, %function
 293              	chIQGetTimeout:
 294              	.LFB11:
 295              		.loc 1 178 0
 296              		.cfi_startproc
 297              		@ args = 0, pretend = 0, frame = 0
 298              		@ frame_needed = 0, uses_anonymous_args = 0
 299              	.LVL18:
 300 0000 70B5     		push	{r4, r5, r6, lr}
 301              	.LCFI4:
 302              		.cfi_def_cfa_offset 16
 303              	.LBB18:
 304              		.loc 1 181 0
 305 0002 2023     		movs	r3, #32
 306              	.LVL19:
 307              	.LBE18:
 308              		.loc 1 178 0
 309 0004 0446     		mov	r4, r0
 310              		.cfi_offset 14, -4
 311              		.cfi_offset 6, -8
 312              		.cfi_offset 5, -12
 313              		.cfi_offset 4, -16
 314 0006 0D46     		mov	r5, r1
 315              	.LBB19:
 316              		.loc 1 181 0
 317              	@ 181 "../ChibiOS_2.6.2/os/kernel/src/chqueues.c" 1
 318 0008 83F31188 		msr     BASEPRI, r3
 319              	@ 0 "" 2
 320              	.LVL20:
 321              		.thumb
 322              	.LBE19:
 323              		.loc 1 182 0
 324 000c C369     		ldr	r3, [r0, #28]
 325              	.LVL21:
 326 000e 03B1     		cbz	r3, .L26
 327              		.loc 1 183 0
 328 0010 9847     		blx	r3
 329              	.LVL22:
 330              	.L26:
 331              		.loc 1 185 0 discriminator 1
 332 0012 A668     		ldr	r6, [r4, #8]
 333 0014 4EB9     		cbnz	r6, .L28
 334              	.LBB20:
 335              		.loc 1 187 0
 336 0016 2046     		mov	r0, r4
 337 0018 2946     		mov	r1, r5
 338 001a FFF7FEFF 		bl	qwait
ARM GAS  /tmp/cc9ujUVj.s 			page 7


 339              	.LVL23:
 340 001e 0028     		cmp	r0, #0
 341 0020 F7DA     		bge	.L26
 342              	.LBB21:
 343              		.loc 1 188 0
 344 0022 3346     		mov	r3, r6
 345              	.LVL24:
 346              	@ 188 "../ChibiOS_2.6.2/os/kernel/src/chqueues.c" 1
 347 0024 83F31188 		msr     BASEPRI, r3
 348              	@ 0 "" 2
 349              	.LVL25:
 350              		.thumb
 351              	.LBE21:
 352              		.loc 1 189 0
 353 0028 70BD     		pop	{r4, r5, r6, pc}
 354              	.LVL26:
 355              	.L28:
 356              	.LBE20:
 357              		.loc 1 194 0
 358 002a A369     		ldr	r3, [r4, #24]
 359              		.loc 1 195 0
 360 002c 2269     		ldr	r2, [r4, #16]
 361              		.loc 1 193 0
 362 002e 013E     		subs	r6, r6, #1
 363 0030 A660     		str	r6, [r4, #8]
 364              		.loc 1 194 0
 365 0032 13F8010B 		ldrb	r0, [r3], #1	@ zero_extendqisi2
 366              	.LVL27:
 367              		.loc 1 195 0
 368 0036 9342     		cmp	r3, r2
 369              		.loc 1 194 0
 370 0038 A361     		str	r3, [r4, #24]
 371              		.loc 1 196 0
 372 003a 24BF     		itt	cs
 373 003c E368     		ldrcs	r3, [r4, #12]
 374 003e A361     		strcs	r3, [r4, #24]
 375              	.LBB22:
 376              		.loc 1 198 0
 377 0040 0023     		movs	r3, #0
 378              	.LVL28:
 379              	@ 198 "../ChibiOS_2.6.2/os/kernel/src/chqueues.c" 1
 380 0042 83F31188 		msr     BASEPRI, r3
 381              	@ 0 "" 2
 382              	.LVL29:
 383              		.thumb
 384              	.LBE22:
 385              		.loc 1 200 0
 386 0046 70BD     		pop	{r4, r5, r6, pc}
 387              		.cfi_endproc
 388              	.LFE11:
 389              		.size	chIQGetTimeout, .-chIQGetTimeout
 390 0048 AFF30080 		.section	.text.chIQReadTimeout,"ax",%progbits
 390      AFF30080 
 391              		.align	2
 392              		.p2align 4,,15
 393              		.global	chIQReadTimeout
 394              		.thumb
ARM GAS  /tmp/cc9ujUVj.s 			page 8


 395              		.thumb_func
 396              		.type	chIQReadTimeout, %function
 397              	chIQReadTimeout:
 398              	.LFB12:
 399              		.loc 1 227 0
 400              		.cfi_startproc
 401              		@ args = 0, pretend = 0, frame = 0
 402              		@ frame_needed = 0, uses_anonymous_args = 0
 403              	.LVL30:
 404 0000 2DE9F047 		push	{r4, r5, r6, r7, r8, r9, sl, lr}
 405              	.LCFI5:
 406              		.cfi_def_cfa_offset 32
 407              		.loc 1 227 0
 408 0004 1D46     		mov	r5, r3
 409              		.cfi_offset 14, -4
 410              		.cfi_offset 10, -8
 411              		.cfi_offset 9, -12
 412              		.cfi_offset 8, -16
 413              		.cfi_offset 7, -20
 414              		.cfi_offset 6, -24
 415              		.cfi_offset 5, -28
 416              		.cfi_offset 4, -32
 417 0006 0446     		mov	r4, r0
 418 0008 0E46     		mov	r6, r1
 419 000a 9146     		mov	r9, r2
 420              		.loc 1 228 0
 421 000c D0F81C80 		ldr	r8, [r0, #28]
 422              	.LVL31:
 423              	.LBB23:
 424              		.loc 1 233 0
 425 0010 2023     		movs	r3, #32
 426              	.LVL32:
 427              	@ 233 "../ChibiOS_2.6.2/os/kernel/src/chqueues.c" 1
 428 0012 83F31188 		msr     BASEPRI, r3
 429              	@ 0 "" 2
 430              	.LVL33:
 431              		.loc 1 229 0
 432              		.thumb
 433 0016 0027     		movs	r7, #0
 434              	.LVL34:
 435              	.L35:
 436              	.LBE23:
 437              		.loc 1 235 0
 438 0018 B8F1000F 		cmp	r8, #0
 439 001c 01D0     		beq	.L36
 440              		.loc 1 236 0
 441 001e 2046     		mov	r0, r4
 442 0020 C047     		blx	r8
 443              	.LVL35:
 444              	.L36:
 445              		.loc 1 238 0 discriminator 1
 446 0022 D4F808A0 		ldr	sl, [r4, #8]
 447 0026 BAF1000F 		cmp	sl, #0
 448 002a 0BD1     		bne	.L38
 449              		.loc 1 239 0
 450 002c 2046     		mov	r0, r4
 451 002e 2946     		mov	r1, r5
ARM GAS  /tmp/cc9ujUVj.s 			page 9


 452 0030 FFF7FEFF 		bl	qwait
 453              	.LVL36:
 454 0034 0028     		cmp	r0, #0
 455 0036 F4D0     		beq	.L36
 456              	.LBB24:
 457              		.loc 1 240 0
 458 0038 5346     		mov	r3, sl
 459              	.LVL37:
 460              	@ 240 "../ChibiOS_2.6.2/os/kernel/src/chqueues.c" 1
 461 003a 83F31188 		msr     BASEPRI, r3
 462              	@ 0 "" 2
 463              	.LVL38:
 464              		.thumb
 465              	.L32:
 466              	.LBE24:
 467              		.loc 1 257 0
 468 003e 3846     		mov	r0, r7
 469 0040 BDE8F087 		pop	{r4, r5, r6, r7, r8, r9, sl, pc}
 470              	.LVL39:
 471              	.L38:
 472              		.loc 1 246 0
 473 0044 A369     		ldr	r3, [r4, #24]
 474              	.LVL40:
 475              		.loc 1 245 0
 476 0046 0AF1FF31 		add	r1, sl, #-1
 477 004a A160     		str	r1, [r4, #8]
 478              		.loc 1 246 0
 479 004c 13F8010B 		ldrb	r0, [r3], #1	@ zero_extendqisi2
 480 0050 F055     		strb	r0, [r6, r7]
 481              		.loc 1 247 0
 482 0052 2269     		ldr	r2, [r4, #16]
 483              		.loc 1 246 0
 484 0054 A361     		str	r3, [r4, #24]
 485              		.loc 1 247 0
 486 0056 9342     		cmp	r3, r2
 487              		.loc 1 248 0
 488 0058 24BF     		itt	cs
 489 005a E368     		ldrcs	r3, [r4, #12]
 490 005c A361     		strcs	r3, [r4, #24]
 491              	.LBB25:
 492              		.loc 1 250 0
 493 005e 0023     		movs	r3, #0
 494              	@ 250 "../ChibiOS_2.6.2/os/kernel/src/chqueues.c" 1
 495 0060 83F31188 		msr     BASEPRI, r3
 496              	@ 0 "" 2
 497              	.LVL41:
 498              		.thumb
 499              	.LBE25:
 500              		.loc 1 251 0
 501 0064 0137     		adds	r7, r7, #1
 502              	.LVL42:
 503              		.loc 1 252 0
 504 0066 B945     		cmp	r9, r7
 505 0068 E9D0     		beq	.L32
 506              	.LBB26:
 507              		.loc 1 255 0
 508 006a 2023     		movs	r3, #32
ARM GAS  /tmp/cc9ujUVj.s 			page 10


 509              	.LVL43:
 510              	@ 255 "../ChibiOS_2.6.2/os/kernel/src/chqueues.c" 1
 511 006c 83F31188 		msr     BASEPRI, r3
 512              	@ 0 "" 2
 513              	.LVL44:
 514              		.thumb
 515              	.LBE26:
 516              		.loc 1 256 0
 517 0070 D2E7     		b	.L35
 518              		.cfi_endproc
 519              	.LFE12:
 520              		.size	chIQReadTimeout, .-chIQReadTimeout
 521 0072 00BFAFF3 		.section	.text.chOQInit,"ax",%progbits
 521      0080AFF3 
 521      0080AFF3 
 521      0080
 522              		.align	2
 523              		.p2align 4,,15
 524              		.global	chOQInit
 525              		.thumb
 526              		.thumb_func
 527              		.type	chOQInit, %function
 528              	chOQInit:
 529              	.LFB13:
 530              		.loc 1 276 0
 531              		.cfi_startproc
 532              		@ args = 4, pretend = 0, frame = 0
 533              		@ frame_needed = 0, uses_anonymous_args = 0
 534              		@ link register save eliminated.
 535              	.LVL45:
 536 0000 10B4     		push	{r4}
 537              	.LCFI6:
 538              		.cfi_def_cfa_offset 4
 539              		.loc 1 282 0
 540 0002 C361     		str	r3, [r0, #28]
 541              		.loc 1 283 0
 542 0004 019B     		ldr	r3, [sp, #4]
 543              	.LVL46:
 544              		.loc 1 278 0
 545 0006 4060     		str	r0, [r0, #4]
 546              		.loc 1 281 0
 547 0008 8C18     		adds	r4, r1, r2
 548              		.cfi_offset 4, -4
 549              		.loc 1 278 0
 550 000a 0060     		str	r0, [r0, #0]
 551              		.loc 1 279 0
 552 000c 8260     		str	r2, [r0, #8]
 553              		.loc 1 280 0
 554 000e 4161     		str	r1, [r0, #20]
 555 0010 8161     		str	r1, [r0, #24]
 556 0012 C160     		str	r1, [r0, #12]
 557              		.loc 1 281 0
 558 0014 0461     		str	r4, [r0, #16]
 559              		.loc 1 283 0
 560 0016 0362     		str	r3, [r0, #32]
 561              		.loc 1 284 0
 562 0018 10BC     		pop	{r4}
ARM GAS  /tmp/cc9ujUVj.s 			page 11


 563 001a 7047     		bx	lr
 564              		.cfi_endproc
 565              	.LFE13:
 566              		.size	chOQInit, .-chOQInit
 567 001c AFF30080 		.section	.text.chOQResetI,"ax",%progbits
 568              		.align	2
 569              		.p2align 4,,15
 570              		.global	chOQResetI
 571              		.thumb
 572              		.thumb_func
 573              		.type	chOQResetI, %function
 574              	chOQResetI:
 575              	.LFB14:
 576              		.loc 1 297 0
 577              		.cfi_startproc
 578              		@ args = 0, pretend = 0, frame = 0
 579              		@ frame_needed = 0, uses_anonymous_args = 0
 580              	.LVL47:
 581 0000 38B5     		push	{r3, r4, r5, lr}
 582              	.LCFI7:
 583              		.cfi_def_cfa_offset 16
 584              		.loc 1 302 0
 585 0002 0169     		ldr	r1, [r0, #16]
 586              		.loc 1 301 0
 587 0004 C368     		ldr	r3, [r0, #12]
 588              		.cfi_offset 14, -4
 589              		.cfi_offset 5, -8
 590              		.cfi_offset 4, -12
 591              		.cfi_offset 3, -16
 592              		.loc 1 297 0
 593 0006 0446     		mov	r4, r0
 594              		.loc 1 303 0
 595 0008 0068     		ldr	r0, [r0, #0]
 596              	.LVL48:
 597              		.loc 1 301 0
 598 000a 6361     		str	r3, [r4, #20]
 599              		.loc 1 302 0
 600 000c CA1A     		subs	r2, r1, r3
 601              		.loc 1 303 0
 602 000e A042     		cmp	r0, r4
 603              		.loc 1 301 0
 604 0010 A361     		str	r3, [r4, #24]
 605              		.loc 1 302 0
 606 0012 A260     		str	r2, [r4, #8]
 607              		.loc 1 303 0
 608 0014 0AD0     		beq	.L40
 609              		.loc 1 304 0
 610 0016 6FF00105 		mvn	r5, #1
 611              	.L43:
 612              	.LVL49:
 613              	.LBB27:
 614              	.LBB28:
 615              		.loc 2 62 0
 616 001a 0268     		ldr	r2, [r0, #0]
 617 001c 2260     		str	r2, [r4, #0]
 618 001e 5460     		str	r4, [r2, #4]
 619              	.LBE28:
ARM GAS  /tmp/cc9ujUVj.s 			page 12


 620              	.LBE27:
 621              		.loc 1 304 0
 622 0020 FFF7FEFF 		bl	chSchReadyI
 623              	.LVL50:
 624 0024 4562     		str	r5, [r0, #36]
 625              		.loc 1 303 0
 626 0026 2068     		ldr	r0, [r4, #0]
 627 0028 A042     		cmp	r0, r4
 628 002a F6D1     		bne	.L43
 629              	.LVL51:
 630              	.L40:
 631 002c 38BD     		pop	{r3, r4, r5, pc}
 632              		.cfi_endproc
 633              	.LFE14:
 634              		.size	chOQResetI, .-chOQResetI
 635 002e 00BF     		.section	.text.chOQPutTimeout,"ax",%progbits
 636              		.align	2
 637              		.p2align 4,,15
 638              		.global	chOQPutTimeout
 639              		.thumb
 640              		.thumb_func
 641              		.type	chOQPutTimeout, %function
 642              	chOQPutTimeout:
 643              	.LFB15:
 644              		.loc 1 329 0
 645              		.cfi_startproc
 646              		@ args = 0, pretend = 0, frame = 0
 647              		@ frame_needed = 0, uses_anonymous_args = 0
 648              	.LVL52:
 649 0000 F8B5     		push	{r3, r4, r5, r6, r7, lr}
 650              	.LCFI8:
 651              		.cfi_def_cfa_offset 24
 652              		.loc 1 329 0
 653 0002 0446     		mov	r4, r0
 654              		.cfi_offset 14, -4
 655              		.cfi_offset 7, -8
 656              		.cfi_offset 6, -12
 657              		.cfi_offset 5, -16
 658              		.cfi_offset 4, -20
 659              		.cfi_offset 3, -24
 660 0004 0D46     		mov	r5, r1
 661 0006 1646     		mov	r6, r2
 662              	.LBB29:
 663              		.loc 1 331 0
 664 0008 2023     		movs	r3, #32
 665              	.LVL53:
 666              	@ 331 "../ChibiOS_2.6.2/os/kernel/src/chqueues.c" 1
 667 000a 83F31188 		msr     BASEPRI, r3
 668              	@ 0 "" 2
 669              	.LVL54:
 670              		.thumb
 671              	.L46:
 672              	.LBE29:
 673              		.loc 1 332 0 discriminator 1
 674 000e A768     		ldr	r7, [r4, #8]
 675 0010 4FB9     		cbnz	r7, .L52
 676              	.LBB30:
ARM GAS  /tmp/cc9ujUVj.s 			page 13


 677              		.loc 1 335 0
 678 0012 2046     		mov	r0, r4
 679 0014 3146     		mov	r1, r6
 680 0016 FFF7FEFF 		bl	qwait
 681              	.LVL55:
 682 001a 0028     		cmp	r0, #0
 683 001c F7DA     		bge	.L46
 684              	.LBB31:
 685              		.loc 1 336 0
 686 001e 3B46     		mov	r3, r7
 687              	.LVL56:
 688              	@ 336 "../ChibiOS_2.6.2/os/kernel/src/chqueues.c" 1
 689 0020 83F31188 		msr     BASEPRI, r3
 690              	@ 0 "" 2
 691              	.LVL57:
 692              		.thumb
 693              	.LBE31:
 694              		.loc 1 337 0
 695 0024 F8BD     		pop	{r3, r4, r5, r6, r7, pc}
 696              	.LVL58:
 697              	.L52:
 698              	.LBE30:
 699              		.loc 1 342 0
 700 0026 6369     		ldr	r3, [r4, #20]
 701              	.LVL59:
 702              		.loc 1 341 0
 703 0028 013F     		subs	r7, r7, #1
 704 002a A760     		str	r7, [r4, #8]
 705              		.loc 1 342 0
 706 002c 03F8015B 		strb	r5, [r3], #1
 707              		.loc 1 343 0
 708 0030 2269     		ldr	r2, [r4, #16]
 709              		.loc 1 342 0
 710 0032 6361     		str	r3, [r4, #20]
 711              		.loc 1 343 0
 712 0034 9342     		cmp	r3, r2
 713              		.loc 1 344 0
 714 0036 24BF     		itt	cs
 715 0038 E368     		ldrcs	r3, [r4, #12]
 716 003a 6361     		strcs	r3, [r4, #20]
 717              		.loc 1 346 0
 718 003c E369     		ldr	r3, [r4, #28]
 719 003e 0BB1     		cbz	r3, .L50
 720              		.loc 1 347 0
 721 0040 2046     		mov	r0, r4
 722 0042 9847     		blx	r3
 723              	.L50:
 724              	.LBB32:
 725              		.loc 1 349 0
 726 0044 0023     		movs	r3, #0
 727              	.LVL60:
 728              	@ 349 "../ChibiOS_2.6.2/os/kernel/src/chqueues.c" 1
 729 0046 83F31188 		msr     BASEPRI, r3
 730              	@ 0 "" 2
 731              	.LVL61:
 732              		.thumb
 733              	.LBE32:
ARM GAS  /tmp/cc9ujUVj.s 			page 14


 734              		.loc 1 350 0
 735 004a 1846     		mov	r0, r3
 736              		.loc 1 351 0
 737 004c F8BD     		pop	{r3, r4, r5, r6, r7, pc}
 738              		.cfi_endproc
 739              	.LFE15:
 740              		.size	chOQPutTimeout, .-chOQPutTimeout
 741 004e 00BF     		.section	.text.chOQGetI,"ax",%progbits
 742              		.align	2
 743              		.p2align 4,,15
 744              		.global	chOQGetI
 745              		.thumb
 746              		.thumb_func
 747              		.type	chOQGetI, %function
 748              	chOQGetI:
 749              	.LFB16:
 750              		.loc 1 363 0
 751              		.cfi_startproc
 752              		@ args = 0, pretend = 0, frame = 0
 753              		@ frame_needed = 0, uses_anonymous_args = 0
 754              	.LVL62:
 755              		.loc 1 368 0
 756 0000 4169     		ldr	r1, [r0, #20]
 757 0002 8269     		ldr	r2, [r0, #24]
 758 0004 9142     		cmp	r1, r2
 759              		.loc 1 363 0
 760 0006 10B5     		push	{r4, lr}
 761              	.LCFI9:
 762              		.cfi_def_cfa_offset 8
 763              		.loc 1 363 0
 764 0008 0346     		mov	r3, r0
 765              		.loc 1 379 0
 766 000a 18BF     		it	ne
 767 000c 8168     		ldrne	r1, [r0, #8]
 768              		.loc 1 368 0
 769 000e 15D0     		beq	.L61
 770              		.cfi_offset 14, -4
 771              		.cfi_offset 4, -8
 772              	.L56:
 773              		.loc 1 371 0
 774 0010 4C1C     		adds	r4, r1, #1
 775 0012 9C60     		str	r4, [r3, #8]
 776              		.loc 1 372 0
 777 0014 12F8014B 		ldrb	r4, [r2], #1	@ zero_extendqisi2
 778              	.LVL63:
 779              		.loc 1 373 0
 780 0018 1869     		ldr	r0, [r3, #16]
 781              	.LVL64:
 782              		.loc 1 372 0
 783 001a 9A61     		str	r2, [r3, #24]
 784              		.loc 1 373 0
 785 001c 8242     		cmp	r2, r0
 786 001e 01D3     		bcc	.L59
 787              		.loc 1 374 0
 788 0020 DA68     		ldr	r2, [r3, #12]
 789 0022 9A61     		str	r2, [r3, #24]
 790              	.L59:
ARM GAS  /tmp/cc9ujUVj.s 			page 15


 791              		.loc 1 376 0
 792 0024 1868     		ldr	r0, [r3, #0]
 793 0026 9842     		cmp	r0, r3
 794 0028 06D0     		beq	.L57
 795              	.LVL65:
 796              	.LBB33:
 797              	.LBB34:
 798              		.loc 2 62 0
 799 002a 0168     		ldr	r1, [r0, #0]
 800 002c 1960     		str	r1, [r3, #0]
 801 002e 4B60     		str	r3, [r1, #4]
 802              	.LBE34:
 803              	.LBE33:
 804              		.loc 1 377 0
 805 0030 FFF7FEFF 		bl	chSchReadyI
 806              	.LVL66:
 807 0034 0023     		movs	r3, #0
 808 0036 4362     		str	r3, [r0, #36]
 809              	.L57:
 810              		.loc 1 379 0
 811 0038 2046     		mov	r0, r4
 812 003a 10BD     		pop	{r4, pc}
 813              	.LVL67:
 814              	.L61:
 815              		.loc 1 368 0 discriminator 1
 816 003c 8168     		ldr	r1, [r0, #8]
 817 003e 0029     		cmp	r1, #0
 818 0040 E6D0     		beq	.L56
 819              		.loc 1 369 0
 820 0042 6FF00200 		mvn	r0, #2
 821              	.LVL68:
 822              		.loc 1 380 0
 823 0046 10BD     		pop	{r4, pc}
 824              		.cfi_endproc
 825              	.LFE16:
 826              		.size	chOQGetI, .-chOQGetI
 827              		.section	.text.chOQWriteTimeout,"ax",%progbits
 828              		.align	2
 829              		.p2align 4,,15
 830              		.global	chOQWriteTimeout
 831              		.thumb
 832              		.thumb_func
 833              		.type	chOQWriteTimeout, %function
 834              	chOQWriteTimeout:
 835              	.LFB17:
 836              		.loc 1 407 0
 837              		.cfi_startproc
 838              		@ args = 0, pretend = 0, frame = 0
 839              		@ frame_needed = 0, uses_anonymous_args = 0
 840              	.LVL69:
 841 0000 2DE9F047 		push	{r4, r5, r6, r7, r8, r9, sl, lr}
 842              	.LCFI10:
 843              		.cfi_def_cfa_offset 32
 844              		.loc 1 407 0
 845 0004 1E46     		mov	r6, r3
 846              		.cfi_offset 14, -4
 847              		.cfi_offset 10, -8
ARM GAS  /tmp/cc9ujUVj.s 			page 16


 848              		.cfi_offset 9, -12
 849              		.cfi_offset 8, -16
 850              		.cfi_offset 7, -20
 851              		.cfi_offset 6, -24
 852              		.cfi_offset 5, -28
 853              		.cfi_offset 4, -32
 854 0006 0446     		mov	r4, r0
 855 0008 0D46     		mov	r5, r1
 856 000a 1746     		mov	r7, r2
 857              		.loc 1 408 0
 858 000c D0F81C90 		ldr	r9, [r0, #28]
 859              	.LVL70:
 860              	.LBB35:
 861              		.loc 1 413 0
 862 0010 2023     		movs	r3, #32
 863              	.LVL71:
 864              	@ 413 "../ChibiOS_2.6.2/os/kernel/src/chqueues.c" 1
 865 0012 83F31188 		msr     BASEPRI, r3
 866              	@ 0 "" 2
 867              	.LVL72:
 868              		.loc 1 409 0
 869              		.thumb
 870 0016 4FF00008 		mov	r8, #0
 871              	.LVL73:
 872              	.L71:
 873              	.LBE35:
 874              		.loc 1 415 0 discriminator 1
 875 001a D4F808A0 		ldr	sl, [r4, #8]
 876 001e BAF1000F 		cmp	sl, #0
 877 0022 21D0     		beq	.L66
 878              	.LVL74:
 879              	.L72:
 880              		.loc 1 421 0
 881 0024 0AF1FF31 		add	r1, sl, #-1
 882 0028 A160     		str	r1, [r4, #8]
 883              		.loc 1 422 0
 884 002a 6369     		ldr	r3, [r4, #20]
 885              	.LVL75:
 886 002c 2878     		ldrb	r0, [r5, #0]	@ zero_extendqisi2
 887 002e 03F8010B 		strb	r0, [r3], #1
 888              		.loc 1 423 0
 889 0032 2269     		ldr	r2, [r4, #16]
 890              		.loc 1 422 0
 891 0034 6361     		str	r3, [r4, #20]
 892              	.LVL76:
 893              		.loc 1 423 0
 894 0036 9342     		cmp	r3, r2
 895              		.loc 1 424 0
 896 0038 24BF     		itt	cs
 897 003a E368     		ldrcs	r3, [r4, #12]
 898 003c 6361     		strcs	r3, [r4, #20]
 899              		.loc 1 426 0
 900 003e B9F1000F 		cmp	r9, #0
 901 0042 01D0     		beq	.L68
 902              		.loc 1 427 0
 903 0044 2046     		mov	r0, r4
 904 0046 C847     		blx	r9
ARM GAS  /tmp/cc9ujUVj.s 			page 17


 905              	.L68:
 906              	.LBB36:
 907              		.loc 1 429 0
 908 0048 0023     		movs	r3, #0
 909              	.LVL77:
 910              	@ 429 "../ChibiOS_2.6.2/os/kernel/src/chqueues.c" 1
 911 004a 83F31188 		msr     BASEPRI, r3
 912              	@ 0 "" 2
 913              	.LVL78:
 914              		.thumb
 915              	.LBE36:
 916              		.loc 1 431 0
 917 004e 013F     		subs	r7, r7, #1
 918              	.LVL79:
 919              		.loc 1 430 0
 920 0050 08F10108 		add	r8, r8, #1
 921              	.LVL80:
 922              		.loc 1 431 0
 923 0054 11D0     		beq	.L65
 924              		.loc 1 422 0
 925 0056 0135     		adds	r5, r5, #1
 926              	.LVL81:
 927              	.LBB37:
 928              		.loc 1 433 0
 929 0058 2023     		movs	r3, #32
 930              	.LVL82:
 931              	@ 433 "../ChibiOS_2.6.2/os/kernel/src/chqueues.c" 1
 932 005a 83F31188 		msr     BASEPRI, r3
 933              	@ 0 "" 2
 934              	.LVL83:
 935              		.thumb
 936              	.LBE37:
 937              		.loc 1 415 0
 938 005e D4F808A0 		ldr	sl, [r4, #8]
 939 0062 BAF1000F 		cmp	sl, #0
 940 0066 DDD1     		bne	.L72
 941              	.LVL84:
 942              	.L66:
 943              		.loc 1 416 0
 944 0068 2046     		mov	r0, r4
 945 006a 3146     		mov	r1, r6
 946 006c FFF7FEFF 		bl	qwait
 947              	.LVL85:
 948 0070 0028     		cmp	r0, #0
 949 0072 D2D0     		beq	.L71
 950              	.LBB38:
 951              		.loc 1 417 0
 952 0074 5346     		mov	r3, sl
 953              	.LVL86:
 954              	@ 417 "../ChibiOS_2.6.2/os/kernel/src/chqueues.c" 1
 955 0076 83F31188 		msr     BASEPRI, r3
 956              	@ 0 "" 2
 957              	.LVL87:
 958              		.thumb
 959              	.L65:
 960              	.LBE38:
 961              		.loc 1 435 0
ARM GAS  /tmp/cc9ujUVj.s 			page 18


 962 007a 4046     		mov	r0, r8
 963 007c BDE8F087 		pop	{r4, r5, r6, r7, r8, r9, sl, pc}
 964              		.cfi_endproc
 965              	.LFE17:
 966              		.size	chOQWriteTimeout, .-chOQWriteTimeout
 967              		.text
 968              	.Letext0: