ARM GAS  /tmp/cc9ujUVj.s 			page 1


   1              		.syntax unified
   2              		.cpu cortex-m4
   3              		.fpu softvfp
   4              		.eabi_attribute 20, 1
   5              		.eabi_attribute 21, 1
   6              		.eabi_attribute 23, 3
   7              		.eabi_attribute 24, 1
   8              		.eabi_attribute 25, 1
   9              		.eabi_attribute 26, 1
  10              		.eabi_attribute 30, 2
  11              		.eabi_attribute 18, 4
  12              		.thumb
  13              		.file	"chqueues.c"
  14              		.section	.debug_abbrev,"",%progbits
  15              	.Ldebug_abbrev0:
  16              		.section	.debug_info,"",%progbits
  17              	.Ldebug_info0:
  18              		.section	.debug_line,"",%progbits
  19              	.Ldebug_line0:
  20 0000 92030000 		.text
  20      0200CA01 
  20      00000201 
  20      FB0E0D00 
  20      01010101 
  21              	.Ltext0:
  22              		.cfi_sections	.debug_frame
  23              		.section	.text.qwait,"ax",%progbits
  24              		.align	2
  25              		.p2align 4,,15
  26              		.thumb
  27              		.thumb_func
  28              		.type	qwait, %function
  29              	qwait:
  30              	.LFB7:
  31              		.file 1 "../ChibiOS_2.6.2/os/kernel/src/chqueues.c"
  32              		.loc 1 70 0
  33              		.cfi_startproc
  34              		@ args = 0, pretend = 0, frame = 0
  35              		@ frame_needed = 0, uses_anonymous_args = 0
  36              		@ link register save eliminated.
  37              	.LVL0:
  38 0000 10B4     		push	{r4}
  39              	.LCFI0:
  40              		.cfi_def_cfa_offset 4
  41              		.loc 1 70 0
  42 0002 0346     		mov	r3, r0
  43              		.loc 1 72 0
  44 0004 19B9     		cbnz	r1, .L4
  45              		.cfi_offset 4, -4
  46              		.loc 1 77 0
  47 0006 4FF0FF30 		mov	r0, #-1
  48              	.LVL1:
  49 000a 10BC     		pop	{r4}
  50 000c 7047     		bx	lr
  51              	.L4:
  52              		.loc 1 74 0
  53 000e 40F20004 		movw	r4, #:lower16:rlist
ARM GAS  /tmp/cc9ujUVj.s 			page 2


  54 0012 C0F20004 		movt	r4, #:upper16:rlist
  55              		.loc 1 76 0
  56 0016 0D20     		movs	r0, #13
  57              		.loc 1 74 0
  58 0018 A269     		ldr	r2, [r4, #24]
  59 001a 5362     		str	r3, [r2, #36]
  60              	.LVL2:
  61              	.LBB12:
  62              	.LBB13:
  63              		.file 2 "../ChibiOS_2.6.2/os/kernel/include/chinline.h"
  64              		.loc 2 55 0
  65 001c 5C68     		ldr	r4, [r3, #4]
  66              	.LVL3:
  67              		.loc 2 54 0
  68 001e 1360     		str	r3, [r2, #0]
  69              		.loc 2 55 0
  70 0020 5460     		str	r4, [r2, #4]
  71              		.loc 2 56 0
  72 0022 5A60     		str	r2, [r3, #4]
  73 0024 2260     		str	r2, [r4, #0]
  74              	.LBE13:
  75              	.LBE12:
  76              		.loc 1 77 0
  77 0026 10BC     		pop	{r4}
  78              		.loc 1 76 0
  79 0028 FFF7FEBF 		b	chSchGoSleepTimeoutS
  80              		.cfi_endproc
  81              	.LFE7:
  82              		.size	qwait, .-qwait
  83 002c AFF30080 		.section	.text.chIQInit,"ax",%progbits
  84              		.align	2
  85              		.p2align 4,,15
  86              		.global	chIQInit
  87              		.thumb
  88              		.thumb_func
  89              		.type	chIQInit, %function
  90              	chIQInit:
  91              	.LFB8:
  92              		.loc 1 96 0
  93              		.cfi_startproc
  94              		@ args = 4, pretend = 0, frame = 0
  95              		@ frame_needed = 0, uses_anonymous_args = 0
  96              		@ link register save eliminated.
  97              	.LVL4:
  98 0000 10B4     		push	{r4}
  99              	.LCFI1:
 100              		.cfi_def_cfa_offset 4
 101              		.loc 1 102 0
 102 0002 C361     		str	r3, [r0, #28]
 103              		.loc 1 103 0
 104 0004 019B     		ldr	r3, [sp, #4]
 105              	.LVL5:
 106              		.loc 1 98 0
 107 0006 4060     		str	r0, [r0, #4]
 108              		.loc 1 101 0
 109 0008 8A18     		adds	r2, r1, r2
 110              	.LVL6:
ARM GAS  /tmp/cc9ujUVj.s 			page 3


 111              		.loc 1 99 0
 112 000a 0024     		movs	r4, #0
 113              		.cfi_offset 4, -4
 114              		.loc 1 98 0
 115 000c 0060     		str	r0, [r0, #0]
 116              		.loc 1 99 0
 117 000e 8460     		str	r4, [r0, #8]
 118              		.loc 1 100 0
 119 0010 4161     		str	r1, [r0, #20]
 120 0012 8161     		str	r1, [r0, #24]
 121 0014 C160     		str	r1, [r0, #12]
 122              		.loc 1 101 0
 123 0016 0261     		str	r2, [r0, #16]
 124              		.loc 1 103 0
 125 0018 0362     		str	r3, [r0, #32]
 126              		.loc 1 104 0
 127 001a 10BC     		pop	{r4}
 128 001c 7047     		bx	lr
 129              		.cfi_endproc
 130              	.LFE8:
 131              		.size	chIQInit, .-chIQInit
 132 001e 00BF     		.section	.text.chIQResetI,"ax",%progbits
 133              		.align	2
 134              		.p2align 4,,15
 135              		.global	chIQResetI
 136              		.thumb
 137              		.thumb_func
 138              		.type	chIQResetI, %function
 139              	chIQResetI:
 140              	.LFB9:
 141              		.loc 1 117 0
 142              		.cfi_startproc
 143              		@ args = 0, pretend = 0, frame = 0
 144              		@ frame_needed = 0, uses_anonymous_args = 0
 145              	.LVL7:
 146 0000 38B5     		push	{r3, r4, r5, lr}
 147              	.LCFI2:
 148              		.cfi_def_cfa_offset 16
 149              		.loc 1 121 0
 150 0002 C168     		ldr	r1, [r0, #12]
 151              		.loc 1 117 0
 152 0004 0446     		mov	r4, r0
 153              		.cfi_offset 14, -4
 154              		.cfi_offset 5, -8
 155              		.cfi_offset 4, -12
 156              		.cfi_offset 3, -16
 157              		.loc 1 123 0
 158 0006 0068     		ldr	r0, [r0, #0]
 159              	.LVL8:
 160              		.loc 1 121 0
 161 0008 6161     		str	r1, [r4, #20]
 162              		.loc 1 122 0
 163 000a 0023     		movs	r3, #0
 164              		.loc 1 123 0
 165 000c A042     		cmp	r0, r4
 166              		.loc 1 121 0
 167 000e A161     		str	r1, [r4, #24]
ARM GAS  /tmp/cc9ujUVj.s 			page 4


 168              		.loc 1 122 0
 169 0010 A360     		str	r3, [r4, #8]
 170              		.loc 1 123 0
 171 0012 0AD0     		beq	.L6
 172              		.loc 1 124 0
 173 0014 6FF00105 		mvn	r5, #1
 174              	.L9:
 175              	.LVL9:
 176              	.LBB14:
 177              	.LBB15:
 178              		.loc 2 62 0
 179 0018 0268     		ldr	r2, [r0, #0]
 180 001a 2260     		str	r2, [r4, #0]
 181 001c 5460     		str	r4, [r2, #4]
 182              	.LBE15:
 183              	.LBE14:
 184              		.loc 1 124 0
 185 001e FFF7FEFF 		bl	chSchReadyI
 186              	.LVL10:
 187 0022 4562     		str	r5, [r0, #36]
 188              		.loc 1 123 0
 189 0024 2068     		ldr	r0, [r4, #0]
 190 0026 A042     		cmp	r0, r4
 191 0028 F6D1     		bne	.L9
 192              	.LVL11:
 193              	.L6:
 194 002a 38BD     		pop	{r3, r4, r5, pc}
 195              		.cfi_endproc
 196              	.LFE9:
 197              		.size	chIQResetI, .-chIQResetI
 198 002c AFF30080 		.section	.text.chIQPutI,"ax",%progbits
 199              		.align	2
 200              		.p2align 4,,15
 201              		.global	chIQPutI
 202              		.thumb
 203              		.thumb_func
 204              		.type	chIQPutI, %function
 205              	chIQPutI:
 206              	.LFB10:
 207              		.loc 1 140 0
 208              		.cfi_startproc
 209              		@ args = 0, pretend = 0, frame = 0
 210              		@ frame_needed = 0, uses_anonymous_args = 0
 211              	.LVL12:
 212              		.loc 1 144 0
 213 0000 4269     		ldr	r2, [r0, #20]
 214              		.loc 1 140 0
 215 0002 08B5     		push	{r3, lr}
 216              	.LCFI3:
 217              		.cfi_def_cfa_offset 8
 218              		.loc 1 140 0
 219 0004 0346     		mov	r3, r0
 220              		.cfi_offset 14, -4
 221              		.cfi_offset 3, -8
 222              		.loc 1 144 0
 223 0006 8069     		ldr	r0, [r0, #24]
 224              	.LVL13:
ARM GAS  /tmp/cc9ujUVj.s 			page 5


 225 0008 8242     		cmp	r2, r0
 226              		.loc 1 153 0
 227 000a 18BF     		it	ne
 228 000c 9868     		ldrne	r0, [r3, #8]
 229              		.loc 1 144 0
 230 000e 17D0     		beq	.L19
 231              	.L14:
 232              		.loc 1 147 0
 233 0010 0130     		adds	r0, r0, #1
 234 0012 9860     		str	r0, [r3, #8]
 235              		.loc 1 148 0
 236 0014 02F8011B 		strb	r1, [r2], #1
 237              		.loc 1 149 0
 238 0018 1869     		ldr	r0, [r3, #16]
 239              		.loc 1 148 0
 240 001a 5A61     		str	r2, [r3, #20]
 241              		.loc 1 149 0
 242 001c 8242     		cmp	r2, r0
 243 001e 01D3     		bcc	.L16
 244              		.loc 1 150 0
 245 0020 DA68     		ldr	r2, [r3, #12]
 246 0022 5A61     		str	r2, [r3, #20]
 247              	.L16:
 248              		.loc 1 152 0
 249 0024 1868     		ldr	r0, [r3, #0]
 250 0026 9842     		cmp	r0, r3
 251 0028 08D0     		beq	.L18
 252              	.LVL14:
 253              	.LBB16:
 254              	.LBB17:
 255              		.loc 2 62 0
 256 002a 0168     		ldr	r1, [r0, #0]
 257              	.LVL15:
 258 002c 1960     		str	r1, [r3, #0]
 259 002e 4B60     		str	r3, [r1, #4]
 260              	.LBE17:
 261              	.LBE16:
 262              		.loc 1 153 0
 263 0030 FFF7FEFF 		bl	chSchReadyI
 264              	.LVL16:
 265 0034 0023     		movs	r3, #0
 266 0036 4362     		str	r3, [r0, #36]
 267              		.loc 1 155 0
 268 0038 1846     		mov	r0, r3
 269 003a 08BD     		pop	{r3, pc}
 270              	.LVL17:
 271              	.L18:
 272 003c 0020     		movs	r0, #0
 273              		.loc 1 156 0
 274 003e 08BD     		pop	{r3, pc}
 275              	.L19:
 276              		.loc 1 144 0 discriminator 1
 277 0040 9868     		ldr	r0, [r3, #8]
 278 0042 0028     		cmp	r0, #0
 279 0044 E4D0     		beq	.L14
 280              		.loc 1 145 0
 281 0046 6FF00300 		mvn	r0, #3
ARM GAS  /tmp/cc9ujUVj.s 			page 6


 282 004a 08BD     		pop	{r3, pc}
 283              		.cfi_endproc
 284              	.LFE10:
 285              		.size	chIQPutI, .-chIQPutI
 286 004c AFF30080 		.section	.text.chIQGetTimeout,"ax",%progbits
 287              		.align	2
 288              		.p2align 4,,15
 289              		.global	chIQGetTimeout
 290              		.thumb
 291              		.thumb_func
 292              		.type	chIQGetTimeout, %function
 293              	chIQGetTimeout:
 294              	.LFB11:
 295              		.loc 1 178 0
 296              		.cfi_startproc
 297              		@ args = 0, pretend = 0, frame = 0
 298              		@ frame_needed = 0, uses_anonymous_args = 0
 299              	.LVL18:
 300 0000 70B5     		push	{r4, r5, r6, lr}
 301              	.LCFI4:
 302              		.cfi_def_cfa_offset 16
 303              	.LBB18:
 304              		.loc 1 181 0
 305 0002 2023     		movs	r3, #32
 306              	.LVL19:
 307              	.LBE18:
 308              		.loc 1 178 0
 309 0004 0446     		mov	r4, r0
 310              		.cfi_offset 14, -4
 311              		.cfi_offset 6, -8
 312              		.cfi_offset 5, -12
 313              		.cfi_offset 4, -16
 314 0006 0D46     		mov	r5, r1
 315              	.LBB19:
 316              		.loc 1 181 0
 317              	@ 181 "../ChibiOS_2.6.2/os/kernel/src/chqueues.c" 1
 318 0008 83F31188 		msr     BASEPRI, r3
 319              	@ 0 "" 2
 320              	.LVL20:
 321              		.thumb
 322              	.LBE19:
 323              		.loc 1 182 0
 324 000c C369     		ldr	r3, [r0, #28]
 325              	.LVL21:
 326 000e 03B1     		cbz	r3, .L26
 327              		.loc 1 183 0
 328 0010 9847     		blx	r3
 329              	.LVL22:
 330              	.L26:
 331              		.loc 1 185 0 discriminator 1
 332 0012 A668     		ldr	r6, [r4, #8]
 333 0014 4EB9     		cbnz	r6, .L28
 334              	.LBB20:
 335              		.loc 1 187 0
 336 0016 2046     		mov	r0, r4
 337 0018 2946     		mov	r1, r5
 338 001a FFF7FEFF 		bl	qwait
ARM GAS  /tmp/cc9ujUVj.s 			page 7


 339              	.LVL23:
 340 001e 0028     		cmp	r0, #0
 341 0020 F7DA     		bge	.L26
 342              	.LBB21:
 343              		.loc 1 188 0
 344 0022 3346     		mov	r3, r6
 345              	.LVL24:
 346              	@ 188 "../ChibiOS_2.6.2/os/kernel/src/chqueues.c" 1
 347 0024 83F31188 		msr     BASEPRI, r3
 348              	@ 0 "" 2
 349              	.LVL25:
 350              		.thumb
 351              	.LBE21:
 352              		.loc 1 189 0
 353 0028 70BD     		pop	{r4, r5, r6, pc}
 354              	.LVL26:
 355              	.L28:
 356              	.LBE20:
 357              		.loc 1 194 0
 358 002a A369     		ldr	r3, [r4, #24]
 359              		.loc 1 195 0
 360 002c 2269     		ldr	r2, [r4, #16]
 361              		.loc 1 193 0
 362 002e 013E     		subs	r6, r6, #1
 363 0030 A660     		str	r6, [r4, #8]
 364              		.loc 1 194 0
 365 0032 13F8010B 		ldrb	r0, [r3], #1	@ zero_extendqisi2
 366              	.LVL27:
 367              		.loc 1 195 0
 368 0036 9342     		cmp	r3, r2
 369              		.loc 1 194 0
 370 0038 A361     		str	r3, [r4, #24]
 371              		.loc 1 196 0
 372 003a 24BF     		itt	cs
 373 003c E368     		ldrcs	r3, [r4, #12]
 374 003e A361     		strcs	r3, [r4, #24]
 375              	.LBB22:
 376              		.loc 1 198 0
 377 0040 0023     		movs	r3, #0
 378              	.LVL28:
 379              	@ 198 "../ChibiOS_2.6.2/os/kernel/src/chqueues.c" 1
 380 0042 83F31188 		msr     BASEPRI, r3
 381              	@ 0 "" 2
 382              	.LVL29:
 383              		.thumb
 384              	.LBE22:
 385              		.loc 1 200 0
 386 0046 70BD     		pop	{r4, r5, r6, pc}
 387              		.cfi_endproc
 388              	.LFE11:
 389              		.size	chIQGetTimeout, .-chIQGetTimeout
 390 0048 AFF30080 		.section	.text.chIQReadTimeout,"ax",%progbits
 390      AFF30080 
 391              		.align	2
 392              		.p2align 4,,15
 393              		.global	chIQReadTimeout
 394              		.thumb
ARM GAS  /tmp/cc9ujUVj.s 			page 8


 395              		.thumb_func
 396              		.type	chIQReadTimeout, %function
 397              	chIQReadTimeout:
 398              	.LFB12:
 399              		.loc 1 227 0
 400              		.cfi_startproc
 401              		@ args = 0, pretend = 0, frame = 0
 402              		@ frame_needed = 0, uses_anonymous_args = 0
 403              	.LVL30:
 404 0000 2DE9F047 		push	{r4, r5, r6, r7, r8, r9, sl, lr}
 405              	.LCFI5:
 406              		.cfi_def_cfa_offset 32
 407              		.loc 1 227 0
 408 0004 1D46     		mov	r5, r3
 409              		.cfi_offset 14, -4
 410              		.cfi_offset 10, -8
 411              		.cfi_offset 9, -12
 412              		.cfi_offset 8, -16
 413              		.cfi_offset 7, -20
 414              		.cfi_offset 6, -24
 415              		.cfi_offset 5, -28
 416              		.cfi_offset 4, -32
 417 0006 0446     		mov	r4, r0
 418 0008 0E46     		mov	r6, r1
 419 000a 9146     		mov	r9, r2
 420              		.loc 1 228 0
 421 000c D0F81C80 		ldr	r8, [r0, #28]
 422              	.LVL31:
 423              	.LBB23:
 424              		.loc 1 233 0
 425 0010 2023     		movs	r3, #32
 426              	.LVL32:
 427              	@ 233 "../ChibiOS_2.6.2/os/kernel/src/chqueues.c" 1
 428 0012 83F31188 		msr     BASEPRI, r3
 429              	@ 0 "" 2
 430              	.LVL33:
 431              		.loc 1 229 0
 432              		.thumb
 433 0016 0027     		movs	r7, #0
 434              	.LVL34:
 435              	.L35:
 436              	.LBE23:
 437              		.loc 1 235 0
 438 0018 B8F1000F 		cmp	r8, #0
 439 001c 01D0     		beq	.L36
 440              		.loc 1 236 0
 441 001e 2046     		mov	r0, r4
 442 0020 C047     		blx	r8
 443              	.LVL35:
 444              	.L36:
 445              		.loc 1 238 0 discriminator 1
 446 0022 D4F808A0 		ldr	sl, [r4, #8]
 447 0026 BAF1000F 		cmp	sl, #0
 448 002a 0BD1     		bne	.L38
 449              		.loc 1 239 0
 450 002c 2046     		mov	r0, r4
 451 002e 2946     		mov	r1, r5
ARM GAS  /tmp/cc9ujUVj.s 			page 9


 452 0030 FFF7FEFF 		bl	qwait
 453              	.LVL36:
 454 0034 0028     		cmp	r0, #0
 455 0036 F4D0     		beq	.L36
 456              	.LBB24:
 457              		.loc 1 240 0
 458 0038 5346     		mov	r3, sl
 459              	.LVL37:
 460              	@ 240 "../ChibiOS_2.6.2/os/kernel/src/chqueues.c" 1
 461 003a 83F31188 		msr     BASEPRI, r3
 462              	@ 0 "" 2
 463              	.LVL38:
 464              		.thumb
 465              	.L32:
 466              	.LBE24:
 467              		.loc 1 257 0
 468 003e 3846     		mov	r0, r7
 469 0040 BDE8F087 		pop	{r4, r5, r6, r7, r8, r9, sl, pc}
 470              	.LVL39:
 471              	.L38:
 472              		.loc 1 246 0
 473 0044 A369     		ldr	r3, [r4, #24]
 474              	.LVL40:
 475              		.loc 1 245 0
 476 0046 0AF1FF31 		add	r1, sl, #-1
 477 004a A160     		str	r1, [r4, #8]
 478              		.loc 1 246 0
 479 004c 13F8010B 		ldrb	r0, [r3], #1	@ zero_extendqisi2
 480 0050 F055     		strb	r0, [r6, r7]
 481              		.loc 1 247 0
 482 0052 2269     		ldr	r2, [r4, #16]
 483              		.loc 1 246 0
 484 0054 A361     		str	r3, [r4, #24]
 485              		.loc 1 247 0
 486 0056 9342     		cmp	r3, r2
 487              		.loc 1 248 0
 488 0058 24BF     		itt	cs
 489 005a E368     		ldrcs	r3, [r4, #12]
 490 005c A361     		strcs	r3, [r4, #24]
 491              	.LBB25:
 492              		.loc 1 250 0
 493 005e 0023     		movs	r3, #0
 494              	@ 250 "../ChibiOS_2.6.2/os/kernel/src/chqueues.c" 1
 495 0060 83F31188 		msr     BASEPRI, r3
 496              	@ 0 "" 2
 497              	.LVL41:
 498              		.thumb
 499              	.LBE25:
 500              		.loc 1 251 0
 501 0064 0137     		adds	r7, r7, #1
 502              	.LVL42:
 503              		.loc 1 252 0
 504 0066 B945     		cmp	r9, r7
 505 0068 E9D0     		beq	.L32
 506              	.LBB26:
 507              		.loc 1 255 0
 508 006a 2023     		movs	r3, #32
ARM GAS  /tmp/cc9ujUVj.s 			page 10


 509              	.LVL43:
 510              	@ 255 "../ChibiOS_2.6.2/os/kernel/src/chqueues.c" 1
 511 006c 83F31188 		msr     BASEPRI, r3
 512              	@ 0 "" 2
 513              	.LVL44:
 514              		.thumb
 515              	.LBE26:
 516              		.loc 1 256 0
 517 0070 D2E7     		b	.L35
 518              		.cfi_endproc
 519              	.LFE12:
 520              		.size	chIQReadTimeout, .-chIQReadTimeout
 521 0072 00BFAFF3 		.section	.text.chOQInit,"ax",%progbits
 521      0080AFF3 
 521      0080AFF3 
 521      0080
 522              		.align	2
 523              		.p2align 4,,15
 524              		.global	chOQInit
 525              		.thumb
 526              		.thumb_func
 527              		.type	chOQInit, %function
 528              	chOQInit:
 529              	.LFB13:
 530              		.loc 1 276 0
 531              		.cfi_startproc
 532              		@ args = 4, pretend = 0, frame = 0
 533              		@ frame_needed = 0, uses_anonymous_args = 0
 534              		@ link register save eliminated.
 535              	.LVL45:
 536 0000 10B4     		push	{r4}
 537              	.LCFI6:
 538              		.cfi_def_cfa_offset 4
 539              		.loc 1 282 0
 540 0002 C361     		str	r3, [r0, #28]
 541              		.loc 1 283 0
 542 0004 019B     		ldr	r3, [sp, #4]
 543              	.LVL46:
 544              		.loc 1 278 0
 545 0006 4060     		str	r0, [r0, #4]
 546              		.loc 1 281 0
 547 0008 8C18     		adds	r4, r1, r2
 548              		.cfi_offset 4, -4
 549              		.loc 1 278 0
 550 000a 0060     		str	r0, [r0, #0]
 551              		.loc 1 279 0
 552 000c 8260     		str	r2, [r0, #8]
 553              		.loc 1 280 0
 554 000e 4161     		str	r1, [r0, #20]
 555 0010 8161     		str	r1, [r0, #24]
 556 0012 C160     		str	r1, [r0, #12]
 557              		.loc 1 281 0
 558 0014 0461     		str	r4, [r0, #16]
 559              		.loc 1 283 0
 560 0016 0362     		str	r3, [r0, #32]
 561              		.loc 1 284 0
 562 0018 10BC     		pop	{r4}
ARM GAS  /tmp/cc9ujUVj.s 			page 11


 563 001a 7047     		bx	lr
 564              		.cfi_endproc
 565              	.LFE13:
 566              		.size	chOQInit, .-chOQInit
 567 001c AFF30080 		.section	.text.chOQResetI,"ax",%progbits
 568              		.align	2
 569              		.p2align 4,,15
 570              		.global	chOQResetI
 571              		.thumb
 572              		.thumb_func
 573              		.type	chOQResetI, %function
 574              	chOQResetI:
 575              	.LFB14:
 576              		.loc 1 297 0
 577              		.cfi_startproc
 578              		@ args = 0, pretend = 0, frame = 0
 579              		@ frame_needed = 0, uses_anonymous_args = 0
 580              	.LVL47:
 581 0000 38B5     		push	{r3, r4, r5, lr}
 582              	.LCFI7:
 583              		.cfi_def_cfa_offset 16
 584              		.loc 1 302 0
 585 0002 0169     		ldr	r1, [r0, #16]
 586              		.loc 1 301 0
 587 0004 C368     		ldr	r3, [r0, #12]
 588              		.cfi_offset 14, -4
 589              		.cfi_offset 5, -8
 590              		.cfi_offset 4, -12
 591              		.cfi_offset 3, -16
 592              		.loc 1 297 0
 593 0006 0446     		mov	r4, r0
 594              		.loc 1 303 0
 595 0008 0068     		ldr	r0, [r0, #0]
 596              	.LVL48:
 597              		.loc 1 301 0
 598 000a 6361     		str	r3, [r4, #20]
 599              		.loc 1 302 0
 600 000c CA1A     		subs	r2, r1, r3
 601              		.loc 1 303 0
 602 000e A042     		cmp	r0, r4
 603              		.loc 1 301 0
 604 0010 A361     		str	r3, [r4, #24]
 605              		.loc 1 302 0
 606 0012 A260     		str	r2, [r4, #8]
 607              		.loc 1 303 0
 608 0014 0AD0     		beq	.L40
 609              		.loc 1 304 0
 610 0016 6FF00105 		mvn	r5, #1
 611              	.L43:
 612              	.LVL49:
 613              	.LBB27:
 614              	.LBB28:
 615              		.loc 2 62 0
 616 001a 0268     		ldr	r2, [r0, #0]
 617 001c 2260     		str	r2, [r4, #0]
 618 001e 5460     		str	r4, [r2, #4]
 619              	.LBE28:
ARM GAS  /tmp/cc9ujUVj.s 			page 12


 620              	.LBE27:
 621              		.loc 1 304 0
 622 0020 FFF7FEFF 		bl	chSchReadyI
 623              	.LVL50:
 624 0024 4562     		str	r5, [r0, #36]
 625              		.loc 1 303 0
 626 0026 2068     		ldr	r0, [r4, #0]
 627 0028 A042     		cmp	r0, r4
 628 002a F6D1     		bne	.L43
 629              	.LVL51:
 630              	.L40:
 631 002c 38BD     		pop	{r3, r4, r5, pc}
 632              		.cfi_endproc
 633              	.LFE14:
 634              		.size	chOQResetI, .-chOQResetI
 635 002e 00BF     		.section	.text.chOQPutTimeout,"ax",%progbits
 636              		.align	2
 637              		.p2align 4,,15
 638              		.global	chOQPutTimeout
 639              		.thumb
 640              		.thumb_func
 641              		.type	chOQPutTimeout, %function
 642              	chOQPutTimeout:
 643              	.LFB15:
 644              		.loc 1 329 0
 645              		.cfi_startproc
 646              		@ args = 0, pretend = 0, frame = 0
 647              		@ frame_needed = 0, uses_anonymous_args = 0
 648              	.LVL52:
 649 0000 F8B5     		push	{r3, r4, r5, r6, r7, lr}
 650              	.LCFI8:
 651              		.cfi_def_cfa_offset 24
 652              		.loc 1 329 0
 653 0002 0446     		mov	r4, r0
 654              		.cfi_offset 14, -4
 655              		.cfi_offset 7, -8
 656              		.cfi_offset 6, -12
 657              		.cfi_offset 5, -16
 658              		.cfi_offset 4, -20
 659              		.cfi_offset 3, -24
 660 0004 0D46     		mov	r5, r1
 661 0006 1646     		mov	r6, r2
 662              	.LBB29:
 663              		.loc 1 331 0
 664 0008 2023     		movs	r3, #32
 665              	.LVL53:
 666              	@ 331 "../ChibiOS_2.6.2/os/kernel/src/chqueues.c" 1
 667 000a 83F31188 		msr     BASEPRI, r3
 668              	@ 0 "" 2
 669              	.LVL54:
 670              		.thumb
 671              	.L46:
 672              	.LBE29:
 673              		.loc 1 332 0 discriminator 1
 674 000e A768     		ldr	r7, [r4, #8]
 675 0010 4FB9     		cbnz	r7, .L52
 676              	.LBB30:
ARM GAS  /tmp/cc9ujUVj.s 			page 13


 677              		.loc 1 335 0
 678 0012 2046     		mov	r0, r4
 679 0014 3146     		mov	r1, r6
 680 0016 FFF7FEFF 		bl	qwait
 681              	.LVL55:
 682 001a 0028     		cmp	r0, #0
 683 001c F7DA     		bge	.L46
 684              	.LBB31:
 685              		.loc 1 336 0
 686 001e 3B46     		mov	r3, r7
 687              	.LVL56:
 688              	@ 336 "../ChibiOS_2.6.2/os/kernel/src/chqueues.c" 1
 689 0020 83F31188 		msr     BASEPRI, r3
 690              	@ 0 "" 2
 691              	.LVL57:
 692              		.thumb
 693              	.LBE31:
 694              		.loc 1 337 0
 695 0024 F8BD     		pop	{r3, r4, r5, r6, r7, pc}
 696              	.LVL58:
 697              	.L52:
 698              	.LBE30:
 699              		.loc 1 342 0
 700 0026 6369     		ldr	r3, [r4, #20]
 701              	.LVL59:
 702              		.loc 1 341 0
 703 0028 013F     		subs	r7, r7, #1
 704 002a A760     		str	r7, [r4, #8]
 705              		.loc 1 342 0
 706 002c 03F8015B 		strb	r5, [r3], #1
 707              		.loc 1 343 0
 708 0030 2269     		ldr	r2, [r4, #16]
 709              		.loc 1 342 0
 710 0032 6361     		str	r3, [r4, #20]
 711              		.loc 1 343 0
 712 0034 9342     		cmp	r3, r2
 713              		.loc 1 344 0
 714 0036 24BF     		itt	cs
 715 0038 E368     		ldrcs	r3, [r4, #12]
 716 003a 6361     		strcs	r3, [r4, #20]
 717              		.loc 1 346 0
 718 003c E369     		ldr	r3, [r4, #28]
 719 003e 0BB1     		cbz	r3, .L50
 720              		.loc 1 347 0
 721 0040 2046     		mov	r0, r4
 722 0042 9847     		blx	r3
 723              	.L50:
 724              	.LBB32:
 725              		.loc 1 349 0
 726 0044 0023     		movs	r3, #0
 727              	.LVL60:
 728              	@ 349 "../ChibiOS_2.6.2/os/kernel/src/chqueues.c" 1
 729 0046 83F31188 		msr     BASEPRI, r3
 730              	@ 0 "" 2
 731              	.LVL61:
 732              		.thumb
 733              	.LBE32:
ARM GAS  /tmp/cc9ujUVj.s 			page 14


 734              		.loc 1 350 0
 735 004a 1846     		mov	r0, r3
 736              		.loc 1 351 0
 737 004c F8BD     		pop	{r3, r4, r5, r6, r7, pc}
 738              		.cfi_endproc
 739              	.LFE15:
 740              		.size	chOQPutTimeout, .-chOQPutTimeout
 741 004e 00BF     		.section	.text.chOQGetI,"ax",%progbits
 742              		.align	2
 743              		.p2align 4,,15
 744              		.global	chOQGetI
 745              		.thumb
 746              		.thumb_func
 747              		.type	chOQGetI, %function
 748              	chOQGetI:
 749              	.LFB16:
 750              		.loc 1 363 0
 751              		.cfi_startproc
 752              		@ args = 0, pretend = 0, frame = 0
 753              		@ frame_needed = 0, uses_anonymous_args = 0
 754              	.LVL62:
 755              		.loc 1 368 0
 756 0000 4169     		ldr	r1, [r0, #20]
 757 0002 8269     		ldr	r2, [r0, #24]
 758 0004 9142     		cmp	r1, r2
 759              		.loc 1 363 0
 760 0006 10B5     		push	{r4, lr}
 761              	.LCFI9:
 762              		.cfi_def_cfa_offset 8
 763              		.loc 1 363 0
 764 0008 0346     		mov	r3, r0
 765              		.loc 1 379 0
 766 000a 18BF     		it	ne
 767 000c 8168     		ldrne	r1, [r0, #8]
 768              		.loc 1 368 0
 769 000e 15D0     		beq	.L61
 770              		.cfi_offset 14, -4
 771              		.cfi_offset 4, -8
 772              	.L56:
 773              		.loc 1 371 0
 774 0010 4C1C     		adds	r4, r1, #1
 775 0012 9C60     		str	r4, [r3, #8]
 776              		.loc 1 372 0
 777 0014 12F8014B 		ldrb	r4, [r2], #1	@ zero_extendqisi2
 778              	.LVL63:
 779              		.loc 1 373 0
 780 0018 1869     		ldr	r0, [r3, #16]
 781              	.LVL64:
 782              		.loc 1 372 0
 783 001a 9A61     		str	r2, [r3, #24]
 784              		.loc 1 373 0
 785 001c 8242     		cmp	r2, r0
 786 001e 01D3     		bcc	.L59
 787              		.loc 1 374 0
 788 0020 DA68     		ldr	r2, [r3, #12]
 789 0022 9A61     		str	r2, [r3, #24]
 790              	.L59:
ARM GAS  /tmp/cc9ujUVj.s 			page 15


 791              		.loc 1 376 0
 792 0024 1868     		ldr	r0, [r3, #0]
 793 0026 9842     		cmp	r0, r3
 794 0028 06D0     		beq	.L57
 795              	.LVL65:
 796              	.LBB33:
 797              	.LBB34:
 798              		.loc 2 62 0
 799 002a 0168     		ldr	r1, [r0, #0]
 800 002c 1960     		str	r1, [r3, #0]
 801 002e 4B60     		str	r3, [r1, #4]
 802              	.LBE34:
 803              	.LBE33:
 804              		.loc 1 377 0
 805 0030 FFF7FEFF 		bl	chSchReadyI
 806              	.LVL66:
 807 0034 0023     		movs	r3, #0
 808 0036 4362     		str	r3, [r0, #36]
 809              	.L57:
 810              		.loc 1 379 0
 811 0038 2046     		mov	r0, r4
 812 003a 10BD     		pop	{r4, pc}
 813              	.LVL67:
 814              	.L61:
 815              		.loc 1 368 0 discriminator 1
 816 003c 8168     		ldr	r1, [r0, #8]
 817 003e 0029     		cmp	r1, #0
 818 0040 E6D0     		beq	.L56
 819              		.loc 1 369 0
 820 0042 6FF00200 		mvn	r0, #2
 821              	.LVL68:
 822              		.loc 1 380 0
 823 0046 10BD     		pop	{r4, pc}
 824              		.cfi_endproc
 825              	.LFE16:
 826              		.size	chOQGetI, .-chOQGetI
 827              		.section	.text.chOQWriteTimeout,"ax",%progbits
 828              		.align	2
 829              		.p2align 4,,15
 830              		.global	chOQWriteTimeout
 831              		.thumb
 832              		.thumb_func
 833              		.type	chOQWriteTimeout, %function
 834              	chOQWriteTimeout:
 835              	.LFB17:
 836              		.loc 1 407 0
 837              		.cfi_startproc
 838              		@ args = 0, pretend = 0, frame = 0
 839              		@ frame_needed = 0, uses_anonymous_args = 0
 840              	.LVL69:
 841 0000 2DE9F047 		push	{r4, r5, r6, r7, r8, r9, sl, lr}
 842              	.LCFI10:
 843              		.cfi_def_cfa_offset 32
 844              		.loc 1 407 0
 845 0004 1E46     		mov	r6, r3
 846              		.cfi_offset 14, -4
 847              		.cfi_offset 10, -8
ARM GAS  /tmp/cc9ujUVj.s 			page 16


 848              		.cfi_offset 9, -12
 849              		.cfi_offset 8, -16
 850              		.cfi_offset 7, -20
 851              		.cfi_offset 6, -24
 852              		.cfi_offset 5, -28
 853              		.cfi_offset 4, -32
 854 0006 0446     		mov	r4, r0
 855 0008 0D46     		mov	r5, r1
 856 000a 1746     		mov	r7, r2
 857              		.loc 1 408 0
 858 000c D0F81C90 		ldr	r9, [r0, #28]
 859              	.LVL70:
 860              	.LBB35:
 861              		.loc 1 413 0
 862 0010 2023     		movs	r3, #32
 863              	.LVL71:
 864              	@ 413 "../ChibiOS_2.6.2/os/kernel/src/chqueues.c" 1
 865 0012 83F31188 		msr     BASEPRI, r3
 866              	@ 0 "" 2
 867              	.LVL72:
 868              		.loc 1 409 0
 869              		.thumb
 870 0016 4FF00008 		mov	r8, #0
 871              	.LVL73:
 872              	.L71:
 873              	.LBE35:
 874              		.loc 1 415 0 discriminator 1
 875 001a D4F808A0 		ldr	sl, [r4, #8]
 876 001e BAF1000F 		cmp	sl, #0
 877 0022 21D0     		beq	.L66
 878              	.LVL74:
 879              	.L72:
 880              		.loc 1 421 0
 881 0024 0AF1FF31 		add	r1, sl, #-1
 882 0028 A160     		str	r1, [r4, #8]
 883              		.loc 1 422 0
 884 002a 6369     		ldr	r3, [r4, #20]
 885              	.LVL75:
 886 002c 2878     		ldrb	r0, [r5, #0]	@ zero_extendqisi2
 887 002e 03F8010B 		strb	r0, [r3], #1
 888              		.loc 1 423 0
 889 0032 2269     		ldr	r2, [r4, #16]
 890              		.loc 1 422 0
 891 0034 6361     		str	r3, [r4, #20]
 892              	.LVL76:
 893              		.loc 1 423 0
 894 0036 9342     		cmp	r3, r2
 895              		.loc 1 424 0
 896 0038 24BF     		itt	cs
 897 003a E368     		ldrcs	r3, [r4, #12]
 898 003c 6361     		strcs	r3, [r4, #20]
 899              		.loc 1 426 0
 900 003e B9F1000F 		cmp	r9, #0
 901 0042 01D0     		beq	.L68
 902              		.loc 1 427 0
 903 0044 2046     		mov	r0, r4
 904 0046 C847     		blx	r9
ARM GAS  /tmp/cc9ujUVj.s 			page 17


 905              	.L68:
 906              	.LBB36:
 907              		.loc 1 429 0
 908 0048 0023     		movs	r3, #0
 909              	.LVL77:
 910              	@ 429 "../ChibiOS_2.6.2/os/kernel/src/chqueues.c" 1
 911 004a 83F31188 		msr     BASEPRI, r3
 912              	@ 0 "" 2
 913              	.LVL78:
 914              		.thumb
 915              	.LBE36:
 916              		.loc 1 431 0
 917 004e 013F     		subs	r7, r7, #1
 918              	.LVL79:
 919              		.loc 1 430 0
 920 0050 08F10108 		add	r8, r8, #1
 921              	.LVL80:
 922              		.loc 1 431 0
 923 0054 11D0     		beq	.L65
 924              		.loc 1 422 0
 925 0056 0135     		adds	r5, r5, #1
 926              	.LVL81:
 927              	.LBB37:
 928              		.loc 1 433 0
 929 0058 2023     		movs	r3, #32
 930              	.LVL82:
 931              	@ 433 "../ChibiOS_2.6.2/os/kernel/src/chqueues.c" 1
 932 005a 83F31188 		msr     BASEPRI, r3
 933              	@ 0 "" 2
 934              	.LVL83:
 935              		.thumb
 936              	.LBE37:
 937              		.loc 1 415 0
 938 005e D4F808A0 		ldr	sl, [r4, #8]
 939 0062 BAF1000F 		cmp	sl, #0
 940 0066 DDD1     		bne	.L72
 941              	.LVL84:
 942              	.L66:
 943              		.loc 1 416 0
 944 0068 2046     		mov	r0, r4
 945 006a 3146     		mov	r1, r6
 946 006c FFF7FEFF 		bl	qwait
 947              	.LVL85:
 948 0070 0028     		cmp	r0, #0
 949 0072 D2D0     		beq	.L71
 950              	.LBB38:
 951              		.loc 1 417 0
 952 0074 5346     		mov	r3, sl
 953              	.LVL86:
 954              	@ 417 "../ChibiOS_2.6.2/os/kernel/src/chqueues.c" 1
 955 0076 83F31188 		msr     BASEPRI, r3
 956              	@ 0 "" 2
 957              	.LVL87:
 958              		.thumb
 959              	.L65:
 960              	.LBE38:
 961              		.loc 1 435 0
ARM GAS  /tmp/cc9ujUVj.s 			page 18


 962 007a 4046     		mov	r0, r8
 963 007c BDE8F087 		pop	{r4, r5, r6, r7, r8, r9, sl, pc}
 964              		.cfi_endproc
 965              	.LFE17:
 966              		.size	chOQWriteTimeout, .-chOQWriteTimeout
 967              		.text
 968              	.Letext0:
 969              		.section	.debug_loc,"",%progbits
 970              	.Ldebug_loc0:
 971              	.LLST0:
 972 0000 00000000 		.4byte	.LFB7
 973 0004 02000000 		.4byte	.LCFI0
 974 0008 0200     		.2byte	0x2
 975 000a 7D       		.byte	0x7d
 976 000b 00       		.sleb128 0
 977 000c 02000000 		.4byte	.LCFI0
 978 0010 2C000000 		.4byte	.LFE7
 979 0014 0200     		.2byte	0x2
 980 0016 7D       		.byte	0x7d
 981 0017 04       		.sleb128 4
 982 0018 00000000 		.4byte	0x0
 983 001c 00000000 		.4byte	0x0
 984              	.LLST1:
 985 0020 00000000 		.4byte	.LVL0
 986 0024 0A000000 		.4byte	.LVL1
 987 0028 0100     		.2byte	0x1
 988 002a 50       		.byte	0x50
 989 002b 0A000000 		.4byte	.LVL1
 990 002f 2C000000 		.4byte	.LFE7
 991 0033 0100     		.2byte	0x1
 992 0035 53       		.byte	0x53
 993 0036 00000000 		.4byte	0x0
 994 003a 00000000 		.4byte	0x0
 995              	.LLST2:
 996 003e 1C000000 		.4byte	.LVL2
 997 0042 1E000000 		.4byte	.LVL3
 998 0046 0200     		.2byte	0x2
 999 0048 74       		.byte	0x74
 1000 0049 18       		.sleb128 24
 1001 004a 00000000 		.4byte	0x0
 1002 004e 00000000 		.4byte	0x0
 1003              	.LLST3:
 1004 0052 00000000 		.4byte	.LFB8
 1005 0056 02000000 		.4byte	.LCFI1
 1006 005a 0200     		.2byte	0x2
 1007 005c 7D       		.byte	0x7d
 1008 005d 00       		.sleb128 0
 1009 005e 02000000 		.4byte	.LCFI1
 1010 0062 1E000000 		.4byte	.LFE8
 1011 0066 0200     		.2byte	0x2
 1012 0068 7D       		.byte	0x7d
 1013 0069 04       		.sleb128 4
 1014 006a 00000000 		.4byte	0x0
 1015 006e 00000000 		.4byte	0x0
 1016              	.LLST4:
 1017 0072 00000000 		.4byte	.LVL4
 1018 0076 0A000000 		.4byte	.LVL6
ARM GAS  /tmp/cc9ujUVj.s 			page 19


 1019 007a 0100     		.2byte	0x1
 1020 007c 52       		.byte	0x52
 1021 007d 00000000 		.4byte	0x0
 1022 0081 00000000 		.4byte	0x0
 1023              	.LLST5:
 1024 0085 00000000 		.4byte	.LVL4
 1025 0089 06000000 		.4byte	.LVL5
 1026 008d 0100     		.2byte	0x1
 1027 008f 53       		.byte	0x53
 1028 0090 06000000 		.4byte	.LVL5
 1029 0094 1E000000 		.4byte	.LFE8
 1030 0098 0200     		.2byte	0x2
 1031 009a 70       		.byte	0x70
 1032 009b 1C       		.sleb128 28
 1033 009c 00000000 		.4byte	0x0
 1034 00a0 00000000 		.4byte	0x0
 1035              	.LLST6:
 1036 00a4 00000000 		.4byte	.LFB9
 1037 00a8 02000000 		.4byte	.LCFI2
 1038 00ac 0200     		.2byte	0x2
 1039 00ae 7D       		.byte	0x7d
 1040 00af 00       		.sleb128 0
 1041 00b0 02000000 		.4byte	.LCFI2
 1042 00b4 2C000000 		.4byte	.LFE9
 1043 00b8 0200     		.2byte	0x2
 1044 00ba 7D       		.byte	0x7d
 1045 00bb 10       		.sleb128 16
 1046 00bc 00000000 		.4byte	0x0
 1047 00c0 00000000 		.4byte	0x0
 1048              	.LLST7:
 1049 00c4 00000000 		.4byte	.LVL7
 1050 00c8 08000000 		.4byte	.LVL8
 1051 00cc 0100     		.2byte	0x1
 1052 00ce 50       		.byte	0x50
 1053 00cf 08000000 		.4byte	.LVL8
 1054 00d3 2C000000 		.4byte	.LFE9
 1055 00d7 0100     		.2byte	0x1
 1056 00d9 54       		.byte	0x54
 1057 00da 00000000 		.4byte	0x0
 1058 00de 00000000 		.4byte	0x0
 1059              	.LLST8:
 1060 00e2 18000000 		.4byte	.LVL9
 1061 00e6 2A000000 		.4byte	.LVL11
 1062 00ea 0100     		.2byte	0x1
 1063 00ec 54       		.byte	0x54
 1064 00ed 00000000 		.4byte	0x0
 1065 00f1 00000000 		.4byte	0x0
 1066              	.LLST9:
 1067 00f5 18000000 		.4byte	.LVL9
 1068 00f9 21000000 		.4byte	.LVL10-1
 1069 00fd 0100     		.2byte	0x1
 1070 00ff 50       		.byte	0x50
 1071 0100 00000000 		.4byte	0x0
 1072 0104 00000000 		.4byte	0x0
 1073              	.LLST10:
 1074 0108 00000000 		.4byte	.LFB10
 1075 010c 04000000 		.4byte	.LCFI3
ARM GAS  /tmp/cc9ujUVj.s 			page 20


 1076 0110 0200     		.2byte	0x2
 1077 0112 7D       		.byte	0x7d
 1078 0113 00       		.sleb128 0
 1079 0114 04000000 		.4byte	.LCFI3
 1080 0118 4C000000 		.4byte	.LFE10
 1081 011c 0200     		.2byte	0x2
 1082 011e 7D       		.byte	0x7d
 1083 011f 08       		.sleb128 8
 1084 0120 00000000 		.4byte	0x0
 1085 0124 00000000 		.4byte	0x0
 1086              	.LLST11:
 1087 0128 00000000 		.4byte	.LVL12
 1088 012c 08000000 		.4byte	.LVL13
 1089 0130 0100     		.2byte	0x1
 1090 0132 50       		.byte	0x50
 1091 0133 08000000 		.4byte	.LVL13
 1092 0137 33000000 		.4byte	.LVL16-1
 1093 013b 0100     		.2byte	0x1
 1094 013d 53       		.byte	0x53
 1095 013e 3C000000 		.4byte	.LVL17
 1096 0142 4C000000 		.4byte	.LFE10
 1097 0146 0100     		.2byte	0x1
 1098 0148 53       		.byte	0x53
 1099 0149 00000000 		.4byte	0x0
 1100 014d 00000000 		.4byte	0x0
 1101              	.LLST12:
 1102 0151 00000000 		.4byte	.LVL12
 1103 0155 2C000000 		.4byte	.LVL15
 1104 0159 0100     		.2byte	0x1
 1105 015b 51       		.byte	0x51
 1106 015c 2C000000 		.4byte	.LVL15
 1107 0160 33000000 		.4byte	.LVL16-1
 1108 0164 0300     		.2byte	0x3
 1109 0166 73       		.byte	0x73
 1110 0167 14       		.sleb128 20
 1111 0168 06       		.byte	0x6
 1112 0169 3C000000 		.4byte	.LVL17
 1113 016d 4C000000 		.4byte	.LFE10
 1114 0171 0100     		.2byte	0x1
 1115 0173 51       		.byte	0x51
 1116 0174 00000000 		.4byte	0x0
 1117 0178 00000000 		.4byte	0x0
 1118              	.LLST13:
 1119 017c 2A000000 		.4byte	.LVL14
 1120 0180 33000000 		.4byte	.LVL16-1
 1121 0184 0100     		.2byte	0x1
 1122 0186 53       		.byte	0x53
 1123 0187 00000000 		.4byte	0x0
 1124 018b 00000000 		.4byte	0x0
 1125              	.LLST14:
 1126 018f 2A000000 		.4byte	.LVL14
 1127 0193 33000000 		.4byte	.LVL16-1
 1128 0197 0200     		.2byte	0x2
 1129 0199 73       		.byte	0x73
 1130 019a 00       		.sleb128 0
 1131 019b 00000000 		.4byte	0x0
 1132 019f 00000000 		.4byte	0x0
ARM GAS  /tmp/cc9ujUVj.s 			page 21


 1133              	.LLST15:
 1134 01a3 00000000 		.4byte	.LFB11
 1135 01a7 02000000 		.4byte	.LCFI4
 1136 01ab 0200     		.2byte	0x2
 1137 01ad 7D       		.byte	0x7d
 1138 01ae 00       		.sleb128 0
 1139 01af 02000000 		.4byte	.LCFI4
 1140 01b3 48000000 		.4byte	.LFE11
 1141 01b7 0200     		.2byte	0x2
 1142 01b9 7D       		.byte	0x7d
 1143 01ba 10       		.sleb128 16
 1144 01bb 00000000 		.4byte	0x0
 1145 01bf 00000000 		.4byte	0x0
 1146              	.LLST16:
 1147 01c3 00000000 		.4byte	.LVL18
 1148 01c7 11000000 		.4byte	.LVL22-1
 1149 01cb 0100     		.2byte	0x1
 1150 01cd 50       		.byte	0x50
 1151 01ce 11000000 		.4byte	.LVL22-1
 1152 01d2 48000000 		.4byte	.LFE11
 1153 01d6 0100     		.2byte	0x1
 1154 01d8 54       		.byte	0x54
 1155 01d9 00000000 		.4byte	0x0
 1156 01dd 00000000 		.4byte	0x0
 1157              	.LLST17:
 1158 01e1 00000000 		.4byte	.LVL18
 1159 01e5 11000000 		.4byte	.LVL22-1
 1160 01e9 0100     		.2byte	0x1
 1161 01eb 51       		.byte	0x51
 1162 01ec 11000000 		.4byte	.LVL22-1
 1163 01f0 48000000 		.4byte	.LFE11
 1164 01f4 0100     		.2byte	0x1
 1165 01f6 55       		.byte	0x55
 1166 01f7 00000000 		.4byte	0x0
 1167 01fb 00000000 		.4byte	0x0
 1168              	.LLST18:
 1169 01ff 0C000000 		.4byte	.LVL20
 1170 0203 0E000000 		.4byte	.LVL21
 1171 0207 0100     		.2byte	0x1
 1172 0209 53       		.byte	0x53
 1173 020a 00000000 		.4byte	0x0
 1174 020e 00000000 		.4byte	0x0
 1175              	.LLST19:
 1176 0212 1E000000 		.4byte	.LVL23
 1177 0216 2A000000 		.4byte	.LVL26
 1178 021a 0100     		.2byte	0x1
 1179 021c 50       		.byte	0x50
 1180 021d 00000000 		.4byte	0x0
 1181 0221 00000000 		.4byte	0x0
 1182              	.LLST20:
 1183 0225 28000000 		.4byte	.LVL25
 1184 0229 2A000000 		.4byte	.LVL26
 1185 022d 0100     		.2byte	0x1
 1186 022f 53       		.byte	0x53
 1187 0230 00000000 		.4byte	0x0
 1188 0234 00000000 		.4byte	0x0
 1189              	.LLST21:
ARM GAS  /tmp/cc9ujUVj.s 			page 22


 1190 0238 46000000 		.4byte	.LVL29
 1191 023c 48000000 		.4byte	.LFE11
 1192 0240 0100     		.2byte	0x1
 1193 0242 53       		.byte	0x53
 1194 0243 00000000 		.4byte	0x0
 1195 0247 00000000 		.4byte	0x0
 1196              	.LLST22:
 1197 024b 00000000 		.4byte	.LFB12
 1198 024f 04000000 		.4byte	.LCFI5
 1199 0253 0200     		.2byte	0x2
 1200 0255 7D       		.byte	0x7d
 1201 0256 00       		.sleb128 0
 1202 0257 04000000 		.4byte	.LCFI5
 1203 025b 72000000 		.4byte	.LFE12
 1204 025f 0200     		.2byte	0x2
 1205 0261 7D       		.byte	0x7d
 1206 0262 20       		.sleb128 32
 1207 0263 00000000 		.4byte	0x0
 1208 0267 00000000 		.4byte	0x0
 1209              	.LLST23:
 1210 026b 00000000 		.4byte	.LVL30
 1211 026f 18000000 		.4byte	.LVL34
 1212 0273 0100     		.2byte	0x1
 1213 0275 50       		.byte	0x50
 1214 0276 18000000 		.4byte	.LVL34
 1215 027a 72000000 		.4byte	.LFE12
 1216 027e 0100     		.2byte	0x1
 1217 0280 54       		.byte	0x54
 1218 0281 00000000 		.4byte	0x0
 1219 0285 00000000 		.4byte	0x0
 1220              	.LLST24:
 1221 0289 00000000 		.4byte	.LVL30
 1222 028d 18000000 		.4byte	.LVL34
 1223 0291 0100     		.2byte	0x1
 1224 0293 51       		.byte	0x51
 1225 0294 00000000 		.4byte	0x0
 1226 0298 00000000 		.4byte	0x0
 1227              	.LLST25:
 1228 029c 00000000 		.4byte	.LVL30
 1229 02a0 18000000 		.4byte	.LVL34
 1230 02a4 0100     		.2byte	0x1
 1231 02a6 52       		.byte	0x52
 1232 02a7 00000000 		.4byte	0x0
 1233 02ab 00000000 		.4byte	0x0
 1234              	.LLST26:
 1235 02af 00000000 		.4byte	.LVL30
 1236 02b3 12000000 		.4byte	.LVL32
 1237 02b7 0100     		.2byte	0x1
 1238 02b9 53       		.byte	0x53
 1239 02ba 12000000 		.4byte	.LVL32
 1240 02be 72000000 		.4byte	.LFE12
 1241 02c2 0100     		.2byte	0x1
 1242 02c4 55       		.byte	0x55
 1243 02c5 00000000 		.4byte	0x0
 1244 02c9 00000000 		.4byte	0x0
 1245              	.LLST27:
 1246 02cd 10000000 		.4byte	.LVL31
ARM GAS  /tmp/cc9ujUVj.s 			page 23


 1247 02d1 18000000 		.4byte	.LVL34
 1248 02d5 0200     		.2byte	0x2
 1249 02d7 70       		.byte	0x70
 1250 02d8 1C       		.sleb128 28
 1251 02d9 18000000 		.4byte	.LVL34
 1252 02dd 72000000 		.4byte	.LFE12
 1253 02e1 0100     		.2byte	0x1
 1254 02e3 58       		.byte	0x58
 1255 02e4 00000000 		.4byte	0x0
 1256 02e8 00000000 		.4byte	0x0
 1257              	.LLST28:
 1258 02ec 10000000 		.4byte	.LVL31
 1259 02f0 18000000 		.4byte	.LVL34
 1260 02f4 0200     		.2byte	0x2
 1261 02f6 30       		.byte	0x30
 1262 02f7 9F       		.byte	0x9f
 1263 02f8 18000000 		.4byte	.LVL34
 1264 02fc 66000000 		.4byte	.LVL42
 1265 0300 0100     		.2byte	0x1
 1266 0302 57       		.byte	0x57
 1267 0303 66000000 		.4byte	.LVL42
 1268 0307 72000000 		.4byte	.LFE12
 1269 030b 0100     		.2byte	0x1
 1270 030d 57       		.byte	0x57
 1271 030e 00000000 		.4byte	0x0
 1272 0312 00000000 		.4byte	0x0
 1273              	.LLST29:
 1274 0316 16000000 		.4byte	.LVL33
 1275 031a 21000000 		.4byte	.LVL35-1
 1276 031e 0100     		.2byte	0x1
 1277 0320 53       		.byte	0x53
 1278 0321 22000000 		.4byte	.LVL35
 1279 0325 33000000 		.4byte	.LVL36-1
 1280 0329 0100     		.2byte	0x1
 1281 032b 53       		.byte	0x53
 1282 032c 44000000 		.4byte	.LVL39
 1283 0330 46000000 		.4byte	.LVL40
 1284 0334 0100     		.2byte	0x1
 1285 0336 53       		.byte	0x53
 1286 0337 00000000 		.4byte	0x0
 1287 033b 00000000 		.4byte	0x0
 1288              	.LLST30:
 1289 033f 3E000000 		.4byte	.LVL38
 1290 0343 44000000 		.4byte	.LVL39
 1291 0347 0100     		.2byte	0x1
 1292 0349 53       		.byte	0x53
 1293 034a 00000000 		.4byte	0x0
 1294 034e 00000000 		.4byte	0x0
 1295              	.LLST31:
 1296 0352 3E000000 		.4byte	.LVL38
 1297 0356 44000000 		.4byte	.LVL39
 1298 035a 0100     		.2byte	0x1
 1299 035c 53       		.byte	0x53
 1300 035d 64000000 		.4byte	.LVL41
 1301 0361 6C000000 		.4byte	.LVL43
 1302 0365 0100     		.2byte	0x1
 1303 0367 53       		.byte	0x53
ARM GAS  /tmp/cc9ujUVj.s 			page 24


 1304 0368 00000000 		.4byte	0x0
 1305 036c 00000000 		.4byte	0x0
 1306              	.LLST32:
 1307 0370 18000000 		.4byte	.LVL34
 1308 0374 21000000 		.4byte	.LVL35-1
 1309 0378 0100     		.2byte	0x1
 1310 037a 53       		.byte	0x53
 1311 037b 22000000 		.4byte	.LVL35
 1312 037f 33000000 		.4byte	.LVL36-1
 1313 0383 0100     		.2byte	0x1
 1314 0385 53       		.byte	0x53
 1315 0386 44000000 		.4byte	.LVL39
 1316 038a 46000000 		.4byte	.LVL40
 1317 038e 0100     		.2byte	0x1
 1318 0390 53       		.byte	0x53
 1319 0391 70000000 		.4byte	.LVL44
 1320 0395 72000000 		.4byte	.LFE12
 1321 0399 0100     		.2byte	0x1
 1322 039b 53       		.byte	0x53
 1323 039c 00000000 		.4byte	0x0
 1324 03a0 00000000 		.4byte	0x0
 1325              	.LLST33:
 1326 03a4 00000000 		.4byte	.LFB13
 1327 03a8 02000000 		.4byte	.LCFI6
 1328 03ac 0200     		.2byte	0x2
 1329 03ae 7D       		.byte	0x7d
 1330 03af 00       		.sleb128 0
 1331 03b0 02000000 		.4byte	.LCFI6
 1332 03b4 1C000000 		.4byte	.LFE13
 1333 03b8 0200     		.2byte	0x2
 1334 03ba 7D       		.byte	0x7d
 1335 03bb 04       		.sleb128 4
 1336 03bc 00000000 		.4byte	0x0
 1337 03c0 00000000 		.4byte	0x0
 1338              	.LLST34:
 1339 03c4 00000000 		.4byte	.LVL45
 1340 03c8 06000000 		.4byte	.LVL46
 1341 03cc 0100     		.2byte	0x1
 1342 03ce 53       		.byte	0x53
 1343 03cf 06000000 		.4byte	.LVL46
 1344 03d3 1C000000 		.4byte	.LFE13
 1345 03d7 0200     		.2byte	0x2
 1346 03d9 70       		.byte	0x70
 1347 03da 1C       		.sleb128 28
 1348 03db 00000000 		.4byte	0x0
 1349 03df 00000000 		.4byte	0x0
 1350              	.LLST35:
 1351 03e3 00000000 		.4byte	.LFB14
 1352 03e7 02000000 		.4byte	.LCFI7
 1353 03eb 0200     		.2byte	0x2
 1354 03ed 7D       		.byte	0x7d
 1355 03ee 00       		.sleb128 0
 1356 03ef 02000000 		.4byte	.LCFI7
 1357 03f3 2E000000 		.4byte	.LFE14
 1358 03f7 0200     		.2byte	0x2
 1359 03f9 7D       		.byte	0x7d
 1360 03fa 10       		.sleb128 16
ARM GAS  /tmp/cc9ujUVj.s 			page 25


 1361 03fb 00000000 		.4byte	0x0
 1362 03ff 00000000 		.4byte	0x0
 1363              	.LLST36:
 1364 0403 00000000 		.4byte	.LVL47
 1365 0407 0A000000 		.4byte	.LVL48
 1366 040b 0100     		.2byte	0x1
 1367 040d 50       		.byte	0x50
 1368 040e 0A000000 		.4byte	.LVL48
 1369 0412 2E000000 		.4byte	.LFE14
 1370 0416 0100     		.2byte	0x1
 1371 0418 54       		.byte	0x54
 1372 0419 00000000 		.4byte	0x0
 1373 041d 00000000 		.4byte	0x0
 1374              	.LLST37:
 1375 0421 1A000000 		.4byte	.LVL49
 1376 0425 2C000000 		.4byte	.LVL51
 1377 0429 0100     		.2byte	0x1
 1378 042b 54       		.byte	0x54
 1379 042c 00000000 		.4byte	0x0
 1380 0430 00000000 		.4byte	0x0
 1381              	.LLST38:
 1382 0434 1A000000 		.4byte	.LVL49
 1383 0438 23000000 		.4byte	.LVL50-1
 1384 043c 0100     		.2byte	0x1
 1385 043e 50       		.byte	0x50
 1386 043f 00000000 		.4byte	0x0
 1387 0443 00000000 		.4byte	0x0
 1388              	.LLST39:
 1389 0447 00000000 		.4byte	.LFB15
 1390 044b 02000000 		.4byte	.LCFI8
 1391 044f 0200     		.2byte	0x2
 1392 0451 7D       		.byte	0x7d
 1393 0452 00       		.sleb128 0
 1394 0453 02000000 		.4byte	.LCFI8
 1395 0457 4E000000 		.4byte	.LFE15
 1396 045b 0200     		.2byte	0x2
 1397 045d 7D       		.byte	0x7d
 1398 045e 18       		.sleb128 24
 1399 045f 00000000 		.4byte	0x0
 1400 0463 00000000 		.4byte	0x0
 1401              	.LLST40:
 1402 0467 00000000 		.4byte	.LVL52
 1403 046b 0E000000 		.4byte	.LVL54
 1404 046f 0100     		.2byte	0x1
 1405 0471 50       		.byte	0x50
 1406 0472 0E000000 		.4byte	.LVL54
 1407 0476 4E000000 		.4byte	.LFE15
 1408 047a 0100     		.2byte	0x1
 1409 047c 54       		.byte	0x54
 1410 047d 00000000 		.4byte	0x0
 1411 0481 00000000 		.4byte	0x0
 1412              	.LLST41:
 1413 0485 00000000 		.4byte	.LVL52
 1414 0489 0E000000 		.4byte	.LVL54
 1415 048d 0100     		.2byte	0x1
 1416 048f 51       		.byte	0x51
 1417 0490 00000000 		.4byte	0x0
ARM GAS  /tmp/cc9ujUVj.s 			page 26


 1418 0494 00000000 		.4byte	0x0
 1419              	.LLST42:
 1420 0498 00000000 		.4byte	.LVL52
 1421 049c 0E000000 		.4byte	.LVL54
 1422 04a0 0100     		.2byte	0x1
 1423 04a2 52       		.byte	0x52
 1424 04a3 0E000000 		.4byte	.LVL54
 1425 04a7 4E000000 		.4byte	.LFE15
 1426 04ab 0100     		.2byte	0x1
 1427 04ad 56       		.byte	0x56
 1428 04ae 00000000 		.4byte	0x0
 1429 04b2 00000000 		.4byte	0x0
 1430              	.LLST43:
 1431 04b6 0E000000 		.4byte	.LVL54
 1432 04ba 19000000 		.4byte	.LVL55-1
 1433 04be 0100     		.2byte	0x1
 1434 04c0 53       		.byte	0x53
 1435 04c1 26000000 		.4byte	.LVL58
 1436 04c5 28000000 		.4byte	.LVL59
 1437 04c9 0100     		.2byte	0x1
 1438 04cb 53       		.byte	0x53
 1439 04cc 00000000 		.4byte	0x0
 1440 04d0 00000000 		.4byte	0x0
 1441              	.LLST44:
 1442 04d4 1A000000 		.4byte	.LVL55
 1443 04d8 26000000 		.4byte	.LVL58
 1444 04dc 0100     		.2byte	0x1
 1445 04de 50       		.byte	0x50
 1446 04df 00000000 		.4byte	0x0
 1447 04e3 00000000 		.4byte	0x0
 1448              	.LLST45:
 1449 04e7 24000000 		.4byte	.LVL57
 1450 04eb 26000000 		.4byte	.LVL58
 1451 04ef 0100     		.2byte	0x1
 1452 04f1 53       		.byte	0x53
 1453 04f2 00000000 		.4byte	0x0
 1454 04f6 00000000 		.4byte	0x0
 1455              	.LLST46:
 1456 04fa 4A000000 		.4byte	.LVL61
 1457 04fe 4E000000 		.4byte	.LFE15
 1458 0502 0100     		.2byte	0x1
 1459 0504 53       		.byte	0x53
 1460 0505 00000000 		.4byte	0x0
 1461 0509 00000000 		.4byte	0x0
 1462              	.LLST47:
 1463 050d 00000000 		.4byte	.LFB16
 1464 0511 08000000 		.4byte	.LCFI9
 1465 0515 0200     		.2byte	0x2
 1466 0517 7D       		.byte	0x7d
 1467 0518 00       		.sleb128 0
 1468 0519 08000000 		.4byte	.LCFI9
 1469 051d 48000000 		.4byte	.LFE16
 1470 0521 0200     		.2byte	0x2
 1471 0523 7D       		.byte	0x7d
 1472 0524 08       		.sleb128 8
 1473 0525 00000000 		.4byte	0x0
 1474 0529 00000000 		.4byte	0x0
ARM GAS  /tmp/cc9ujUVj.s 			page 27


 1475              	.LLST48:
 1476 052d 00000000 		.4byte	.LVL62
 1477 0531 1A000000 		.4byte	.LVL64
 1478 0535 0100     		.2byte	0x1
 1479 0537 50       		.byte	0x50
 1480 0538 1A000000 		.4byte	.LVL64
 1481 053c 33000000 		.4byte	.LVL66-1
 1482 0540 0100     		.2byte	0x1
 1483 0542 53       		.byte	0x53
 1484 0543 3C000000 		.4byte	.LVL67
 1485 0547 46000000 		.4byte	.LVL68
 1486 054b 0100     		.2byte	0x1
 1487 054d 50       		.byte	0x50
 1488 054e 46000000 		.4byte	.LVL68
 1489 0552 48000000 		.4byte	.LFE16
 1490 0556 0100     		.2byte	0x1
 1491 0558 53       		.byte	0x53
 1492 0559 00000000 		.4byte	0x0
 1493 055d 00000000 		.4byte	0x0
 1494              	.LLST49:
 1495 0561 18000000 		.4byte	.LVL63
 1496 0565 3C000000 		.4byte	.LVL67
 1497 0569 0100     		.2byte	0x1
 1498 056b 54       		.byte	0x54
 1499 056c 00000000 		.4byte	0x0
 1500 0570 00000000 		.4byte	0x0
 1501              	.LLST50:
 1502 0574 2A000000 		.4byte	.LVL65
 1503 0578 33000000 		.4byte	.LVL66-1
 1504 057c 0100     		.2byte	0x1
 1505 057e 53       		.byte	0x53
 1506 057f 00000000 		.4byte	0x0
 1507 0583 00000000 		.4byte	0x0
 1508              	.LLST51:
 1509 0587 2A000000 		.4byte	.LVL65
 1510 058b 33000000 		.4byte	.LVL66-1
 1511 058f 0200     		.2byte	0x2
 1512 0591 73       		.byte	0x73
 1513 0592 00       		.sleb128 0
 1514 0593 00000000 		.4byte	0x0
 1515 0597 00000000 		.4byte	0x0
 1516              	.LLST52:
 1517 059b 00000000 		.4byte	.LFB17
 1518 059f 04000000 		.4byte	.LCFI10
 1519 05a3 0200     		.2byte	0x2
 1520 05a5 7D       		.byte	0x7d
 1521 05a6 00       		.sleb128 0
 1522 05a7 04000000 		.4byte	.LCFI10
 1523 05ab 80000000 		.4byte	.LFE17
 1524 05af 0200     		.2byte	0x2
 1525 05b1 7D       		.byte	0x7d
 1526 05b2 20       		.sleb128 32
 1527 05b3 00000000 		.4byte	0x0
 1528 05b7 00000000 		.4byte	0x0
 1529              	.LLST53:
 1530 05bb 00000000 		.4byte	.LVL69
 1531 05bf 1A000000 		.4byte	.LVL73
ARM GAS  /tmp/cc9ujUVj.s 			page 28


 1532 05c3 0100     		.2byte	0x1
 1533 05c5 50       		.byte	0x50
 1534 05c6 1A000000 		.4byte	.LVL73
 1535 05ca 80000000 		.4byte	.LFE17
 1536 05ce 0100     		.2byte	0x1
 1537 05d0 54       		.byte	0x54
 1538 05d1 00000000 		.4byte	0x0
 1539 05d5 00000000 		.4byte	0x0
 1540              	.LLST54:
 1541 05d9 00000000 		.4byte	.LVL69
 1542 05dd 1A000000 		.4byte	.LVL73
 1543 05e1 0100     		.2byte	0x1
 1544 05e3 51       		.byte	0x51
 1545 05e4 1A000000 		.4byte	.LVL73
 1546 05e8 36000000 		.4byte	.LVL76
 1547 05ec 0100     		.2byte	0x1
 1548 05ee 55       		.byte	0x55
 1549 05ef 36000000 		.4byte	.LVL76
 1550 05f3 58000000 		.4byte	.LVL81
 1551 05f7 0300     		.2byte	0x3
 1552 05f9 75       		.byte	0x75
 1553 05fa 01       		.sleb128 1
 1554 05fb 9F       		.byte	0x9f
 1555 05fc 58000000 		.4byte	.LVL81
 1556 0600 7A000000 		.4byte	.LVL87
 1557 0604 0100     		.2byte	0x1
 1558 0606 55       		.byte	0x55
 1559 0607 00000000 		.4byte	0x0
 1560 060b 00000000 		.4byte	0x0
 1561              	.LLST55:
 1562 060f 00000000 		.4byte	.LVL69
 1563 0613 1A000000 		.4byte	.LVL73
 1564 0617 0100     		.2byte	0x1
 1565 0619 52       		.byte	0x52
 1566 061a 1A000000 		.4byte	.LVL73
 1567 061e 50000000 		.4byte	.LVL79
 1568 0622 0100     		.2byte	0x1
 1569 0624 57       		.byte	0x57
 1570 0625 50000000 		.4byte	.LVL79
 1571 0629 54000000 		.4byte	.LVL80
 1572 062d 0300     		.2byte	0x3
 1573 062f 77       		.byte	0x77
 1574 0630 01       		.sleb128 1
 1575 0631 9F       		.byte	0x9f
 1576 0632 5E000000 		.4byte	.LVL83
 1577 0636 7A000000 		.4byte	.LVL87
 1578 063a 0100     		.2byte	0x1
 1579 063c 57       		.byte	0x57
 1580 063d 00000000 		.4byte	0x0
 1581 0641 00000000 		.4byte	0x0
 1582              	.LLST56:
 1583 0645 00000000 		.4byte	.LVL69
 1584 0649 12000000 		.4byte	.LVL71
 1585 064d 0100     		.2byte	0x1
 1586 064f 53       		.byte	0x53
 1587 0650 12000000 		.4byte	.LVL71
 1588 0654 80000000 		.4byte	.LFE17
ARM GAS  /tmp/cc9ujUVj.s 			page 29


 1589 0658 0100     		.2byte	0x1
 1590 065a 56       		.byte	0x56
 1591 065b 00000000 		.4byte	0x0
 1592 065f 00000000 		.4byte	0x0
 1593              	.LLST57:
 1594 0663 10000000 		.4byte	.LVL70
 1595 0667 1A000000 		.4byte	.LVL73
 1596 066b 0200     		.2byte	0x2
 1597 066d 70       		.byte	0x70
 1598 066e 1C       		.sleb128 28
 1599 066f 1A000000 		.4byte	.LVL73
 1600 0673 80000000 		.4byte	.LFE17
 1601 0677 0100     		.2byte	0x1
 1602 0679 59       		.byte	0x59
 1603 067a 00000000 		.4byte	0x0
 1604 067e 00000000 		.4byte	0x0
 1605              	.LLST58:
 1606 0682 10000000 		.4byte	.LVL70
 1607 0686 1A000000 		.4byte	.LVL73
 1608 068a 0200     		.2byte	0x2
 1609 068c 30       		.byte	0x30
 1610 068d 9F       		.byte	0x9f
 1611 068e 1A000000 		.4byte	.LVL73
 1612 0692 54000000 		.4byte	.LVL80
 1613 0696 0100     		.2byte	0x1
 1614 0698 58       		.byte	0x58
 1615 0699 54000000 		.4byte	.LVL80
 1616 069d 80000000 		.4byte	.LFE17
 1617 06a1 0100     		.2byte	0x1
 1618 06a3 58       		.byte	0x58
 1619 06a4 00000000 		.4byte	0x0
 1620 06a8 00000000 		.4byte	0x0
 1621              	.LLST59:
 1622 06ac 16000000 		.4byte	.LVL72
 1623 06b0 2C000000 		.4byte	.LVL75
 1624 06b4 0100     		.2byte	0x1
 1625 06b6 53       		.byte	0x53
 1626 06b7 68000000 		.4byte	.LVL84
 1627 06bb 6F000000 		.4byte	.LVL85-1
 1628 06bf 0100     		.2byte	0x1
 1629 06c1 53       		.byte	0x53
 1630 06c2 00000000 		.4byte	0x0
 1631 06c6 00000000 		.4byte	0x0
 1632              	.LLST60:
 1633 06ca 4E000000 		.4byte	.LVL78
 1634 06ce 5A000000 		.4byte	.LVL82
 1635 06d2 0100     		.2byte	0x1
 1636 06d4 53       		.byte	0x53
 1637 06d5 7A000000 		.4byte	.LVL87
 1638 06d9 80000000 		.4byte	.LFE17
 1639 06dd 0100     		.2byte	0x1
 1640 06df 53       		.byte	0x53
 1641 06e0 00000000 		.4byte	0x0
 1642 06e4 00000000 		.4byte	0x0
 1643              	.LLST61:
 1644 06e8 24000000 		.4byte	.LVL74
 1645 06ec 2C000000 		.4byte	.LVL75
ARM GAS  /tmp/cc9ujUVj.s 			page 30


 1646 06f0 0100     		.2byte	0x1
 1647 06f2 53       		.byte	0x53
 1648 06f3 5E000000 		.4byte	.LVL83
 1649 06f7 6F000000 		.4byte	.LVL85-1
 1650 06fb 0100     		.2byte	0x1
 1651 06fd 53       		.byte	0x53
 1652 06fe 00000000 		.4byte	0x0
 1653 0702 00000000 		.4byte	0x0
 1654              	.LLST62:
 1655 0706 7A000000 		.4byte	.LVL87
 1656 070a 80000000 		.4byte	.LFE17
 1657 070e 0100     		.2byte	0x1
 1658 0710 53       		.byte	0x53
 1659 0711 00000000 		.4byte	0x0
 1660 0715 00000000 		.4byte	0x0
 1661              		.file 3 "/opt/sgpp-lite-arm-eabi-bin-2010.09.51/bin/../lib/gcc/arm-none-eabi/4.5.1/include/stddef.
 1662              		.file 4 "/opt/sgpp-lite-arm-eabi-bin-2010.09.51/bin/../lib/gcc/arm-none-eabi/4.5.1/../../../../arm
 1663              		.file 5 "../ChibiOS_2.6.2/os/ports/GCC/ARMCMx/chtypes.h"
 1664              		.file 6 "../ChibiOS_2.6.2/os/kernel/include/chlists.h"
 1665              		.file 7 "../ChibiOS_2.6.2/os/kernel/include/chthreads.h"
 1666              		.file 8 "../ChibiOS_2.6.2/os/ports/GCC/ARMCMx/chcore_v7m.h"
 1667              		.file 9 "../ChibiOS_2.6.2/os/kernel/include/chschd.h"
 1668              		.file 10 "../ChibiOS_2.6.2/os/kernel/include/chmtx.h"
 1669              		.file 11 "../ChibiOS_2.6.2/os/kernel/include/chqueues.h"
 1670              		.section	.debug_info
 1671 0000 660B0000 		.4byte	0xb66
 1672 0004 0200     		.2byte	0x2
 1673 0006 00000000 		.4byte	.Ldebug_abbrev0
 1674 000a 04       		.byte	0x4
 1675 000b 01       		.uleb128 0x1
 1676 000c 63030000 		.4byte	.LASF92
 1677 0010 01       		.byte	0x1
 1678 0011 7C020000 		.4byte	.LASF93
 1679 0015 76030000 		.4byte	.LASF94
 1680 0019 00000000 		.4byte	0x0
 1681 001d 00000000 		.4byte	0x0
 1682 0021 18000000 		.4byte	.Ldebug_ranges0+0x18
 1683 0025 00000000 		.4byte	.Ldebug_line0
 1684 0029 02       		.uleb128 0x2
 1685 002a 04       		.byte	0x4
 1686 002b 05       		.byte	0x5
 1687 002c 696E7400 		.ascii	"int\000"
 1688 0030 03       		.uleb128 0x3
 1689 0031 21000000 		.4byte	.LASF2
 1690 0035 03       		.byte	0x3
 1691 0036 D3       		.byte	0xd3
 1692 0037 3B000000 		.4byte	0x3b
 1693 003b 04       		.uleb128 0x4
 1694 003c 04       		.byte	0x4
 1695 003d 07       		.byte	0x7
 1696 003e 2F010000 		.4byte	.LASF0
 1697 0042 04       		.uleb128 0x4
 1698 0043 01       		.byte	0x1
 1699 0044 06       		.byte	0x6
 1700 0045 93000000 		.4byte	.LASF1
 1701 0049 03       		.uleb128 0x3
 1702 004a 5B030000 		.4byte	.LASF3
ARM GAS  /tmp/cc9ujUVj.s 			page 31


 1703 004e 04       		.byte	0x4
 1704 004f 2A       		.byte	0x2a
 1705 0050 54000000 		.4byte	0x54
 1706 0054 04       		.uleb128 0x4
 1707 0055 01       		.byte	0x1
 1708 0056 08       		.byte	0x8
 1709 0057 41020000 		.4byte	.LASF4
 1710 005b 04       		.uleb128 0x4
 1711 005c 02       		.byte	0x2
 1712 005d 05       		.byte	0x5
 1713 005e 59020000 		.4byte	.LASF5
 1714 0062 04       		.uleb128 0x4
 1715 0063 02       		.byte	0x2
 1716 0064 07       		.byte	0x7
 1717 0065 66010000 		.4byte	.LASF6
 1718 0069 03       		.uleb128 0x3
 1719 006a 39020000 		.4byte	.LASF7
 1720 006e 04       		.byte	0x4
 1721 006f 4F       		.byte	0x4f
 1722 0070 74000000 		.4byte	0x74
 1723 0074 04       		.uleb128 0x4
 1724 0075 04       		.byte	0x4
 1725 0076 05       		.byte	0x5
 1726 0077 CD000000 		.4byte	.LASF8
 1727 007b 03       		.uleb128 0x3
 1728 007c D3020000 		.4byte	.LASF9
 1729 0080 04       		.byte	0x4
 1730 0081 50       		.byte	0x50
 1731 0082 86000000 		.4byte	0x86
 1732 0086 04       		.uleb128 0x4
 1733 0087 04       		.byte	0x4
 1734 0088 07       		.byte	0x7
 1735 0089 47010000 		.4byte	.LASF10
 1736 008d 04       		.uleb128 0x4
 1737 008e 08       		.byte	0x8
 1738 008f 05       		.byte	0x5
 1739 0090 85000000 		.4byte	.LASF11
 1740 0094 04       		.uleb128 0x4
 1741 0095 08       		.byte	0x8
 1742 0096 07       		.byte	0x7
 1743 0097 54000000 		.4byte	.LASF12
 1744 009b 03       		.uleb128 0x3
 1745 009c A7000000 		.4byte	.LASF13
 1746 00a0 05       		.byte	0x5
 1747 00a1 2B       		.byte	0x2b
 1748 00a2 A6000000 		.4byte	0xa6
 1749 00a6 04       		.uleb128 0x4
 1750 00a7 01       		.byte	0x1
 1751 00a8 02       		.byte	0x2
 1752 00a9 33020000 		.4byte	.LASF14
 1753 00ad 03       		.uleb128 0x3
 1754 00ae 7F010000 		.4byte	.LASF15
 1755 00b2 05       		.byte	0x5
 1756 00b3 2C       		.byte	0x2c
 1757 00b4 49000000 		.4byte	0x49
 1758 00b8 03       		.uleb128 0x3
 1759 00b9 D6000000 		.4byte	.LASF16
ARM GAS  /tmp/cc9ujUVj.s 			page 32


 1760 00bd 05       		.byte	0x5
 1761 00be 2D       		.byte	0x2d
 1762 00bf 49000000 		.4byte	0x49
 1763 00c3 03       		.uleb128 0x3
 1764 00c4 0A020000 		.4byte	.LASF17
 1765 00c8 05       		.byte	0x5
 1766 00c9 2E       		.byte	0x2e
 1767 00ca 49000000 		.4byte	0x49
 1768 00ce 03       		.uleb128 0x3
 1769 00cf BD000000 		.4byte	.LASF18
 1770 00d3 05       		.byte	0x5
 1771 00d4 2F       		.byte	0x2f
 1772 00d5 49000000 		.4byte	0x49
 1773 00d9 03       		.uleb128 0x3
 1774 00da 23020000 		.4byte	.LASF19
 1775 00de 05       		.byte	0x5
 1776 00df 30       		.byte	0x30
 1777 00e0 7B000000 		.4byte	0x7b
 1778 00e4 03       		.uleb128 0x3
 1779 00e5 79010000 		.4byte	.LASF20
 1780 00e9 05       		.byte	0x5
 1781 00ea 31       		.byte	0x31
 1782 00eb 69000000 		.4byte	0x69
 1783 00ef 03       		.uleb128 0x3
 1784 00f0 93010000 		.4byte	.LASF21
 1785 00f4 05       		.byte	0x5
 1786 00f5 33       		.byte	0x33
 1787 00f6 7B000000 		.4byte	0x7b
 1788 00fa 03       		.uleb128 0x3
 1789 00fb FC020000 		.4byte	.LASF22
 1790 00ff 05       		.byte	0x5
 1791 0100 35       		.byte	0x35
 1792 0101 7B000000 		.4byte	0x7b
 1793 0105 03       		.uleb128 0x3
 1794 0106 C1020000 		.4byte	.LASF23
 1795 010a 06       		.byte	0x6
 1796 010b 2A       		.byte	0x2a
 1797 010c 10010000 		.4byte	0x110
 1798 0110 05       		.uleb128 0x5
 1799 0111 C1020000 		.4byte	.LASF23
 1800 0115 48       		.byte	0x48
 1801 0116 07       		.byte	0x7
 1802 0117 5E       		.byte	0x5e
 1803 0118 35020000 		.4byte	0x235
 1804 011c 06       		.uleb128 0x6
 1805 011d AD020000 		.4byte	.LASF24
 1806 0121 07       		.byte	0x7
 1807 0122 5F       		.byte	0x5f
 1808 0123 5A020000 		.4byte	0x25a
 1809 0127 02       		.byte	0x2
 1810 0128 23       		.byte	0x23
 1811 0129 00       		.uleb128 0x0
 1812 012a 06       		.uleb128 0x6
 1813 012b 1C020000 		.4byte	.LASF25
 1814 012f 07       		.byte	0x7
 1815 0130 61       		.byte	0x61
 1816 0131 5A020000 		.4byte	0x25a
ARM GAS  /tmp/cc9ujUVj.s 			page 33


 1817 0135 02       		.byte	0x2
 1818 0136 23       		.byte	0x23
 1819 0137 04       		.uleb128 0x4
 1820 0138 06       		.uleb128 0x6
 1821 0139 74000000 		.4byte	.LASF26
 1822 013d 07       		.byte	0x7
 1823 013e 63       		.byte	0x63
 1824 013f D9000000 		.4byte	0xd9
 1825 0143 02       		.byte	0x2
 1826 0144 23       		.byte	0x23
 1827 0145 08       		.uleb128 0x8
 1828 0146 06       		.uleb128 0x6
 1829 0147 9F030000 		.4byte	.LASF27
 1830 014b 07       		.byte	0x7
 1831 014c 64       		.byte	0x64
 1832 014d 28030000 		.4byte	0x328
 1833 0151 02       		.byte	0x2
 1834 0152 23       		.byte	0x23
 1835 0153 0C       		.uleb128 0xc
 1836 0154 06       		.uleb128 0x6
 1837 0155 F9000000 		.4byte	.LASF28
 1838 0159 07       		.byte	0x7
 1839 015a 66       		.byte	0x66
 1840 015b 5A020000 		.4byte	0x25a
 1841 015f 02       		.byte	0x2
 1842 0160 23       		.byte	0x23
 1843 0161 10       		.uleb128 0x10
 1844 0162 06       		.uleb128 0x6
 1845 0163 D8010000 		.4byte	.LASF29
 1846 0167 07       		.byte	0x7
 1847 0168 67       		.byte	0x67
 1848 0169 5A020000 		.4byte	0x25a
 1849 016d 02       		.byte	0x2
 1850 016e 23       		.byte	0x23
 1851 016f 14       		.uleb128 0x14
 1852 0170 06       		.uleb128 0x6
 1853 0171 6F030000 		.4byte	.LASF30
 1854 0175 07       		.byte	0x7
 1855 0176 6E       		.byte	0x6e
 1856 0177 35040000 		.4byte	0x435
 1857 017b 02       		.byte	0x2
 1858 017c 23       		.byte	0x23
 1859 017d 18       		.uleb128 0x18
 1860 017e 06       		.uleb128 0x6
 1861 017f 63020000 		.4byte	.LASF31
 1862 0183 07       		.byte	0x7
 1863 0184 79       		.byte	0x79
 1864 0185 B8000000 		.4byte	0xb8
 1865 0189 02       		.byte	0x2
 1866 018a 23       		.byte	0x23
 1867 018b 1C       		.uleb128 0x1c
 1868 018c 06       		.uleb128 0x6
 1869 018d B9020000 		.4byte	.LASF32
 1870 0191 07       		.byte	0x7
 1871 0192 7D       		.byte	0x7d
 1872 0193 AD000000 		.4byte	0xad
 1873 0197 02       		.byte	0x2
ARM GAS  /tmp/cc9ujUVj.s 			page 34


 1874 0198 23       		.byte	0x23
 1875 0199 1D       		.uleb128 0x1d
 1876 019a 06       		.uleb128 0x6
 1877 019b 3B030000 		.4byte	.LASF33
 1878 019f 07       		.byte	0x7
 1879 01a0 82       		.byte	0x82
 1880 01a1 C3000000 		.4byte	0xc3
 1881 01a5 02       		.byte	0x2
 1882 01a6 23       		.byte	0x23
 1883 01a7 1E       		.uleb128 0x1e
 1884 01a8 06       		.uleb128 0x6
 1885 01a9 6B020000 		.4byte	.LASF34
 1886 01ad 07       		.byte	0x7
 1887 01ae 88       		.byte	0x88
 1888 01af CE000000 		.4byte	0xce
 1889 01b3 02       		.byte	0x2
 1890 01b4 23       		.byte	0x23
 1891 01b5 1F       		.uleb128 0x1f
 1892 01b6 06       		.uleb128 0x6
 1893 01b7 1C030000 		.4byte	.LASF35
 1894 01bb 07       		.byte	0x7
 1895 01bc 8F       		.byte	0x8f
 1896 01bd 4B030000 		.4byte	0x34b
 1897 01c1 02       		.byte	0x2
 1898 01c2 23       		.byte	0x23
 1899 01c3 20       		.uleb128 0x20
 1900 01c4 07       		.uleb128 0x7
 1901 01c5 705F7500 		.ascii	"p_u\000"
 1902 01c9 07       		.byte	0x7
 1903 01ca B4       		.byte	0xb4
 1904 01cb 00040000 		.4byte	0x400
 1905 01cf 02       		.byte	0x2
 1906 01d0 23       		.byte	0x23
 1907 01d1 24       		.uleb128 0x24
 1908 01d2 06       		.uleb128 0x6
 1909 01d3 A5030000 		.4byte	.LASF36
 1910 01d7 07       		.byte	0x7
 1911 01d8 B9       		.byte	0xb9
 1912 01d9 82020000 		.4byte	0x282
 1913 01dd 02       		.byte	0x2
 1914 01de 23       		.byte	0x23
 1915 01df 28       		.uleb128 0x28
 1916 01e0 06       		.uleb128 0x6
 1917 01e1 2A030000 		.4byte	.LASF37
 1918 01e5 07       		.byte	0x7
 1919 01e6 BF       		.byte	0xbf
 1920 01e7 60020000 		.4byte	0x260
 1921 01eb 02       		.byte	0x2
 1922 01ec 23       		.byte	0x23
 1923 01ed 2C       		.uleb128 0x2c
 1924 01ee 06       		.uleb128 0x6
 1925 01ef 09000000 		.4byte	.LASF38
 1926 01f3 07       		.byte	0x7
 1927 01f4 C3       		.byte	0xc3
 1928 01f5 E4000000 		.4byte	0xe4
 1929 01f9 02       		.byte	0x2
 1930 01fa 23       		.byte	0x23
ARM GAS  /tmp/cc9ujUVj.s 			page 35


 1931 01fb 34       		.uleb128 0x34
 1932 01fc 06       		.uleb128 0x6
 1933 01fd C8020000 		.4byte	.LASF39
 1934 0201 07       		.byte	0x7
 1935 0202 C9       		.byte	0xc9
 1936 0203 EF000000 		.4byte	0xef
 1937 0207 02       		.byte	0x2
 1938 0208 23       		.byte	0x23
 1939 0209 38       		.uleb128 0x38
 1940 020a 06       		.uleb128 0x6
 1941 020b 4F020000 		.4byte	.LASF40
 1942 020f 07       		.byte	0x7
 1943 0210 D0       		.byte	0xd0
 1944 0211 47040000 		.4byte	0x447
 1945 0215 02       		.byte	0x2
 1946 0216 23       		.byte	0x23
 1947 0217 3C       		.uleb128 0x3c
 1948 0218 06       		.uleb128 0x6
 1949 0219 06030000 		.4byte	.LASF41
 1950 021d 07       		.byte	0x7
 1951 021e D4       		.byte	0xd4
 1952 021f D9000000 		.4byte	0xd9
 1953 0223 02       		.byte	0x2
 1954 0224 23       		.byte	0x23
 1955 0225 40       		.uleb128 0x40
 1956 0226 06       		.uleb128 0x6
 1957 0227 9F000000 		.4byte	.LASF42
 1958 022b 07       		.byte	0x7
 1959 022c DA       		.byte	0xda
 1960 022d 98020000 		.4byte	0x298
 1961 0231 02       		.byte	0x2
 1962 0232 23       		.byte	0x23
 1963 0233 44       		.uleb128 0x44
 1964 0234 00       		.byte	0x0
 1965 0235 08       		.uleb128 0x8
 1966 0236 08       		.byte	0x8
 1967 0237 06       		.byte	0x6
 1968 0238 61       		.byte	0x61
 1969 0239 5A020000 		.4byte	0x25a
 1970 023d 06       		.uleb128 0x6
 1971 023e AD020000 		.4byte	.LASF24
 1972 0242 06       		.byte	0x6
 1973 0243 62       		.byte	0x62
 1974 0244 5A020000 		.4byte	0x25a
 1975 0248 02       		.byte	0x2
 1976 0249 23       		.byte	0x23
 1977 024a 00       		.uleb128 0x0
 1978 024b 06       		.uleb128 0x6
 1979 024c 1C020000 		.4byte	.LASF25
 1980 0250 06       		.byte	0x6
 1981 0251 64       		.byte	0x64
 1982 0252 5A020000 		.4byte	0x25a
 1983 0256 02       		.byte	0x2
 1984 0257 23       		.byte	0x23
 1985 0258 04       		.uleb128 0x4
 1986 0259 00       		.byte	0x0
 1987 025a 09       		.uleb128 0x9
ARM GAS  /tmp/cc9ujUVj.s 			page 36


 1988 025b 04       		.byte	0x4
 1989 025c 05010000 		.4byte	0x105
 1990 0260 03       		.uleb128 0x3
 1991 0261 E6010000 		.4byte	.LASF43
 1992 0265 06       		.byte	0x6
 1993 0266 66       		.byte	0x66
 1994 0267 35020000 		.4byte	0x235
 1995 026b 08       		.uleb128 0x8
 1996 026c 04       		.byte	0x4
 1997 026d 06       		.byte	0x6
 1998 026e 6B       		.byte	0x6b
 1999 026f 82020000 		.4byte	0x282
 2000 0273 06       		.uleb128 0x6
 2001 0274 AD020000 		.4byte	.LASF24
 2002 0278 06       		.byte	0x6
 2003 0279 6D       		.byte	0x6d
 2004 027a 5A020000 		.4byte	0x25a
 2005 027e 02       		.byte	0x2
 2006 027f 23       		.byte	0x23
 2007 0280 00       		.uleb128 0x0
 2008 0281 00       		.byte	0x0
 2009 0282 03       		.uleb128 0x3
 2010 0283 87010000 		.4byte	.LASF44
 2011 0287 06       		.byte	0x6
 2012 0288 70       		.byte	0x70
 2013 0289 6B020000 		.4byte	0x26b
 2014 028d 03       		.uleb128 0x3
 2015 028e 09010000 		.4byte	.LASF45
 2016 0292 08       		.byte	0x8
 2017 0293 E5       		.byte	0xe5
 2018 0294 98020000 		.4byte	0x298
 2019 0298 0A       		.uleb128 0xa
 2020 0299 04       		.byte	0x4
 2021 029a 0B       		.uleb128 0xb
 2022 029b 23030000 		.4byte	.LASF46
 2023 029f 24       		.byte	0x24
 2024 02a0 08       		.byte	0x8
 2025 02a1 0C01     		.2byte	0x10c
 2026 02a3 28030000 		.4byte	0x328
 2027 02a7 0C       		.uleb128 0xc
 2028 02a8 723400   		.ascii	"r4\000"
 2029 02ab 08       		.byte	0x8
 2030 02ac 1F01     		.2byte	0x11f
 2031 02ae 8D020000 		.4byte	0x28d
 2032 02b2 02       		.byte	0x2
 2033 02b3 23       		.byte	0x23
 2034 02b4 00       		.uleb128 0x0
 2035 02b5 0C       		.uleb128 0xc
 2036 02b6 723500   		.ascii	"r5\000"
 2037 02b9 08       		.byte	0x8
 2038 02ba 2001     		.2byte	0x120
 2039 02bc 8D020000 		.4byte	0x28d
 2040 02c0 02       		.byte	0x2
 2041 02c1 23       		.byte	0x23
 2042 02c2 04       		.uleb128 0x4
 2043 02c3 0C       		.uleb128 0xc
 2044 02c4 723600   		.ascii	"r6\000"
ARM GAS  /tmp/cc9ujUVj.s 			page 37


 2045 02c7 08       		.byte	0x8
 2046 02c8 2101     		.2byte	0x121
 2047 02ca 8D020000 		.4byte	0x28d
 2048 02ce 02       		.byte	0x2
 2049 02cf 23       		.byte	0x23
 2050 02d0 08       		.uleb128 0x8
 2051 02d1 0C       		.uleb128 0xc
 2052 02d2 723700   		.ascii	"r7\000"
 2053 02d5 08       		.byte	0x8
 2054 02d6 2201     		.2byte	0x122
 2055 02d8 8D020000 		.4byte	0x28d
 2056 02dc 02       		.byte	0x2
 2057 02dd 23       		.byte	0x23
 2058 02de 0C       		.uleb128 0xc
 2059 02df 0C       		.uleb128 0xc
 2060 02e0 723800   		.ascii	"r8\000"
 2061 02e3 08       		.byte	0x8
 2062 02e4 2301     		.2byte	0x123
 2063 02e6 8D020000 		.4byte	0x28d
 2064 02ea 02       		.byte	0x2
 2065 02eb 23       		.byte	0x23
 2066 02ec 10       		.uleb128 0x10
 2067 02ed 0C       		.uleb128 0xc
 2068 02ee 723900   		.ascii	"r9\000"
 2069 02f1 08       		.byte	0x8
 2070 02f2 2401     		.2byte	0x124
 2071 02f4 8D020000 		.4byte	0x28d
 2072 02f8 02       		.byte	0x2
 2073 02f9 23       		.byte	0x23
 2074 02fa 14       		.uleb128 0x14
 2075 02fb 0C       		.uleb128 0xc
 2076 02fc 72313000 		.ascii	"r10\000"
 2077 0300 08       		.byte	0x8
 2078 0301 2501     		.2byte	0x125
 2079 0303 8D020000 		.4byte	0x28d
 2080 0307 02       		.byte	0x2
 2081 0308 23       		.byte	0x23
 2082 0309 18       		.uleb128 0x18
 2083 030a 0C       		.uleb128 0xc
 2084 030b 72313100 		.ascii	"r11\000"
 2085 030f 08       		.byte	0x8
 2086 0310 2601     		.2byte	0x126
 2087 0312 8D020000 		.4byte	0x28d
 2088 0316 02       		.byte	0x2
 2089 0317 23       		.byte	0x23
 2090 0318 1C       		.uleb128 0x1c
 2091 0319 0C       		.uleb128 0xc
 2092 031a 6C7200   		.ascii	"lr\000"
 2093 031d 08       		.byte	0x8
 2094 031e 2701     		.2byte	0x127
 2095 0320 8D020000 		.4byte	0x28d
 2096 0324 02       		.byte	0x2
 2097 0325 23       		.byte	0x23
 2098 0326 20       		.uleb128 0x20
 2099 0327 00       		.byte	0x0
 2100 0328 0B       		.uleb128 0xb
 2101 0329 59010000 		.4byte	.LASF47
ARM GAS  /tmp/cc9ujUVj.s 			page 38


 2102 032d 04       		.byte	0x4
 2103 032e 08       		.byte	0x8
 2104 032f 3101     		.2byte	0x131
 2105 0331 45030000 		.4byte	0x345
 2106 0335 0C       		.uleb128 0xc
 2107 0336 72313300 		.ascii	"r13\000"
 2108 033a 08       		.byte	0x8
 2109 033b 3201     		.2byte	0x132
 2110 033d 45030000 		.4byte	0x345
 2111 0341 02       		.byte	0x2
 2112 0342 23       		.byte	0x23
 2113 0343 00       		.uleb128 0x0
 2114 0344 00       		.byte	0x0
 2115 0345 09       		.uleb128 0x9
 2116 0346 04       		.byte	0x4
 2117 0347 9A020000 		.4byte	0x29a
 2118 034b 0D       		.uleb128 0xd
 2119 034c FA000000 		.4byte	0xfa
 2120 0350 08       		.uleb128 0x8
 2121 0351 1C       		.byte	0x1c
 2122 0352 09       		.byte	0x9
 2123 0353 5E       		.byte	0x5e
 2124 0354 AD030000 		.4byte	0x3ad
 2125 0358 06       		.uleb128 0x6
 2126 0359 DC020000 		.4byte	.LASF48
 2127 035d 09       		.byte	0x9
 2128 035e 5F       		.byte	0x5f
 2129 035f 60020000 		.4byte	0x260
 2130 0363 02       		.byte	0x2
 2131 0364 23       		.byte	0x23
 2132 0365 00       		.uleb128 0x0
 2133 0366 06       		.uleb128 0x6
 2134 0367 75020000 		.4byte	.LASF49
 2135 036b 09       		.byte	0x9
 2136 036c 60       		.byte	0x60
 2137 036d D9000000 		.4byte	0xd9
 2138 0371 02       		.byte	0x2
 2139 0372 23       		.byte	0x23
 2140 0373 08       		.uleb128 0x8
 2141 0374 06       		.uleb128 0x6
 2142 0375 E0010000 		.4byte	.LASF50
 2143 0379 09       		.byte	0x9
 2144 037a 62       		.byte	0x62
 2145 037b 28030000 		.4byte	0x328
 2146 037f 02       		.byte	0x2
 2147 0380 23       		.byte	0x23
 2148 0381 0C       		.uleb128 0xc
 2149 0382 06       		.uleb128 0x6
 2150 0383 01010000 		.4byte	.LASF51
 2151 0387 09       		.byte	0x9
 2152 0388 65       		.byte	0x65
 2153 0389 5A020000 		.4byte	0x25a
 2154 038d 02       		.byte	0x2
 2155 038e 23       		.byte	0x23
 2156 038f 10       		.uleb128 0x10
 2157 0390 06       		.uleb128 0x6
 2158 0391 02020000 		.4byte	.LASF52
ARM GAS  /tmp/cc9ujUVj.s 			page 39


 2159 0395 09       		.byte	0x9
 2160 0396 66       		.byte	0x66
 2161 0397 5A020000 		.4byte	0x25a
 2162 039b 02       		.byte	0x2
 2163 039c 23       		.byte	0x23
 2164 039d 14       		.uleb128 0x14
 2165 039e 06       		.uleb128 0x6
 2166 039f F8010000 		.4byte	.LASF53
 2167 03a3 09       		.byte	0x9
 2168 03a4 69       		.byte	0x69
 2169 03a5 5A020000 		.4byte	0x25a
 2170 03a9 02       		.byte	0x2
 2171 03aa 23       		.byte	0x23
 2172 03ab 18       		.uleb128 0x18
 2173 03ac 00       		.byte	0x0
 2174 03ad 03       		.uleb128 0x3
 2175 03ae 42030000 		.4byte	.LASF54
 2176 03b2 09       		.byte	0x9
 2177 03b3 6B       		.byte	0x6b
 2178 03b4 50030000 		.4byte	0x350
 2179 03b8 05       		.uleb128 0x5
 2180 03b9 AA010000 		.4byte	.LASF55
 2181 03bd 10       		.byte	0x10
 2182 03be 0A       		.byte	0xa
 2183 03bf 2C       		.byte	0x2c
 2184 03c0 EF030000 		.4byte	0x3ef
 2185 03c4 06       		.uleb128 0x6
 2186 03c5 AE000000 		.4byte	.LASF56
 2187 03c9 0A       		.byte	0xa
 2188 03ca 2D       		.byte	0x2d
 2189 03cb 60020000 		.4byte	0x260
 2190 03cf 02       		.byte	0x2
 2191 03d0 23       		.byte	0x23
 2192 03d1 00       		.uleb128 0x0
 2193 03d2 06       		.uleb128 0x6
 2194 03d3 97030000 		.4byte	.LASF57
 2195 03d7 0A       		.byte	0xa
 2196 03d8 2F       		.byte	0x2f
 2197 03d9 5A020000 		.4byte	0x25a
 2198 03dd 02       		.byte	0x2
 2199 03de 23       		.byte	0x23
 2200 03df 08       		.uleb128 0x8
 2201 03e0 06       		.uleb128 0x6
 2202 03e1 F5020000 		.4byte	.LASF58
 2203 03e5 0A       		.byte	0xa
 2204 03e6 31       		.byte	0x31
 2205 03e7 EF030000 		.4byte	0x3ef
 2206 03eb 02       		.byte	0x2
 2207 03ec 23       		.byte	0x23
 2208 03ed 0C       		.uleb128 0xc
 2209 03ee 00       		.byte	0x0
 2210 03ef 09       		.uleb128 0x9
 2211 03f0 04       		.byte	0x4
 2212 03f1 B8030000 		.4byte	0x3b8
 2213 03f5 03       		.uleb128 0x3
 2214 03f6 AA010000 		.4byte	.LASF55
 2215 03fa 0A       		.byte	0xa
ARM GAS  /tmp/cc9ujUVj.s 			page 40


 2216 03fb 33       		.byte	0x33
 2217 03fc B8030000 		.4byte	0x3b8
 2218 0400 0E       		.uleb128 0xe
 2219 0401 04       		.byte	0x4
 2220 0402 07       		.byte	0x7
 2221 0403 96       		.byte	0x96
 2222 0404 35040000 		.4byte	0x435
 2223 0408 0F       		.uleb128 0xf
 2224 0409 28000000 		.4byte	.LASF59
 2225 040d 07       		.byte	0x7
 2226 040e 9D       		.byte	0x9d
 2227 040f E4000000 		.4byte	0xe4
 2228 0413 0F       		.uleb128 0xf
 2229 0414 6B000000 		.4byte	.LASF60
 2230 0418 07       		.byte	0x7
 2231 0419 A4       		.byte	0xa4
 2232 041a E4000000 		.4byte	0xe4
 2233 041e 0F       		.uleb128 0xf
 2234 041f B6000000 		.4byte	.LASF61
 2235 0423 07       		.byte	0x7
 2236 0424 AB       		.byte	0xab
 2237 0425 98020000 		.4byte	0x298
 2238 0429 0F       		.uleb128 0xf
 2239 042a A6020000 		.4byte	.LASF62
 2240 042e 07       		.byte	0x7
 2241 042f B2       		.byte	0xb2
 2242 0430 EF000000 		.4byte	0xef
 2243 0434 00       		.byte	0x0
 2244 0435 09       		.uleb128 0x9
 2245 0436 04       		.byte	0x4
 2246 0437 3B040000 		.4byte	0x43b
 2247 043b 10       		.uleb128 0x10
 2248 043c 40040000 		.4byte	0x440
 2249 0440 04       		.uleb128 0x4
 2250 0441 01       		.byte	0x1
 2251 0442 08       		.byte	0x8
 2252 0443 E4020000 		.4byte	.LASF63
 2253 0447 09       		.uleb128 0x9
 2254 0448 04       		.byte	0x4
 2255 0449 F5030000 		.4byte	0x3f5
 2256 044d 03       		.uleb128 0x3
 2257 044e B0010000 		.4byte	.LASF64
 2258 0452 0B       		.byte	0xb
 2259 0453 37       		.byte	0x37
 2260 0454 58040000 		.4byte	0x458
 2261 0458 05       		.uleb128 0x5
 2262 0459 B0010000 		.4byte	.LASF64
 2263 045d 24       		.byte	0x24
 2264 045e 0B       		.byte	0xb
 2265 045f 45       		.byte	0x45
 2266 0460 D5040000 		.4byte	0x4d5
 2267 0464 06       		.uleb128 0x6
 2268 0465 7B000000 		.4byte	.LASF65
 2269 0469 0B       		.byte	0xb
 2270 046a 46       		.byte	0x46
 2271 046b 60020000 		.4byte	0x260
 2272 046f 02       		.byte	0x2
ARM GAS  /tmp/cc9ujUVj.s 			page 41


 2273 0470 23       		.byte	0x23
 2274 0471 00       		.uleb128 0x0
 2275 0472 06       		.uleb128 0x6
 2276 0473 CE010000 		.4byte	.LASF66
 2277 0477 0B       		.byte	0xb
 2278 0478 47       		.byte	0x47
 2279 0479 30000000 		.4byte	0x30
 2280 047d 02       		.byte	0x2
 2281 047e 23       		.byte	0x23
 2282 047f 08       		.uleb128 0x8
 2283 0480 06       		.uleb128 0x6
 2284 0481 E8000000 		.4byte	.LASF67
 2285 0485 0B       		.byte	0xb
 2286 0486 48       		.byte	0x48
 2287 0487 F8040000 		.4byte	0x4f8
 2288 048b 02       		.byte	0x2
 2289 048c 23       		.byte	0x23
 2290 048d 0C       		.uleb128 0xc
 2291 048e 06       		.uleb128 0x6
 2292 048f 35030000 		.4byte	.LASF68
 2293 0493 0B       		.byte	0xb
 2294 0494 49       		.byte	0x49
 2295 0495 F8040000 		.4byte	0x4f8
 2296 0499 02       		.byte	0x2
 2297 049a 23       		.byte	0x23
 2298 049b 10       		.uleb128 0x10
 2299 049c 06       		.uleb128 0x6
 2300 049d F1000000 		.4byte	.LASF69
 2301 04a1 0B       		.byte	0xb
 2302 04a2 4B       		.byte	0x4b
 2303 04a3 F8040000 		.4byte	0x4f8
 2304 04a7 02       		.byte	0x2
 2305 04a8 23       		.byte	0x23
 2306 04a9 14       		.uleb128 0x14
 2307 04aa 06       		.uleb128 0x6
 2308 04ab 2B020000 		.4byte	.LASF70
 2309 04af 0B       		.byte	0xb
 2310 04b0 4C       		.byte	0x4c
 2311 04b1 F8040000 		.4byte	0x4f8
 2312 04b5 02       		.byte	0x2
 2313 04b6 23       		.byte	0x23
 2314 04b7 18       		.uleb128 0x18
 2315 04b8 06       		.uleb128 0x6
 2316 04b9 4C030000 		.4byte	.LASF71
 2317 04bd 0B       		.byte	0xb
 2318 04be 4D       		.byte	0x4d
 2319 04bf D5040000 		.4byte	0x4d5
 2320 04c3 02       		.byte	0x2
 2321 04c4 23       		.byte	0x23
 2322 04c5 1C       		.uleb128 0x1c
 2323 04c6 06       		.uleb128 0x6
 2324 04c7 90030000 		.4byte	.LASF72
 2325 04cb 0B       		.byte	0xb
 2326 04cc 4E       		.byte	0x4e
 2327 04cd 98020000 		.4byte	0x298
 2328 04d1 02       		.byte	0x2
 2329 04d2 23       		.byte	0x23
ARM GAS  /tmp/cc9ujUVj.s 			page 42


 2330 04d3 20       		.uleb128 0x20
 2331 04d4 00       		.byte	0x0
 2332 04d5 03       		.uleb128 0x3
 2333 04d6 12020000 		.4byte	.LASF73
 2334 04da 0B       		.byte	0xb
 2335 04db 3A       		.byte	0x3a
 2336 04dc E0040000 		.4byte	0x4e0
 2337 04e0 09       		.uleb128 0x9
 2338 04e1 04       		.byte	0x4
 2339 04e2 E6040000 		.4byte	0x4e6
 2340 04e6 11       		.uleb128 0x11
 2341 04e7 01       		.byte	0x1
 2342 04e8 F2040000 		.4byte	0x4f2
 2343 04ec 12       		.uleb128 0x12
 2344 04ed F2040000 		.4byte	0x4f2
 2345 04f1 00       		.byte	0x0
 2346 04f2 09       		.uleb128 0x9
 2347 04f3 04       		.byte	0x4
 2348 04f4 4D040000 		.4byte	0x44d
 2349 04f8 09       		.uleb128 0x9
 2350 04f9 04       		.byte	0x4
 2351 04fa 49000000 		.4byte	0x49
 2352 04fe 03       		.uleb128 0x3
 2353 04ff 9F010000 		.4byte	.LASF74
 2354 0503 0B       		.byte	0xb
 2355 0504 82       		.byte	0x82
 2356 0505 4D040000 		.4byte	0x44d
 2357 0509 03       		.uleb128 0x3
 2358 050a 38000000 		.4byte	.LASF75
 2359 050e 0B       		.byte	0xb
 2360 050f F5       		.byte	0xf5
 2361 0510 4D040000 		.4byte	0x44d
 2362 0514 09       		.uleb128 0x9
 2363 0515 04       		.byte	0x4
 2364 0516 1A050000 		.4byte	0x51a
 2365 051a 10       		.uleb128 0x10
 2366 051b 49000000 		.4byte	0x49
 2367 051f 13       		.uleb128 0x13
 2368 0520 0F000000 		.4byte	.LASF95
 2369 0524 02       		.byte	0x2
 2370 0525 34       		.byte	0x34
 2371 0526 01       		.byte	0x1
 2372 0527 03       		.byte	0x3
 2373 0528 42050000 		.4byte	0x542
 2374 052c 14       		.uleb128 0x14
 2375 052d 747000   		.ascii	"tp\000"
 2376 0530 02       		.byte	0x2
 2377 0531 34       		.byte	0x34
 2378 0532 5A020000 		.4byte	0x25a
 2379 0536 14       		.uleb128 0x14
 2380 0537 74717000 		.ascii	"tqp\000"
 2381 053b 02       		.byte	0x2
 2382 053c 34       		.byte	0x34
 2383 053d 42050000 		.4byte	0x542
 2384 0541 00       		.byte	0x0
 2385 0542 09       		.uleb128 0x9
 2386 0543 04       		.byte	0x4
ARM GAS  /tmp/cc9ujUVj.s 			page 43


 2387 0544 60020000 		.4byte	0x260
 2388 0548 15       		.uleb128 0x15
 2389 0549 E9020000 		.4byte	.LASF96
 2390 054d 02       		.byte	0x2
 2391 054e 3B       		.byte	0x3b
 2392 054f 01       		.byte	0x1
 2393 0550 5A020000 		.4byte	0x25a
 2394 0554 03       		.byte	0x3
 2395 0555 6F050000 		.4byte	0x56f
 2396 0559 14       		.uleb128 0x14
 2397 055a 74717000 		.ascii	"tqp\000"
 2398 055e 02       		.byte	0x2
 2399 055f 3B       		.byte	0x3b
 2400 0560 42050000 		.4byte	0x542
 2401 0564 16       		.uleb128 0x16
 2402 0565 747000   		.ascii	"tp\000"
 2403 0568 02       		.byte	0x2
 2404 0569 3C       		.byte	0x3c
 2405 056a 5A020000 		.4byte	0x25a
 2406 056e 00       		.byte	0x0
 2407 056f 17       		.uleb128 0x17
 2408 0570 C7000000 		.4byte	.LASF97
 2409 0574 01       		.byte	0x1
 2410 0575 46       		.byte	0x46
 2411 0576 01       		.byte	0x1
 2412 0577 E4000000 		.4byte	0xe4
 2413 057b 00000000 		.4byte	.LFB7
 2414 057f 2C000000 		.4byte	.LFE7
 2415 0583 00000000 		.4byte	.LLST0
 2416 0587 C7050000 		.4byte	0x5c7
 2417 058b 18       		.uleb128 0x18
 2418 058c 717000   		.ascii	"qp\000"
 2419 058f 01       		.byte	0x1
 2420 0590 46       		.byte	0x46
 2421 0591 F2040000 		.4byte	0x4f2
 2422 0595 20000000 		.4byte	.LLST1
 2423 0599 19       		.uleb128 0x19
 2424 059a F3010000 		.4byte	.LASF76
 2425 059e 01       		.byte	0x1
 2426 059f 46       		.byte	0x46
 2427 05a0 FA000000 		.4byte	0xfa
 2428 05a4 01       		.byte	0x1
 2429 05a5 51       		.byte	0x51
 2430 05a6 1A       		.uleb128 0x1a
 2431 05a7 1F050000 		.4byte	0x51f
 2432 05ab 1C000000 		.4byte	.LBB12
 2433 05af 26000000 		.4byte	.LBE12
 2434 05b3 01       		.byte	0x1
 2435 05b4 4B       		.byte	0x4b
 2436 05b5 1B       		.uleb128 0x1b
 2437 05b6 36050000 		.4byte	0x536
 2438 05ba 01       		.byte	0x1
 2439 05bb 53       		.byte	0x53
 2440 05bc 1C       		.uleb128 0x1c
 2441 05bd 2C050000 		.4byte	0x52c
 2442 05c1 3E000000 		.4byte	.LLST2
 2443 05c5 00       		.byte	0x0
ARM GAS  /tmp/cc9ujUVj.s 			page 44


 2444 05c6 00       		.byte	0x0
 2445 05c7 1D       		.uleb128 0x1d
 2446 05c8 01       		.byte	0x1
 2447 05c9 2F000000 		.4byte	.LASF80
 2448 05cd 01       		.byte	0x1
 2449 05ce 5F       		.byte	0x5f
 2450 05cf 01       		.byte	0x1
 2451 05d0 00000000 		.4byte	.LFB8
 2452 05d4 1E000000 		.4byte	.LFE8
 2453 05d8 52000000 		.4byte	.LLST3
 2454 05dc 26060000 		.4byte	0x626
 2455 05e0 1E       		.uleb128 0x1e
 2456 05e1 69717000 		.ascii	"iqp\000"
 2457 05e5 01       		.byte	0x1
 2458 05e6 5F       		.byte	0x5f
 2459 05e7 26060000 		.4byte	0x626
 2460 05eb 01       		.byte	0x1
 2461 05ec 50       		.byte	0x50
 2462 05ed 1E       		.uleb128 0x1e
 2463 05ee 627000   		.ascii	"bp\000"
 2464 05f1 01       		.byte	0x1
 2465 05f2 5F       		.byte	0x5f
 2466 05f3 F8040000 		.4byte	0x4f8
 2467 05f7 01       		.byte	0x1
 2468 05f8 51       		.byte	0x51
 2469 05f9 1F       		.uleb128 0x1f
 2470 05fa 61010000 		.4byte	.LASF77
 2471 05fe 01       		.byte	0x1
 2472 05ff 5F       		.byte	0x5f
 2473 0600 30000000 		.4byte	0x30
 2474 0604 72000000 		.4byte	.LLST4
 2475 0608 1F       		.uleb128 0x1f
 2476 0609 B4020000 		.4byte	.LASF78
 2477 060d 01       		.byte	0x1
 2478 060e 5F       		.byte	0x5f
 2479 060f D5040000 		.4byte	0x4d5
 2480 0613 85000000 		.4byte	.LLST5
 2481 0617 19       		.uleb128 0x19
 2482 0618 12010000 		.4byte	.LASF79
 2483 061c 01       		.byte	0x1
 2484 061d 60       		.byte	0x60
 2485 061e 98020000 		.4byte	0x298
 2486 0622 02       		.byte	0x2
 2487 0623 91       		.byte	0x91
 2488 0624 00       		.sleb128 0
 2489 0625 00       		.byte	0x0
 2490 0626 09       		.uleb128 0x9
 2491 0627 04       		.byte	0x4
 2492 0628 FE040000 		.4byte	0x4fe
 2493 062c 1D       		.uleb128 0x1d
 2494 062d 01       		.byte	0x1
 2495 062e 3C010000 		.4byte	.LASF81
 2496 0632 01       		.byte	0x1
 2497 0633 75       		.byte	0x75
 2498 0634 01       		.byte	0x1
 2499 0635 00000000 		.4byte	.LFB9
 2500 0639 2C000000 		.4byte	.LFE9
ARM GAS  /tmp/cc9ujUVj.s 			page 45


 2501 063d A4000000 		.4byte	.LLST6
 2502 0641 81060000 		.4byte	0x681
 2503 0645 18       		.uleb128 0x18
 2504 0646 69717000 		.ascii	"iqp\000"
 2505 064a 01       		.byte	0x1
 2506 064b 75       		.byte	0x75
 2507 064c 26060000 		.4byte	0x626
 2508 0650 C4000000 		.4byte	.LLST7
 2509 0654 1A       		.uleb128 0x1a
 2510 0655 48050000 		.4byte	0x548
 2511 0659 18000000 		.4byte	.LBB14
 2512 065d 1E000000 		.4byte	.LBE14
 2513 0661 01       		.byte	0x1
 2514 0662 7C       		.byte	0x7c
 2515 0663 1C       		.uleb128 0x1c
 2516 0664 59050000 		.4byte	0x559
 2517 0668 E2000000 		.4byte	.LLST8
 2518 066c 20       		.uleb128 0x20
 2519 066d 18000000 		.4byte	.LBB15
 2520 0671 1E000000 		.4byte	.LBE15
 2521 0675 21       		.uleb128 0x21
 2522 0676 64050000 		.4byte	0x564
 2523 067a F5000000 		.4byte	.LLST9
 2524 067e 00       		.byte	0x0
 2525 067f 00       		.byte	0x0
 2526 0680 00       		.byte	0x0
 2527 0681 22       		.uleb128 0x22
 2528 0682 01       		.byte	0x1
 2529 0683 26010000 		.4byte	.LASF82
 2530 0687 01       		.byte	0x1
 2531 0688 8C       		.byte	0x8c
 2532 0689 01       		.byte	0x1
 2533 068a E4000000 		.4byte	0xe4
 2534 068e 00000000 		.4byte	.LFB10
 2535 0692 4C000000 		.4byte	.LFE10
 2536 0696 08010000 		.4byte	.LLST10
 2537 069a E7060000 		.4byte	0x6e7
 2538 069e 18       		.uleb128 0x18
 2539 069f 69717000 		.ascii	"iqp\000"
 2540 06a3 01       		.byte	0x1
 2541 06a4 8C       		.byte	0x8c
 2542 06a5 26060000 		.4byte	0x626
 2543 06a9 28010000 		.4byte	.LLST11
 2544 06ad 18       		.uleb128 0x18
 2545 06ae 6200     		.ascii	"b\000"
 2546 06b0 01       		.byte	0x1
 2547 06b1 8C       		.byte	0x8c
 2548 06b2 49000000 		.4byte	0x49
 2549 06b6 51010000 		.4byte	.LLST12
 2550 06ba 1A       		.uleb128 0x1a
 2551 06bb 48050000 		.4byte	0x548
 2552 06bf 2A000000 		.4byte	.LBB16
 2553 06c3 30000000 		.4byte	.LBE16
 2554 06c7 01       		.byte	0x1
 2555 06c8 99       		.byte	0x99
 2556 06c9 1C       		.uleb128 0x1c
 2557 06ca 59050000 		.4byte	0x559
ARM GAS  /tmp/cc9ujUVj.s 			page 46


 2558 06ce 7C010000 		.4byte	.LLST13
 2559 06d2 20       		.uleb128 0x20
 2560 06d3 2A000000 		.4byte	.LBB17
 2561 06d7 30000000 		.4byte	.LBE17
 2562 06db 21       		.uleb128 0x21
 2563 06dc 64050000 		.4byte	0x564
 2564 06e0 8F010000 		.4byte	.LLST14
 2565 06e4 00       		.byte	0x0
 2566 06e5 00       		.byte	0x0
 2567 06e6 00       		.byte	0x0
 2568 06e7 22       		.uleb128 0x22
 2569 06e8 01       		.byte	0x1
 2570 06e9 AF030000 		.4byte	.LASF83
 2571 06ed 01       		.byte	0x1
 2572 06ee B2       		.byte	0xb2
 2573 06ef 01       		.byte	0x1
 2574 06f0 E4000000 		.4byte	0xe4
 2575 06f4 00000000 		.4byte	.LFB11
 2576 06f8 48000000 		.4byte	.LFE11
 2577 06fc A3010000 		.4byte	.LLST15
 2578 0700 96070000 		.4byte	0x796
 2579 0704 18       		.uleb128 0x18
 2580 0705 69717000 		.ascii	"iqp\000"
 2581 0709 01       		.byte	0x1
 2582 070a B2       		.byte	0xb2
 2583 070b 26060000 		.4byte	0x626
 2584 070f C3010000 		.4byte	.LLST16
 2585 0713 1F       		.uleb128 0x1f
 2586 0714 F3010000 		.4byte	.LASF76
 2587 0718 01       		.byte	0x1
 2588 0719 B2       		.byte	0xb2
 2589 071a FA000000 		.4byte	0xfa
 2590 071e E1010000 		.4byte	.LLST17
 2591 0722 23       		.uleb128 0x23
 2592 0723 6200     		.ascii	"b\000"
 2593 0725 01       		.byte	0x1
 2594 0726 B3       		.byte	0xb3
 2595 0727 49000000 		.4byte	0x49
 2596 072b 01       		.byte	0x1
 2597 072c 50       		.byte	0x50
 2598 072d 24       		.uleb128 0x24
 2599 072e 00000000 		.4byte	.Ldebug_ranges0+0x0
 2600 0732 46070000 		.4byte	0x746
 2601 0736 25       		.uleb128 0x25
 2602 0737 746D7000 		.ascii	"tmp\000"
 2603 073b 01       		.byte	0x1
 2604 073c B5       		.byte	0xb5
 2605 073d 7B000000 		.4byte	0x7b
 2606 0741 FF010000 		.4byte	.LLST18
 2607 0745 00       		.byte	0x0
 2608 0746 26       		.uleb128 0x26
 2609 0747 16000000 		.4byte	.LBB20
 2610 074b 2A000000 		.4byte	.LBE20
 2611 074f 7C070000 		.4byte	0x77c
 2612 0753 25       		.uleb128 0x25
 2613 0754 6D736700 		.ascii	"msg\000"
 2614 0758 01       		.byte	0x1
ARM GAS  /tmp/cc9ujUVj.s 			page 47


 2615 0759 BA       		.byte	0xba
 2616 075a E4000000 		.4byte	0xe4
 2617 075e 12020000 		.4byte	.LLST19
 2618 0762 20       		.uleb128 0x20
 2619 0763 22000000 		.4byte	.LBB21
 2620 0767 28000000 		.4byte	.LBE21
 2621 076b 25       		.uleb128 0x25
 2622 076c 746D7000 		.ascii	"tmp\000"
 2623 0770 01       		.byte	0x1
 2624 0771 BC       		.byte	0xbc
 2625 0772 7B000000 		.4byte	0x7b
 2626 0776 25020000 		.4byte	.LLST20
 2627 077a 00       		.byte	0x0
 2628 077b 00       		.byte	0x0
 2629 077c 20       		.uleb128 0x20
 2630 077d 40000000 		.4byte	.LBB22
 2631 0781 46000000 		.4byte	.LBE22
 2632 0785 25       		.uleb128 0x25
 2633 0786 746D7000 		.ascii	"tmp\000"
 2634 078a 01       		.byte	0x1
 2635 078b C6       		.byte	0xc6
 2636 078c 7B000000 		.4byte	0x7b
 2637 0790 38020000 		.4byte	.LLST21
 2638 0794 00       		.byte	0x0
 2639 0795 00       		.byte	0x0
 2640 0796 22       		.uleb128 0x22
 2641 0797 01       		.byte	0x1
 2642 0798 44000000 		.4byte	.LASF84
 2643 079c 01       		.byte	0x1
 2644 079d E2       		.byte	0xe2
 2645 079e 01       		.byte	0x1
 2646 079f 30000000 		.4byte	0x30
 2647 07a3 00000000 		.4byte	.LFB12
 2648 07a7 72000000 		.4byte	.LFE12
 2649 07ab 4B020000 		.4byte	.LLST22
 2650 07af 79080000 		.4byte	0x879
 2651 07b3 18       		.uleb128 0x18
 2652 07b4 69717000 		.ascii	"iqp\000"
 2653 07b8 01       		.byte	0x1
 2654 07b9 E2       		.byte	0xe2
 2655 07ba 26060000 		.4byte	0x626
 2656 07be 6B020000 		.4byte	.LLST23
 2657 07c2 18       		.uleb128 0x18
 2658 07c3 627000   		.ascii	"bp\000"
 2659 07c6 01       		.byte	0x1
 2660 07c7 E2       		.byte	0xe2
 2661 07c8 F8040000 		.4byte	0x4f8
 2662 07cc 89020000 		.4byte	.LLST24
 2663 07d0 18       		.uleb128 0x18
 2664 07d1 6E00     		.ascii	"n\000"
 2665 07d3 01       		.byte	0x1
 2666 07d4 E3       		.byte	0xe3
 2667 07d5 30000000 		.4byte	0x30
 2668 07d9 9C020000 		.4byte	.LLST25
 2669 07dd 1F       		.uleb128 0x1f
 2670 07de F3010000 		.4byte	.LASF76
 2671 07e2 01       		.byte	0x1
ARM GAS  /tmp/cc9ujUVj.s 			page 48


 2672 07e3 E3       		.byte	0xe3
 2673 07e4 FA000000 		.4byte	0xfa
 2674 07e8 AF020000 		.4byte	.LLST26
 2675 07ec 25       		.uleb128 0x25
 2676 07ed 6E667900 		.ascii	"nfy\000"
 2677 07f1 01       		.byte	0x1
 2678 07f2 E4       		.byte	0xe4
 2679 07f3 D5040000 		.4byte	0x4d5
 2680 07f7 CD020000 		.4byte	.LLST27
 2681 07fb 25       		.uleb128 0x25
 2682 07fc 7200     		.ascii	"r\000"
 2683 07fe 01       		.byte	0x1
 2684 07ff E5       		.byte	0xe5
 2685 0800 30000000 		.4byte	0x30
 2686 0804 EC020000 		.4byte	.LLST28
 2687 0808 26       		.uleb128 0x26
 2688 0809 10000000 		.4byte	.LBB23
 2689 080d 18000000 		.4byte	.LBE23
 2690 0811 25080000 		.4byte	0x825
 2691 0815 25       		.uleb128 0x25
 2692 0816 746D7000 		.ascii	"tmp\000"
 2693 081a 01       		.byte	0x1
 2694 081b E9       		.byte	0xe9
 2695 081c 7B000000 		.4byte	0x7b
 2696 0820 16030000 		.4byte	.LLST29
 2697 0824 00       		.byte	0x0
 2698 0825 26       		.uleb128 0x26
 2699 0826 38000000 		.4byte	.LBB24
 2700 082a 3E000000 		.4byte	.LBE24
 2701 082e 42080000 		.4byte	0x842
 2702 0832 25       		.uleb128 0x25
 2703 0833 746D7000 		.ascii	"tmp\000"
 2704 0837 01       		.byte	0x1
 2705 0838 F0       		.byte	0xf0
 2706 0839 7B000000 		.4byte	0x7b
 2707 083d 3F030000 		.4byte	.LLST30
 2708 0841 00       		.byte	0x0
 2709 0842 26       		.uleb128 0x26
 2710 0843 5E000000 		.4byte	.LBB25
 2711 0847 64000000 		.4byte	.LBE25
 2712 084b 5F080000 		.4byte	0x85f
 2713 084f 25       		.uleb128 0x25
 2714 0850 746D7000 		.ascii	"tmp\000"
 2715 0854 01       		.byte	0x1
 2716 0855 FA       		.byte	0xfa
 2717 0856 7B000000 		.4byte	0x7b
 2718 085a 52030000 		.4byte	.LLST31
 2719 085e 00       		.byte	0x0
 2720 085f 20       		.uleb128 0x20
 2721 0860 6A000000 		.4byte	.LBB26
 2722 0864 70000000 		.4byte	.LBE26
 2723 0868 25       		.uleb128 0x25
 2724 0869 746D7000 		.ascii	"tmp\000"
 2725 086d 01       		.byte	0x1
 2726 086e FF       		.byte	0xff
 2727 086f 7B000000 		.4byte	0x7b
 2728 0873 70030000 		.4byte	.LLST32
ARM GAS  /tmp/cc9ujUVj.s 			page 49


 2729 0877 00       		.byte	0x0
 2730 0878 00       		.byte	0x0
 2731 0879 27       		.uleb128 0x27
 2732 087a 01       		.byte	0x1
 2733 087b 00000000 		.4byte	.LASF85
 2734 087f 01       		.byte	0x1
 2735 0880 1301     		.2byte	0x113
 2736 0882 01       		.byte	0x1
 2737 0883 00000000 		.4byte	.LFB13
 2738 0887 1C000000 		.4byte	.LFE13
 2739 088b A4030000 		.4byte	.LLST33
 2740 088f DC080000 		.4byte	0x8dc
 2741 0893 28       		.uleb128 0x28
 2742 0894 6F717000 		.ascii	"oqp\000"
 2743 0898 01       		.byte	0x1
 2744 0899 1301     		.2byte	0x113
 2745 089b DC080000 		.4byte	0x8dc
 2746 089f 01       		.byte	0x1
 2747 08a0 50       		.byte	0x50
 2748 08a1 28       		.uleb128 0x28
 2749 08a2 627000   		.ascii	"bp\000"
 2750 08a5 01       		.byte	0x1
 2751 08a6 1301     		.2byte	0x113
 2752 08a8 F8040000 		.4byte	0x4f8
 2753 08ac 01       		.byte	0x1
 2754 08ad 51       		.byte	0x51
 2755 08ae 29       		.uleb128 0x29
 2756 08af 61010000 		.4byte	.LASF77
 2757 08b3 01       		.byte	0x1
 2758 08b4 1301     		.2byte	0x113
 2759 08b6 30000000 		.4byte	0x30
 2760 08ba 01       		.byte	0x1
 2761 08bb 52       		.byte	0x52
 2762 08bc 2A       		.uleb128 0x2a
 2763 08bd 1C000000 		.4byte	.LASF86
 2764 08c1 01       		.byte	0x1
 2765 08c2 1301     		.2byte	0x113
 2766 08c4 D5040000 		.4byte	0x4d5
 2767 08c8 C4030000 		.4byte	.LLST34
 2768 08cc 29       		.uleb128 0x29
 2769 08cd 12010000 		.4byte	.LASF79
 2770 08d1 01       		.byte	0x1
 2771 08d2 1401     		.2byte	0x114
 2772 08d4 98020000 		.4byte	0x298
 2773 08d8 02       		.byte	0x2
 2774 08d9 91       		.byte	0x91
 2775 08da 00       		.sleb128 0
 2776 08db 00       		.byte	0x0
 2777 08dc 09       		.uleb128 0x9
 2778 08dd 04       		.byte	0x4
 2779 08de 09050000 		.4byte	0x509
 2780 08e2 27       		.uleb128 0x27
 2781 08e3 01       		.byte	0x1
 2782 08e4 11030000 		.4byte	.LASF87
 2783 08e8 01       		.byte	0x1
 2784 08e9 2901     		.2byte	0x129
 2785 08eb 01       		.byte	0x1
ARM GAS  /tmp/cc9ujUVj.s 			page 50


 2786 08ec 00000000 		.4byte	.LFB14
 2787 08f0 2E000000 		.4byte	.LFE14
 2788 08f4 E3030000 		.4byte	.LLST35
 2789 08f8 3A090000 		.4byte	0x93a
 2790 08fc 2B       		.uleb128 0x2b
 2791 08fd 6F717000 		.ascii	"oqp\000"
 2792 0901 01       		.byte	0x1
 2793 0902 2901     		.2byte	0x129
 2794 0904 DC080000 		.4byte	0x8dc
 2795 0908 03040000 		.4byte	.LLST36
 2796 090c 2C       		.uleb128 0x2c
 2797 090d 48050000 		.4byte	0x548
 2798 0911 1A000000 		.4byte	.LBB27
 2799 0915 20000000 		.4byte	.LBE27
 2800 0919 01       		.byte	0x1
 2801 091a 3001     		.2byte	0x130
 2802 091c 1C       		.uleb128 0x1c
 2803 091d 59050000 		.4byte	0x559
 2804 0921 21040000 		.4byte	.LLST37
 2805 0925 20       		.uleb128 0x20
 2806 0926 1A000000 		.4byte	.LBB28
 2807 092a 20000000 		.4byte	.LBE28
 2808 092e 21       		.uleb128 0x21
 2809 092f 64050000 		.4byte	0x564
 2810 0933 34040000 		.4byte	.LLST38
 2811 0937 00       		.byte	0x0
 2812 0938 00       		.byte	0x0
 2813 0939 00       		.byte	0x0
 2814 093a 2D       		.uleb128 0x2d
 2815 093b 01       		.byte	0x1
 2816 093c 17010000 		.4byte	.LASF88
 2817 0940 01       		.byte	0x1
 2818 0941 4901     		.2byte	0x149
 2819 0943 01       		.byte	0x1
 2820 0944 E4000000 		.4byte	0xe4
 2821 0948 00000000 		.4byte	.LFB15
 2822 094c 4E000000 		.4byte	.LFE15
 2823 0950 47040000 		.4byte	.LLST39
 2824 0954 F7090000 		.4byte	0x9f7
 2825 0958 2B       		.uleb128 0x2b
 2826 0959 6F717000 		.ascii	"oqp\000"
 2827 095d 01       		.byte	0x1
 2828 095e 4901     		.2byte	0x149
 2829 0960 DC080000 		.4byte	0x8dc
 2830 0964 67040000 		.4byte	.LLST40
 2831 0968 2B       		.uleb128 0x2b
 2832 0969 6200     		.ascii	"b\000"
 2833 096b 01       		.byte	0x1
 2834 096c 4901     		.2byte	0x149
 2835 096e 49000000 		.4byte	0x49
 2836 0972 85040000 		.4byte	.LLST41
 2837 0976 2A       		.uleb128 0x2a
 2838 0977 F3010000 		.4byte	.LASF76
 2839 097b 01       		.byte	0x1
 2840 097c 4901     		.2byte	0x149
 2841 097e FA000000 		.4byte	0xfa
 2842 0982 98040000 		.4byte	.LLST42
ARM GAS  /tmp/cc9ujUVj.s 			page 51


 2843 0986 26       		.uleb128 0x26
 2844 0987 08000000 		.4byte	.LBB29
 2845 098b 0E000000 		.4byte	.LBE29
 2846 098f A4090000 		.4byte	0x9a4
 2847 0993 2E       		.uleb128 0x2e
 2848 0994 746D7000 		.ascii	"tmp\000"
 2849 0998 01       		.byte	0x1
 2850 0999 4B01     		.2byte	0x14b
 2851 099b 7B000000 		.4byte	0x7b
 2852 099f B6040000 		.4byte	.LLST43
 2853 09a3 00       		.byte	0x0
 2854 09a4 26       		.uleb128 0x26
 2855 09a5 12000000 		.4byte	.LBB30
 2856 09a9 26000000 		.4byte	.LBE30
 2857 09ad DC090000 		.4byte	0x9dc
 2858 09b1 2E       		.uleb128 0x2e
 2859 09b2 6D736700 		.ascii	"msg\000"
 2860 09b6 01       		.byte	0x1
 2861 09b7 4D01     		.2byte	0x14d
 2862 09b9 E4000000 		.4byte	0xe4
 2863 09bd D4040000 		.4byte	.LLST44
 2864 09c1 20       		.uleb128 0x20
 2865 09c2 1E000000 		.4byte	.LBB31
 2866 09c6 24000000 		.4byte	.LBE31
 2867 09ca 2E       		.uleb128 0x2e
 2868 09cb 746D7000 		.ascii	"tmp\000"
 2869 09cf 01       		.byte	0x1
 2870 09d0 5001     		.2byte	0x150
 2871 09d2 7B000000 		.4byte	0x7b
 2872 09d6 E7040000 		.4byte	.LLST45
 2873 09da 00       		.byte	0x0
 2874 09db 00       		.byte	0x0
 2875 09dc 20       		.uleb128 0x20
 2876 09dd 44000000 		.4byte	.LBB32
 2877 09e1 4A000000 		.4byte	.LBE32
 2878 09e5 2E       		.uleb128 0x2e
 2879 09e6 746D7000 		.ascii	"tmp\000"
 2880 09ea 01       		.byte	0x1
 2881 09eb 5D01     		.2byte	0x15d
 2882 09ed 7B000000 		.4byte	0x7b
 2883 09f1 FA040000 		.4byte	.LLST46
 2884 09f5 00       		.byte	0x0
 2885 09f6 00       		.byte	0x0
 2886 09f7 2D       		.uleb128 0x2d
 2887 09f8 01       		.byte	0x1
 2888 09f9 DF000000 		.4byte	.LASF89
 2889 09fd 01       		.byte	0x1
 2890 09fe 6B01     		.2byte	0x16b
 2891 0a00 01       		.byte	0x1
 2892 0a01 E4000000 		.4byte	0xe4
 2893 0a05 00000000 		.4byte	.LFB16
 2894 0a09 48000000 		.4byte	.LFE16
 2895 0a0d 0D050000 		.4byte	.LLST47
 2896 0a11 610A0000 		.4byte	0xa61
 2897 0a15 2B       		.uleb128 0x2b
 2898 0a16 6F717000 		.ascii	"oqp\000"
 2899 0a1a 01       		.byte	0x1
ARM GAS  /tmp/cc9ujUVj.s 			page 52


 2900 0a1b 6B01     		.2byte	0x16b
 2901 0a1d DC080000 		.4byte	0x8dc
 2902 0a21 2D050000 		.4byte	.LLST48
 2903 0a25 2E       		.uleb128 0x2e
 2904 0a26 6200     		.ascii	"b\000"
 2905 0a28 01       		.byte	0x1
 2906 0a29 6C01     		.2byte	0x16c
 2907 0a2b 49000000 		.4byte	0x49
 2908 0a2f 61050000 		.4byte	.LLST49
 2909 0a33 2C       		.uleb128 0x2c
 2910 0a34 48050000 		.4byte	0x548
 2911 0a38 2A000000 		.4byte	.LBB33
 2912 0a3c 30000000 		.4byte	.LBE33
 2913 0a40 01       		.byte	0x1
 2914 0a41 7901     		.2byte	0x179
 2915 0a43 1C       		.uleb128 0x1c
 2916 0a44 59050000 		.4byte	0x559
 2917 0a48 74050000 		.4byte	.LLST50
 2918 0a4c 20       		.uleb128 0x20
 2919 0a4d 2A000000 		.4byte	.LBB34
 2920 0a51 30000000 		.4byte	.LBE34
 2921 0a55 21       		.uleb128 0x21
 2922 0a56 64050000 		.4byte	0x564
 2923 0a5a 87050000 		.4byte	.LLST51
 2924 0a5e 00       		.byte	0x0
 2925 0a5f 00       		.byte	0x0
 2926 0a60 00       		.byte	0x0
 2927 0a61 2D       		.uleb128 0x2d
 2928 0a62 01       		.byte	0x1
 2929 0a63 BD010000 		.4byte	.LASF90
 2930 0a67 01       		.byte	0x1
 2931 0a68 9601     		.2byte	0x196
 2932 0a6a 01       		.byte	0x1
 2933 0a6b 30000000 		.4byte	0x30
 2934 0a6f 00000000 		.4byte	.LFB17
 2935 0a73 80000000 		.4byte	.LFE17
 2936 0a77 9B050000 		.4byte	.LLST52
 2937 0a7b 4F0B0000 		.4byte	0xb4f
 2938 0a7f 2B       		.uleb128 0x2b
 2939 0a80 6F717000 		.ascii	"oqp\000"
 2940 0a84 01       		.byte	0x1
 2941 0a85 9601     		.2byte	0x196
 2942 0a87 DC080000 		.4byte	0x8dc
 2943 0a8b BB050000 		.4byte	.LLST53
 2944 0a8f 2B       		.uleb128 0x2b
 2945 0a90 627000   		.ascii	"bp\000"
 2946 0a93 01       		.byte	0x1
 2947 0a94 9601     		.2byte	0x196
 2948 0a96 14050000 		.4byte	0x514
 2949 0a9a D9050000 		.4byte	.LLST54
 2950 0a9e 2B       		.uleb128 0x2b
 2951 0a9f 6E00     		.ascii	"n\000"
 2952 0aa1 01       		.byte	0x1
 2953 0aa2 9701     		.2byte	0x197
 2954 0aa4 30000000 		.4byte	0x30
 2955 0aa8 0F060000 		.4byte	.LLST55
 2956 0aac 2A       		.uleb128 0x2a
ARM GAS  /tmp/cc9ujUVj.s 			page 53


 2957 0aad F3010000 		.4byte	.LASF76
 2958 0ab1 01       		.byte	0x1
 2959 0ab2 9701     		.2byte	0x197
 2960 0ab4 FA000000 		.4byte	0xfa
 2961 0ab8 45060000 		.4byte	.LLST56
 2962 0abc 2E       		.uleb128 0x2e
 2963 0abd 6E667900 		.ascii	"nfy\000"
 2964 0ac1 01       		.byte	0x1
 2965 0ac2 9801     		.2byte	0x198
 2966 0ac4 D5040000 		.4byte	0x4d5
 2967 0ac8 63060000 		.4byte	.LLST57
 2968 0acc 2E       		.uleb128 0x2e
 2969 0acd 7700     		.ascii	"w\000"
 2970 0acf 01       		.byte	0x1
 2971 0ad0 9901     		.2byte	0x199
 2972 0ad2 30000000 		.4byte	0x30
 2973 0ad6 82060000 		.4byte	.LLST58
 2974 0ada 26       		.uleb128 0x26
 2975 0adb 10000000 		.4byte	.LBB35
 2976 0adf 1A000000 		.4byte	.LBE35
 2977 0ae3 F80A0000 		.4byte	0xaf8
 2978 0ae7 2E       		.uleb128 0x2e
 2979 0ae8 746D7000 		.ascii	"tmp\000"
 2980 0aec 01       		.byte	0x1
 2981 0aed 9D01     		.2byte	0x19d
 2982 0aef 7B000000 		.4byte	0x7b
 2983 0af3 AC060000 		.4byte	.LLST59
 2984 0af7 00       		.byte	0x0
 2985 0af8 26       		.uleb128 0x26
 2986 0af9 48000000 		.4byte	.LBB36
 2987 0afd 4E000000 		.4byte	.LBE36
 2988 0b01 160B0000 		.4byte	0xb16
 2989 0b05 2E       		.uleb128 0x2e
 2990 0b06 746D7000 		.ascii	"tmp\000"
 2991 0b0a 01       		.byte	0x1
 2992 0b0b AD01     		.2byte	0x1ad
 2993 0b0d 7B000000 		.4byte	0x7b
 2994 0b11 CA060000 		.4byte	.LLST60
 2995 0b15 00       		.byte	0x0
 2996 0b16 26       		.uleb128 0x26
 2997 0b17 58000000 		.4byte	.LBB37
 2998 0b1b 5E000000 		.4byte	.LBE37
 2999 0b1f 340B0000 		.4byte	0xb34
 3000 0b23 2E       		.uleb128 0x2e
 3001 0b24 746D7000 		.ascii	"tmp\000"
 3002 0b28 01       		.byte	0x1
 3003 0b29 B101     		.2byte	0x1b1
 3004 0b2b 7B000000 		.4byte	0x7b
 3005 0b2f E8060000 		.4byte	.LLST61
 3006 0b33 00       		.byte	0x0
 3007 0b34 20       		.uleb128 0x20
 3008 0b35 74000000 		.4byte	.LBB38
 3009 0b39 7A000000 		.4byte	.LBE38
 3010 0b3d 2E       		.uleb128 0x2e
 3011 0b3e 746D7000 		.ascii	"tmp\000"
 3012 0b42 01       		.byte	0x1
 3013 0b43 A101     		.2byte	0x1a1
ARM GAS  /tmp/cc9ujUVj.s 			page 54


 3014 0b45 7B000000 		.4byte	0x7b
 3015 0b49 06070000 		.4byte	.LLST62
 3016 0b4d 00       		.byte	0x0
 3017 0b4e 00       		.byte	0x0
 3018 0b4f 2F       		.uleb128 0x2f
 3019 0b50 55030000 		.4byte	.LASF91
 3020 0b54 09       		.byte	0x9
 3021 0b55 6F       		.byte	0x6f
 3022 0b56 AD030000 		.4byte	0x3ad
 3023 0b5a 01       		.byte	0x1
 3024 0b5b 01       		.byte	0x1
 3025 0b5c 2F       		.uleb128 0x2f
 3026 0b5d 55030000 		.4byte	.LASF91
 3027 0b61 09       		.byte	0x9
 3028 0b62 6F       		.byte	0x6f
 3029 0b63 AD030000 		.4byte	0x3ad
 3030 0b67 01       		.byte	0x1
 3031 0b68 01       		.byte	0x1
 3032 0b69 00       		.byte	0x0
 3033              		.section	.debug_abbrev
 3034 0000 01       		.uleb128 0x1
 3035 0001 11       		.uleb128 0x11
 3036 0002 01       		.byte	0x1
 3037 0003 25       		.uleb128 0x25
 3038 0004 0E       		.uleb128 0xe
 3039 0005 13       		.uleb128 0x13
 3040 0006 0B       		.uleb128 0xb
 3041 0007 03       		.uleb128 0x3
 3042 0008 0E       		.uleb128 0xe
 3043 0009 1B       		.uleb128 0x1b
 3044 000a 0E       		.uleb128 0xe
 3045 000b 11       		.uleb128 0x11
 3046 000c 01       		.uleb128 0x1
 3047 000d 52       		.uleb128 0x52
 3048 000e 01       		.uleb128 0x1
 3049 000f 55       		.uleb128 0x55
 3050 0010 06       		.uleb128 0x6
 3051 0011 10       		.uleb128 0x10
 3052 0012 06       		.uleb128 0x6
 3053 0013 00       		.byte	0x0
 3054 0014 00       		.byte	0x0
 3055 0015 02       		.uleb128 0x2
 3056 0016 24       		.uleb128 0x24
 3057 0017 00       		.byte	0x0
 3058 0018 0B       		.uleb128 0xb
 3059 0019 0B       		.uleb128 0xb
 3060 001a 3E       		.uleb128 0x3e
 3061 001b 0B       		.uleb128 0xb
 3062 001c 03       		.uleb128 0x3
 3063 001d 08       		.uleb128 0x8
 3064 001e 00       		.byte	0x0
 3065 001f 00       		.byte	0x0
 3066 0020 03       		.uleb128 0x3
 3067 0021 16       		.uleb128 0x16
 3068 0022 00       		.byte	0x0
 3069 0023 03       		.uleb128 0x3
 3070 0024 0E       		.uleb128 0xe
ARM GAS  /tmp/cc9ujUVj.s 			page 55


 3071 0025 3A       		.uleb128 0x3a
 3072 0026 0B       		.uleb128 0xb
 3073 0027 3B       		.uleb128 0x3b
 3074 0028 0B       		.uleb128 0xb
 3075 0029 49       		.uleb128 0x49
 3076 002a 13       		.uleb128 0x13
 3077 002b 00       		.byte	0x0
 3078 002c 00       		.byte	0x0
 3079 002d 04       		.uleb128 0x4
 3080 002e 24       		.uleb128 0x24
 3081 002f 00       		.byte	0x0
 3082 0030 0B       		.uleb128 0xb
 3083 0031 0B       		.uleb128 0xb
 3084 0032 3E       		.uleb128 0x3e
 3085 0033 0B       		.uleb128 0xb
 3086 0034 03       		.uleb128 0x3
 3087 0035 0E       		.uleb128 0xe
 3088 0036 00       		.byte	0x0
 3089 0037 00       		.byte	0x0
 3090 0038 05       		.uleb128 0x5
 3091 0039 13       		.uleb128 0x13
 3092 003a 01       		.byte	0x1
 3093 003b 03       		.uleb128 0x3
 3094 003c 0E       		.uleb128 0xe
 3095 003d 0B       		.uleb128 0xb
 3096 003e 0B       		.uleb128 0xb
 3097 003f 3A       		.uleb128 0x3a
 3098 0040 0B       		.uleb128 0xb
 3099 0041 3B       		.uleb128 0x3b
 3100 0042 0B       		.uleb128 0xb
 3101 0043 01       		.uleb128 0x1
 3102 0044 13       		.uleb128 0x13
 3103 0045 00       		.byte	0x0
 3104 0046 00       		.byte	0x0
 3105 0047 06       		.uleb128 0x6
 3106 0048 0D       		.uleb128 0xd
 3107 0049 00       		.byte	0x0
 3108 004a 03       		.uleb128 0x3
 3109 004b 0E       		.uleb128 0xe
 3110 004c 3A       		.uleb128 0x3a
 3111 004d 0B       		.uleb128 0xb
 3112 004e 3B       		.uleb128 0x3b
 3113 004f 0B       		.uleb128 0xb
 3114 0050 49       		.uleb128 0x49
 3115 0051 13       		.uleb128 0x13
 3116 0052 38       		.uleb128 0x38
 3117 0053 0A       		.uleb128 0xa
 3118 0054 00       		.byte	0x0
 3119 0055 00       		.byte	0x0
 3120 0056 07       		.uleb128 0x7
 3121 0057 0D       		.uleb128 0xd
 3122 0058 00       		.byte	0x0
 3123 0059 03       		.uleb128 0x3
 3124 005a 08       		.uleb128 0x8
 3125 005b 3A       		.uleb128 0x3a
 3126 005c 0B       		.uleb128 0xb
 3127 005d 3B       		.uleb128 0x3b
ARM GAS  /tmp/cc9ujUVj.s 			page 56


 3128 005e 0B       		.uleb128 0xb
 3129 005f 49       		.uleb128 0x49
 3130 0060 13       		.uleb128 0x13
 3131 0061 38       		.uleb128 0x38
 3132 0062 0A       		.uleb128 0xa
 3133 0063 00       		.byte	0x0
 3134 0064 00       		.byte	0x0
 3135 0065 08       		.uleb128 0x8
 3136 0066 13       		.uleb128 0x13
 3137 0067 01       		.byte	0x1
 3138 0068 0B       		.uleb128 0xb
 3139 0069 0B       		.uleb128 0xb
 3140 006a 3A       		.uleb128 0x3a
 3141 006b 0B       		.uleb128 0xb
 3142 006c 3B       		.uleb128 0x3b
 3143 006d 0B       		.uleb128 0xb
 3144 006e 01       		.uleb128 0x1
 3145 006f 13       		.uleb128 0x13
 3146 0070 00       		.byte	0x0
 3147 0071 00       		.byte	0x0
 3148 0072 09       		.uleb128 0x9
 3149 0073 0F       		.uleb128 0xf
 3150 0074 00       		.byte	0x0
 3151 0075 0B       		.uleb128 0xb
 3152 0076 0B       		.uleb128 0xb
 3153 0077 49       		.uleb128 0x49
 3154 0078 13       		.uleb128 0x13
 3155 0079 00       		.byte	0x0
 3156 007a 00       		.byte	0x0
 3157 007b 0A       		.uleb128 0xa
 3158 007c 0F       		.uleb128 0xf
 3159 007d 00       		.byte	0x0
 3160 007e 0B       		.uleb128 0xb
 3161 007f 0B       		.uleb128 0xb
 3162 0080 00       		.byte	0x0
 3163 0081 00       		.byte	0x0
 3164 0082 0B       		.uleb128 0xb
 3165 0083 13       		.uleb128 0x13
 3166 0084 01       		.byte	0x1
 3167 0085 03       		.uleb128 0x3
 3168 0086 0E       		.uleb128 0xe
 3169 0087 0B       		.uleb128 0xb
 3170 0088 0B       		.uleb128 0xb
 3171 0089 3A       		.uleb128 0x3a
 3172 008a 0B       		.uleb128 0xb
 3173 008b 3B       		.uleb128 0x3b
 3174 008c 05       		.uleb128 0x5
 3175 008d 01       		.uleb128 0x1
 3176 008e 13       		.uleb128 0x13
 3177 008f 00       		.byte	0x0
 3178 0090 00       		.byte	0x0
 3179 0091 0C       		.uleb128 0xc
 3180 0092 0D       		.uleb128 0xd
 3181 0093 00       		.byte	0x0
 3182 0094 03       		.uleb128 0x3
 3183 0095 08       		.uleb128 0x8
 3184 0096 3A       		.uleb128 0x3a
ARM GAS  /tmp/cc9ujUVj.s 			page 57


 3185 0097 0B       		.uleb128 0xb
 3186 0098 3B       		.uleb128 0x3b
 3187 0099 05       		.uleb128 0x5
 3188 009a 49       		.uleb128 0x49
 3189 009b 13       		.uleb128 0x13
 3190 009c 38       		.uleb128 0x38
 3191 009d 0A       		.uleb128 0xa
 3192 009e 00       		.byte	0x0
 3193 009f 00       		.byte	0x0
 3194 00a0 0D       		.uleb128 0xd
 3195 00a1 35       		.uleb128 0x35
 3196 00a2 00       		.byte	0x0
 3197 00a3 49       		.uleb128 0x49
 3198 00a4 13       		.uleb128 0x13
 3199 00a5 00       		.byte	0x0
 3200 00a6 00       		.byte	0x0
 3201 00a7 0E       		.uleb128 0xe
 3202 00a8 17       		.uleb128 0x17
 3203 00a9 01       		.byte	0x1
 3204 00aa 0B       		.uleb128 0xb
 3205 00ab 0B       		.uleb128 0xb
 3206 00ac 3A       		.uleb128 0x3a
 3207 00ad 0B       		.uleb128 0xb
 3208 00ae 3B       		.uleb128 0x3b
 3209 00af 0B       		.uleb128 0xb
 3210 00b0 01       		.uleb128 0x1
 3211 00b1 13       		.uleb128 0x13
 3212 00b2 00       		.byte	0x0
 3213 00b3 00       		.byte	0x0
 3214 00b4 0F       		.uleb128 0xf
 3215 00b5 0D       		.uleb128 0xd
 3216 00b6 00       		.byte	0x0
 3217 00b7 03       		.uleb128 0x3
 3218 00b8 0E       		.uleb128 0xe
 3219 00b9 3A       		.uleb128 0x3a
 3220 00ba 0B       		.uleb128 0xb
 3221 00bb 3B       		.uleb128 0x3b
 3222 00bc 0B       		.uleb128 0xb
 3223 00bd 49       		.uleb128 0x49
 3224 00be 13       		.uleb128 0x13
 3225 00bf 00       		.byte	0x0
 3226 00c0 00       		.byte	0x0
 3227 00c1 10       		.uleb128 0x10
 3228 00c2 26       		.uleb128 0x26
 3229 00c3 00       		.byte	0x0
 3230 00c4 49       		.uleb128 0x49
 3231 00c5 13       		.uleb128 0x13
 3232 00c6 00       		.byte	0x0
 3233 00c7 00       		.byte	0x0
 3234 00c8 11       		.uleb128 0x11
 3235 00c9 15       		.uleb128 0x15
 3236 00ca 01       		.byte	0x1
 3237 00cb 27       		.uleb128 0x27
 3238 00cc 0C       		.uleb128 0xc
 3239 00cd 01       		.uleb128 0x1
 3240 00ce 13       		.uleb128 0x13
 3241 00cf 00       		.byte	0x0
ARM GAS  /tmp/cc9ujUVj.s 			page 58


 3242 00d0 00       		.byte	0x0
 3243 00d1 12       		.uleb128 0x12
 3244 00d2 05       		.uleb128 0x5
 3245 00d3 00       		.byte	0x0
 3246 00d4 49       		.uleb128 0x49
 3247 00d5 13       		.uleb128 0x13
 3248 00d6 00       		.byte	0x0
 3249 00d7 00       		.byte	0x0
 3250 00d8 13       		.uleb128 0x13
 3251 00d9 2E       		.uleb128 0x2e
 3252 00da 01       		.byte	0x1
 3253 00db 03       		.uleb128 0x3
 3254 00dc 0E       		.uleb128 0xe
 3255 00dd 3A       		.uleb128 0x3a
 3256 00de 0B       		.uleb128 0xb
 3257 00df 3B       		.uleb128 0x3b
 3258 00e0 0B       		.uleb128 0xb
 3259 00e1 27       		.uleb128 0x27
 3260 00e2 0C       		.uleb128 0xc
 3261 00e3 20       		.uleb128 0x20
 3262 00e4 0B       		.uleb128 0xb
 3263 00e5 01       		.uleb128 0x1
 3264 00e6 13       		.uleb128 0x13
 3265 00e7 00       		.byte	0x0
 3266 00e8 00       		.byte	0x0
 3267 00e9 14       		.uleb128 0x14
 3268 00ea 05       		.uleb128 0x5
 3269 00eb 00       		.byte	0x0
 3270 00ec 03       		.uleb128 0x3
 3271 00ed 08       		.uleb128 0x8
 3272 00ee 3A       		.uleb128 0x3a
 3273 00ef 0B       		.uleb128 0xb
 3274 00f0 3B       		.uleb128 0x3b
 3275 00f1 0B       		.uleb128 0xb
 3276 00f2 49       		.uleb128 0x49
 3277 00f3 13       		.uleb128 0x13
 3278 00f4 00       		.byte	0x0
 3279 00f5 00       		.byte	0x0
 3280 00f6 15       		.uleb128 0x15
 3281 00f7 2E       		.uleb128 0x2e
 3282 00f8 01       		.byte	0x1
 3283 00f9 03       		.uleb128 0x3
 3284 00fa 0E       		.uleb128 0xe
 3285 00fb 3A       		.uleb128 0x3a
 3286 00fc 0B       		.uleb128 0xb
 3287 00fd 3B       		.uleb128 0x3b
 3288 00fe 0B       		.uleb128 0xb
 3289 00ff 27       		.uleb128 0x27
 3290 0100 0C       		.uleb128 0xc
 3291 0101 49       		.uleb128 0x49
 3292 0102 13       		.uleb128 0x13
 3293 0103 20       		.uleb128 0x20
 3294 0104 0B       		.uleb128 0xb
 3295 0105 01       		.uleb128 0x1
 3296 0106 13       		.uleb128 0x13
 3297 0107 00       		.byte	0x0
 3298 0108 00       		.byte	0x0
ARM GAS  /tmp/cc9ujUVj.s 			page 59


 3299 0109 16       		.uleb128 0x16
 3300 010a 34       		.uleb128 0x34
 3301 010b 00       		.byte	0x0
 3302 010c 03       		.uleb128 0x3
 3303 010d 08       		.uleb128 0x8
 3304 010e 3A       		.uleb128 0x3a
 3305 010f 0B       		.uleb128 0xb
 3306 0110 3B       		.uleb128 0x3b
 3307 0111 0B       		.uleb128 0xb
 3308 0112 49       		.uleb128 0x49
 3309 0113 13       		.uleb128 0x13
 3310 0114 00       		.byte	0x0
 3311 0115 00       		.byte	0x0
 3312 0116 17       		.uleb128 0x17
 3313 0117 2E       		.uleb128 0x2e
 3314 0118 01       		.byte	0x1
 3315 0119 03       		.uleb128 0x3
 3316 011a 0E       		.uleb128 0xe
 3317 011b 3A       		.uleb128 0x3a
 3318 011c 0B       		.uleb128 0xb
 3319 011d 3B       		.uleb128 0x3b
 3320 011e 0B       		.uleb128 0xb
 3321 011f 27       		.uleb128 0x27
 3322 0120 0C       		.uleb128 0xc
 3323 0121 49       		.uleb128 0x49
 3324 0122 13       		.uleb128 0x13
 3325 0123 11       		.uleb128 0x11
 3326 0124 01       		.uleb128 0x1
 3327 0125 12       		.uleb128 0x12
 3328 0126 01       		.uleb128 0x1
 3329 0127 40       		.uleb128 0x40
 3330 0128 06       		.uleb128 0x6
 3331 0129 01       		.uleb128 0x1
 3332 012a 13       		.uleb128 0x13
 3333 012b 00       		.byte	0x0
 3334 012c 00       		.byte	0x0
 3335 012d 18       		.uleb128 0x18
 3336 012e 05       		.uleb128 0x5
 3337 012f 00       		.byte	0x0
 3338 0130 03       		.uleb128 0x3
 3339 0131 08       		.uleb128 0x8
 3340 0132 3A       		.uleb128 0x3a
 3341 0133 0B       		.uleb128 0xb
 3342 0134 3B       		.uleb128 0x3b
 3343 0135 0B       		.uleb128 0xb
 3344 0136 49       		.uleb128 0x49
 3345 0137 13       		.uleb128 0x13
 3346 0138 02       		.uleb128 0x2
 3347 0139 06       		.uleb128 0x6
 3348 013a 00       		.byte	0x0
 3349 013b 00       		.byte	0x0
 3350 013c 19       		.uleb128 0x19
 3351 013d 05       		.uleb128 0x5
 3352 013e 00       		.byte	0x0
 3353 013f 03       		.uleb128 0x3
 3354 0140 0E       		.uleb128 0xe
 3355 0141 3A       		.uleb128 0x3a
ARM GAS  /tmp/cc9ujUVj.s 			page 60


 3356 0142 0B       		.uleb128 0xb
 3357 0143 3B       		.uleb128 0x3b
 3358 0144 0B       		.uleb128 0xb
 3359 0145 49       		.uleb128 0x49
 3360 0146 13       		.uleb128 0x13
 3361 0147 02       		.uleb128 0x2
 3362 0148 0A       		.uleb128 0xa
 3363 0149 00       		.byte	0x0
 3364 014a 00       		.byte	0x0
 3365 014b 1A       		.uleb128 0x1a
 3366 014c 1D       		.uleb128 0x1d
 3367 014d 01       		.byte	0x1
 3368 014e 31       		.uleb128 0x31
 3369 014f 13       		.uleb128 0x13
 3370 0150 11       		.uleb128 0x11
 3371 0151 01       		.uleb128 0x1
 3372 0152 12       		.uleb128 0x12
 3373 0153 01       		.uleb128 0x1
 3374 0154 58       		.uleb128 0x58
 3375 0155 0B       		.uleb128 0xb
 3376 0156 59       		.uleb128 0x59
 3377 0157 0B       		.uleb128 0xb
 3378 0158 00       		.byte	0x0
 3379 0159 00       		.byte	0x0
 3380 015a 1B       		.uleb128 0x1b
 3381 015b 05       		.uleb128 0x5
 3382 015c 00       		.byte	0x0
 3383 015d 31       		.uleb128 0x31
 3384 015e 13       		.uleb128 0x13
 3385 015f 02       		.uleb128 0x2
 3386 0160 0A       		.uleb128 0xa
 3387 0161 00       		.byte	0x0
 3388 0162 00       		.byte	0x0
 3389 0163 1C       		.uleb128 0x1c
 3390 0164 05       		.uleb128 0x5
 3391 0165 00       		.byte	0x0
 3392 0166 31       		.uleb128 0x31
 3393 0167 13       		.uleb128 0x13
 3394 0168 02       		.uleb128 0x2
 3395 0169 06       		.uleb128 0x6
 3396 016a 00       		.byte	0x0
 3397 016b 00       		.byte	0x0
 3398 016c 1D       		.uleb128 0x1d
 3399 016d 2E       		.uleb128 0x2e
 3400 016e 01       		.byte	0x1
 3401 016f 3F       		.uleb128 0x3f
 3402 0170 0C       		.uleb128 0xc
 3403 0171 03       		.uleb128 0x3
 3404 0172 0E       		.uleb128 0xe
 3405 0173 3A       		.uleb128 0x3a
 3406 0174 0B       		.uleb128 0xb
 3407 0175 3B       		.uleb128 0x3b
 3408 0176 0B       		.uleb128 0xb
 3409 0177 27       		.uleb128 0x27
 3410 0178 0C       		.uleb128 0xc
 3411 0179 11       		.uleb128 0x11
 3412 017a 01       		.uleb128 0x1
ARM GAS  /tmp/cc9ujUVj.s 			page 61


 3413 017b 12       		.uleb128 0x12
 3414 017c 01       		.uleb128 0x1
 3415 017d 40       		.uleb128 0x40
 3416 017e 06       		.uleb128 0x6
 3417 017f 01       		.uleb128 0x1
 3418 0180 13       		.uleb128 0x13
 3419 0181 00       		.byte	0x0
 3420 0182 00       		.byte	0x0
 3421 0183 1E       		.uleb128 0x1e
 3422 0184 05       		.uleb128 0x5
 3423 0185 00       		.byte	0x0
 3424 0186 03       		.uleb128 0x3
 3425 0187 08       		.uleb128 0x8
 3426 0188 3A       		.uleb128 0x3a
 3427 0189 0B       		.uleb128 0xb
 3428 018a 3B       		.uleb128 0x3b
 3429 018b 0B       		.uleb128 0xb
 3430 018c 49       		.uleb128 0x49
 3431 018d 13       		.uleb128 0x13
 3432 018e 02       		.uleb128 0x2
 3433 018f 0A       		.uleb128 0xa
 3434 0190 00       		.byte	0x0
 3435 0191 00       		.byte	0x0
 3436 0192 1F       		.uleb128 0x1f
 3437 0193 05       		.uleb128 0x5
 3438 0194 00       		.byte	0x0
 3439 0195 03       		.uleb128 0x3
 3440 0196 0E       		.uleb128 0xe
 3441 0197 3A       		.uleb128 0x3a
 3442 0198 0B       		.uleb128 0xb
 3443 0199 3B       		.uleb128 0x3b
 3444 019a 0B       		.uleb128 0xb
 3445 019b 49       		.uleb128 0x49
 3446 019c 13       		.uleb128 0x13
 3447 019d 02       		.uleb128 0x2
 3448 019e 06       		.uleb128 0x6
 3449 019f 00       		.byte	0x0
 3450 01a0 00       		.byte	0x0
 3451 01a1 20       		.uleb128 0x20
 3452 01a2 0B       		.uleb128 0xb
 3453 01a3 01       		.byte	0x1
 3454 01a4 11       		.uleb128 0x11
 3455 01a5 01       		.uleb128 0x1
 3456 01a6 12       		.uleb128 0x12
 3457 01a7 01       		.uleb128 0x1
 3458 01a8 00       		.byte	0x0
 3459 01a9 00       		.byte	0x0
 3460 01aa 21       		.uleb128 0x21
 3461 01ab 34       		.uleb128 0x34
 3462 01ac 00       		.byte	0x0
 3463 01ad 31       		.uleb128 0x31
 3464 01ae 13       		.uleb128 0x13
 3465 01af 02       		.uleb128 0x2
 3466 01b0 06       		.uleb128 0x6
 3467 01b1 00       		.byte	0x0
 3468 01b2 00       		.byte	0x0
 3469 01b3 22       		.uleb128 0x22
ARM GAS  /tmp/cc9ujUVj.s 			page 62


 3470 01b4 2E       		.uleb128 0x2e
 3471 01b5 01       		.byte	0x1
 3472 01b6 3F       		.uleb128 0x3f
 3473 01b7 0C       		.uleb128 0xc
 3474 01b8 03       		.uleb128 0x3
 3475 01b9 0E       		.uleb128 0xe
 3476 01ba 3A       		.uleb128 0x3a
 3477 01bb 0B       		.uleb128 0xb
 3478 01bc 3B       		.uleb128 0x3b
 3479 01bd 0B       		.uleb128 0xb
 3480 01be 27       		.uleb128 0x27
 3481 01bf 0C       		.uleb128 0xc
 3482 01c0 49       		.uleb128 0x49
 3483 01c1 13       		.uleb128 0x13
 3484 01c2 11       		.uleb128 0x11
 3485 01c3 01       		.uleb128 0x1
 3486 01c4 12       		.uleb128 0x12
 3487 01c5 01       		.uleb128 0x1
 3488 01c6 40       		.uleb128 0x40
 3489 01c7 06       		.uleb128 0x6
 3490 01c8 01       		.uleb128 0x1
 3491 01c9 13       		.uleb128 0x13
 3492 01ca 00       		.byte	0x0
 3493 01cb 00       		.byte	0x0
 3494 01cc 23       		.uleb128 0x23
 3495 01cd 34       		.uleb128 0x34
 3496 01ce 00       		.byte	0x0
 3497 01cf 03       		.uleb128 0x3
 3498 01d0 08       		.uleb128 0x8
 3499 01d1 3A       		.uleb128 0x3a
 3500 01d2 0B       		.uleb128 0xb
 3501 01d3 3B       		.uleb128 0x3b
 3502 01d4 0B       		.uleb128 0xb
 3503 01d5 49       		.uleb128 0x49
 3504 01d6 13       		.uleb128 0x13
 3505 01d7 02       		.uleb128 0x2
 3506 01d8 0A       		.uleb128 0xa
 3507 01d9 00       		.byte	0x0
 3508 01da 00       		.byte	0x0
 3509 01db 24       		.uleb128 0x24
 3510 01dc 0B       		.uleb128 0xb
 3511 01dd 01       		.byte	0x1
 3512 01de 55       		.uleb128 0x55
 3513 01df 06       		.uleb128 0x6
 3514 01e0 01       		.uleb128 0x1
 3515 01e1 13       		.uleb128 0x13
 3516 01e2 00       		.byte	0x0
 3517 01e3 00       		.byte	0x0
 3518 01e4 25       		.uleb128 0x25
 3519 01e5 34       		.uleb128 0x34
 3520 01e6 00       		.byte	0x0
 3521 01e7 03       		.uleb128 0x3
 3522 01e8 08       		.uleb128 0x8
 3523 01e9 3A       		.uleb128 0x3a
 3524 01ea 0B       		.uleb128 0xb
 3525 01eb 3B       		.uleb128 0x3b
 3526 01ec 0B       		.uleb128 0xb
ARM GAS  /tmp/cc9ujUVj.s 			page 63


 3527 01ed 49       		.uleb128 0x49
 3528 01ee 13       		.uleb128 0x13
 3529 01ef 02       		.uleb128 0x2
 3530 01f0 06       		.uleb128 0x6
 3531 01f1 00       		.byte	0x0
 3532 01f2 00       		.byte	0x0
 3533 01f3 26       		.uleb128 0x26
 3534 01f4 0B       		.uleb128 0xb
 3535 01f5 01       		.byte	0x1
 3536 01f6 11       		.uleb128 0x11
 3537 01f7 01       		.uleb128 0x1
 3538 01f8 12       		.uleb128 0x12
 3539 01f9 01       		.uleb128 0x1
 3540 01fa 01       		.uleb128 0x1
 3541 01fb 13       		.uleb128 0x13
 3542 01fc 00       		.byte	0x0
 3543 01fd 00       		.byte	0x0
 3544 01fe 27       		.uleb128 0x27
 3545 01ff 2E       		.uleb128 0x2e
 3546 0200 01       		.byte	0x1
 3547 0201 3F       		.uleb128 0x3f
 3548 0202 0C       		.uleb128 0xc
 3549 0203 03       		.uleb128 0x3
 3550 0204 0E       		.uleb128 0xe
 3551 0205 3A       		.uleb128 0x3a
 3552 0206 0B       		.uleb128 0xb
 3553 0207 3B       		.uleb128 0x3b
 3554 0208 05       		.uleb128 0x5
 3555 0209 27       		.uleb128 0x27
 3556 020a 0C       		.uleb128 0xc
 3557 020b 11       		.uleb128 0x11
 3558 020c 01       		.uleb128 0x1
 3559 020d 12       		.uleb128 0x12
 3560 020e 01       		.uleb128 0x1
 3561 020f 40       		.uleb128 0x40
 3562 0210 06       		.uleb128 0x6
 3563 0211 01       		.uleb128 0x1
 3564 0212 13       		.uleb128 0x13
 3565 0213 00       		.byte	0x0
 3566 0214 00       		.byte	0x0
 3567 0215 28       		.uleb128 0x28
 3568 0216 05       		.uleb128 0x5
 3569 0217 00       		.byte	0x0
 3570 0218 03       		.uleb128 0x3
 3571 0219 08       		.uleb128 0x8
 3572 021a 3A       		.uleb128 0x3a
 3573 021b 0B       		.uleb128 0xb
 3574 021c 3B       		.uleb128 0x3b
 3575 021d 05       		.uleb128 0x5
 3576 021e 49       		.uleb128 0x49
 3577 021f 13       		.uleb128 0x13
 3578 0220 02       		.uleb128 0x2
 3579 0221 0A       		.uleb128 0xa
 3580 0222 00       		.byte	0x0
 3581 0223 00       		.byte	0x0
 3582 0224 29       		.uleb128 0x29
 3583 0225 05       		.uleb128 0x5
ARM GAS  /tmp/cc9ujUVj.s 			page 64


 3584 0226 00       		.byte	0x0
 3585 0227 03       		.uleb128 0x3
 3586 0228 0E       		.uleb128 0xe
 3587 0229 3A       		.uleb128 0x3a
 3588 022a 0B       		.uleb128 0xb
 3589 022b 3B       		.uleb128 0x3b
 3590 022c 05       		.uleb128 0x5
 3591 022d 49       		.uleb128 0x49
 3592 022e 13       		.uleb128 0x13
 3593 022f 02       		.uleb128 0x2
 3594 0230 0A       		.uleb128 0xa
 3595 0231 00       		.byte	0x0
 3596 0232 00       		.byte	0x0
 3597 0233 2A       		.uleb128 0x2a
 3598 0234 05       		.uleb128 0x5
 3599 0235 00       		.byte	0x0
 3600 0236 03       		.uleb128 0x3
 3601 0237 0E       		.uleb128 0xe
 3602 0238 3A       		.uleb128 0x3a
 3603 0239 0B       		.uleb128 0xb
 3604 023a 3B       		.uleb128 0x3b
 3605 023b 05       		.uleb128 0x5
 3606 023c 49       		.uleb128 0x49
 3607 023d 13       		.uleb128 0x13
 3608 023e 02       		.uleb128 0x2
 3609 023f 06       		.uleb128 0x6
 3610 0240 00       		.byte	0x0
 3611 0241 00       		.byte	0x0
 3612 0242 2B       		.uleb128 0x2b
 3613 0243 05       		.uleb128 0x5
 3614 0244 00       		.byte	0x0
 3615 0245 03       		.uleb128 0x3
 3616 0246 08       		.uleb128 0x8
 3617 0247 3A       		.uleb128 0x3a
 3618 0248 0B       		.uleb128 0xb
 3619 0249 3B       		.uleb128 0x3b
 3620 024a 05       		.uleb128 0x5
 3621 024b 49       		.uleb128 0x49
 3622 024c 13       		.uleb128 0x13
 3623 024d 02       		.uleb128 0x2
 3624 024e 06       		.uleb128 0x6
 3625 024f 00       		.byte	0x0
 3626 0250 00       		.byte	0x0
 3627 0251 2C       		.uleb128 0x2c
 3628 0252 1D       		.uleb128 0x1d
 3629 0253 01       		.byte	0x1
 3630 0254 31       		.uleb128 0x31
 3631 0255 13       		.uleb128 0x13
 3632 0256 11       		.uleb128 0x11
 3633 0257 01       		.uleb128 0x1
 3634 0258 12       		.uleb128 0x12
 3635 0259 01       		.uleb128 0x1
 3636 025a 58       		.uleb128 0x58
 3637 025b 0B       		.uleb128 0xb
 3638 025c 59       		.uleb128 0x59
 3639 025d 05       		.uleb128 0x5
 3640 025e 00       		.byte	0x0
ARM GAS  /tmp/cc9ujUVj.s 			page 65


 3641 025f 00       		.byte	0x0
 3642 0260 2D       		.uleb128 0x2d
 3643 0261 2E       		.uleb128 0x2e
 3644 0262 01       		.byte	0x1
 3645 0263 3F       		.uleb128 0x3f
 3646 0264 0C       		.uleb128 0xc
 3647 0265 03       		.uleb128 0x3
 3648 0266 0E       		.uleb128 0xe
 3649 0267 3A       		.uleb128 0x3a
 3650 0268 0B       		.uleb128 0xb
 3651 0269 3B       		.uleb128 0x3b
 3652 026a 05       		.uleb128 0x5
 3653 026b 27       		.uleb128 0x27
 3654 026c 0C       		.uleb128 0xc
 3655 026d 49       		.uleb128 0x49
 3656 026e 13       		.uleb128 0x13
 3657 026f 11       		.uleb128 0x11
 3658 0270 01       		.uleb128 0x1
 3659 0271 12       		.uleb128 0x12
 3660 0272 01       		.uleb128 0x1
 3661 0273 40       		.uleb128 0x40
 3662 0274 06       		.uleb128 0x6
 3663 0275 01       		.uleb128 0x1
 3664 0276 13       		.uleb128 0x13
 3665 0277 00       		.byte	0x0
 3666 0278 00       		.byte	0x0
 3667 0279 2E       		.uleb128 0x2e
 3668 027a 34       		.uleb128 0x34
 3669 027b 00       		.byte	0x0
 3670 027c 03       		.uleb128 0x3
 3671 027d 08       		.uleb128 0x8
 3672 027e 3A       		.uleb128 0x3a
 3673 027f 0B       		.uleb128 0xb
 3674 0280 3B       		.uleb128 0x3b
 3675 0281 05       		.uleb128 0x5
 3676 0282 49       		.uleb128 0x49
 3677 0283 13       		.uleb128 0x13
 3678 0284 02       		.uleb128 0x2
 3679 0285 06       		.uleb128 0x6
 3680 0286 00       		.byte	0x0
 3681 0287 00       		.byte	0x0
 3682 0288 2F       		.uleb128 0x2f
 3683 0289 34       		.uleb128 0x34
 3684 028a 00       		.byte	0x0
 3685 028b 03       		.uleb128 0x3
 3686 028c 0E       		.uleb128 0xe
 3687 028d 3A       		.uleb128 0x3a
 3688 028e 0B       		.uleb128 0xb
 3689 028f 3B       		.uleb128 0x3b
 3690 0290 0B       		.uleb128 0xb
 3691 0291 49       		.uleb128 0x49
 3692 0292 13       		.uleb128 0x13
 3693 0293 3F       		.uleb128 0x3f
 3694 0294 0C       		.uleb128 0xc
 3695 0295 3C       		.uleb128 0x3c
 3696 0296 0C       		.uleb128 0xc
 3697 0297 00       		.byte	0x0
ARM GAS  /tmp/cc9ujUVj.s 			page 66


 3698 0298 00       		.byte	0x0
 3699 0299 00       		.byte	0x0
 3700              		.section	.debug_pubnames,"",%progbits
 3701 0000 AF000000 		.4byte	0xaf
 3702 0004 0200     		.2byte	0x2
 3703 0006 00000000 		.4byte	.Ldebug_info0
 3704 000a 6A0B0000 		.4byte	0xb6a
 3705 000e C7050000 		.4byte	0x5c7
 3706 0012 63684951 		.ascii	"chIQInit\000"
 3706      496E6974 
 3706      00
 3707 001b 2C060000 		.4byte	0x62c
 3708 001f 63684951 		.ascii	"chIQResetI\000"
 3708      52657365 
 3708      744900
 3709 002a 81060000 		.4byte	0x681
 3710 002e 63684951 		.ascii	"chIQPutI\000"
 3710      50757449 
 3710      00
 3711 0037 E7060000 		.4byte	0x6e7
 3712 003b 63684951 		.ascii	"chIQGetTimeout\000"
 3712      47657454 
 3712      696D656F 
 3712      757400
 3713 004a 96070000 		.4byte	0x796
 3714 004e 63684951 		.ascii	"chIQReadTimeout\000"
 3714      52656164 
 3714      54696D65 
 3714      6F757400 
 3715 005e 79080000 		.4byte	0x879
 3716 0062 63684F51 		.ascii	"chOQInit\000"
 3716      496E6974 
 3716      00
 3717 006b E2080000 		.4byte	0x8e2
 3718 006f 63684F51 		.ascii	"chOQResetI\000"
 3718      52657365 
 3718      744900
 3719 007a 3A090000 		.4byte	0x93a
 3720 007e 63684F51 		.ascii	"chOQPutTimeout\000"
 3720      50757454 
 3720      696D656F 
 3720      757400
 3721 008d F7090000 		.4byte	0x9f7
 3722 0091 63684F51 		.ascii	"chOQGetI\000"
 3722      47657449 
 3722      00
 3723 009a 610A0000 		.4byte	0xa61
 3724 009e 63684F51 		.ascii	"chOQWriteTimeout\000"
 3724      57726974 
 3724      6554696D 
 3724      656F7574 
 3724      00
 3725 00af 00000000 		.4byte	0x0
 3726              		.section	.debug_pubtypes,"",%progbits
 3727 0000 7C010000 		.4byte	0x17c
 3728 0004 0200     		.2byte	0x2
 3729 0006 00000000 		.4byte	.Ldebug_info0
ARM GAS  /tmp/cc9ujUVj.s 			page 67


 3730 000a 6A0B0000 		.4byte	0xb6a
 3731 000e 30000000 		.4byte	0x30
 3732 0012 73697A65 		.ascii	"size_t\000"
 3732      5F7400
 3733 0019 49000000 		.4byte	0x49
 3734 001d 75696E74 		.ascii	"uint8_t\000"
 3734      385F7400 
 3735 0025 69000000 		.4byte	0x69
 3736 0029 696E7433 		.ascii	"int32_t\000"
 3736      325F7400 
 3737 0031 7B000000 		.4byte	0x7b
 3738 0035 75696E74 		.ascii	"uint32_t\000"
 3738      33325F74 
 3738      00
 3739 003e 9B000000 		.4byte	0x9b
 3740 0042 626F6F6C 		.ascii	"bool_t\000"
 3740      5F7400
 3741 0049 AD000000 		.4byte	0xad
 3742 004d 746D6F64 		.ascii	"tmode_t\000"
 3742      655F7400 
 3743 0055 B8000000 		.4byte	0xb8
 3744 0059 74737461 		.ascii	"tstate_t\000"
 3744      74655F74 
 3744      00
 3745 0062 C3000000 		.4byte	0xc3
 3746 0066 74726566 		.ascii	"trefs_t\000"
 3746      735F7400 
 3747 006e CE000000 		.4byte	0xce
 3748 0072 74736C69 		.ascii	"tslices_t\000"
 3748      6365735F 
 3748      7400
 3749 007c D9000000 		.4byte	0xd9
 3750 0080 74707269 		.ascii	"tprio_t\000"
 3750      6F5F7400 
 3751 0088 E4000000 		.4byte	0xe4
 3752 008c 6D73675F 		.ascii	"msg_t\000"
 3752      7400
 3753 0092 EF000000 		.4byte	0xef
 3754 0096 6576656E 		.ascii	"eventmask_t\000"
 3754      746D6173 
 3754      6B5F7400 
 3755 00a2 FA000000 		.4byte	0xfa
 3756 00a6 73797374 		.ascii	"systime_t\000"
 3756      696D655F 
 3756      7400
 3757 00b0 05010000 		.4byte	0x105
 3758 00b4 54687265 		.ascii	"Thread\000"
 3758      616400
 3759 00bb 60020000 		.4byte	0x260
 3760 00bf 54687265 		.ascii	"ThreadsQueue\000"
 3760      61647351 
 3760      75657565 
 3760      00
 3761 00cc 82020000 		.4byte	0x282
 3762 00d0 54687265 		.ascii	"ThreadsList\000"
 3762      6164734C 
 3762      69737400 
ARM GAS  /tmp/cc9ujUVj.s 			page 68


 3763 00dc 8D020000 		.4byte	0x28d
 3764 00e0 72656761 		.ascii	"regarm_t\000"
 3764      726D5F74 
 3764      00
 3765 00e9 9A020000 		.4byte	0x29a
 3766 00ed 696E7463 		.ascii	"intctx\000"
 3766      747800
 3767 00f4 28030000 		.4byte	0x328
 3768 00f8 636F6E74 		.ascii	"context\000"
 3768      65787400 
 3769 0100 AD030000 		.4byte	0x3ad
 3770 0104 52656164 		.ascii	"ReadyList\000"
 3770      794C6973 
 3770      7400
 3771 010e B8030000 		.4byte	0x3b8
 3772 0112 4D757465 		.ascii	"Mutex\000"
 3772      7800
 3773 0118 F5030000 		.4byte	0x3f5
 3774 011c 4D757465 		.ascii	"Mutex\000"
 3774      7800
 3775 0122 10010000 		.4byte	0x110
 3776 0126 54687265 		.ascii	"Thread\000"
 3776      616400
 3777 012d 4D040000 		.4byte	0x44d
 3778 0131 47656E65 		.ascii	"GenericQueue\000"
 3778      72696351 
 3778      75657565 
 3778      00
 3779 013e D5040000 		.4byte	0x4d5
 3780 0142 716E6F74 		.ascii	"qnotify_t\000"
 3780      6966795F 
 3780      7400
 3781 014c 58040000 		.4byte	0x458
 3782 0150 47656E65 		.ascii	"GenericQueue\000"
 3782      72696351 
 3782      75657565 
 3782      00
 3783 015d FE040000 		.4byte	0x4fe
 3784 0161 496E7075 		.ascii	"InputQueue\000"
 3784      74517565 
 3784      756500
 3785 016c 09050000 		.4byte	0x509
 3786 0170 4F757470 		.ascii	"OutputQueue\000"
 3786      75745175 
 3786      65756500 
 3787 017c 00000000 		.4byte	0x0
 3788              		.section	.debug_aranges,"",%progbits
 3789 0000 6C000000 		.4byte	0x6c
 3790 0004 0200     		.2byte	0x2
 3791 0006 00000000 		.4byte	.Ldebug_info0
 3792 000a 04       		.byte	0x4
 3793 000b 00       		.byte	0x0
 3794 000c 0000     		.2byte	0x0
 3795 000e 0000     		.2byte	0x0
 3796 0010 00000000 		.4byte	.LFB7
 3797 0014 2C000000 		.4byte	.LFE7-.LFB7
 3798 0018 00000000 		.4byte	.LFB8
ARM GAS  /tmp/cc9ujUVj.s 			page 69


 3799 001c 1E000000 		.4byte	.LFE8-.LFB8
 3800 0020 00000000 		.4byte	.LFB9
 3801 0024 2C000000 		.4byte	.LFE9-.LFB9
 3802 0028 00000000 		.4byte	.LFB10
 3803 002c 4C000000 		.4byte	.LFE10-.LFB10
 3804 0030 00000000 		.4byte	.LFB11
 3805 0034 48000000 		.4byte	.LFE11-.LFB11
 3806 0038 00000000 		.4byte	.LFB12
 3807 003c 72000000 		.4byte	.LFE12-.LFB12
 3808 0040 00000000 		.4byte	.LFB13
 3809 0044 1C000000 		.4byte	.LFE13-.LFB13
 3810 0048 00000000 		.4byte	.LFB14
 3811 004c 2E000000 		.4byte	.LFE14-.LFB14
 3812 0050 00000000 		.4byte	.LFB15
 3813 0054 4E000000 		.4byte	.LFE15-.LFB15
 3814 0058 00000000 		.4byte	.LFB16
 3815 005c 48000000 		.4byte	.LFE16-.LFB16
 3816 0060 00000000 		.4byte	.LFB17
 3817 0064 80000000 		.4byte	.LFE17-.LFB17
 3818 0068 00000000 		.4byte	0x0
 3819 006c 00000000 		.4byte	0x0
 3820              		.section	.debug_ranges,"",%progbits
 3821              	.Ldebug_ranges0:
 3822 0000 02000000 		.4byte	.LBB18
 3823 0004 04000000 		.4byte	.LBE18
 3824 0008 08000000 		.4byte	.LBB19
 3825 000c 0C000000 		.4byte	.LBE19
 3826 0010 00000000 		.4byte	0x0
 3827 0014 00000000 		.4byte	0x0
 3828 0018 00000000 		.4byte	.LFB7
 3829 001c 2C000000 		.4byte	.LFE7
 3830 0020 00000000 		.4byte	.LFB8
 3831 0024 1E000000 		.4byte	.LFE8
 3832 0028 00000000 		.4byte	.LFB9
 3833 002c 2C000000 		.4byte	.LFE9
 3834 0030 00000000 		.4byte	.LFB10
 3835 0034 4C000000 		.4byte	.LFE10
 3836 0038 00000000 		.4byte	.LFB11
 3837 003c 48000000 		.4byte	.LFE11
 3838 0040 00000000 		.4byte	.LFB12
 3839 0044 72000000 		.4byte	.LFE12
 3840 0048 00000000 		.4byte	.LFB13
 3841 004c 1C000000 		.4byte	.LFE13
 3842 0050 00000000 		.4byte	.LFB14
 3843 0054 2E000000 		.4byte	.LFE14
 3844 0058 00000000 		.4byte	.LFB15
 3845 005c 4E000000 		.4byte	.LFE15
 3846 0060 00000000 		.4byte	.LFB16
 3847 0064 48000000 		.4byte	.LFE16
 3848 0068 00000000 		.4byte	.LFB17
 3849 006c 80000000 		.4byte	.LFE17
 3850 0070 00000000 		.4byte	0x0
 3851 0074 00000000 		.4byte	0x0
 3852              		.section	.debug_str,"MS",%progbits,1
 3853              	.LASF85:
 3854 0000 63684F51 		.ascii	"chOQInit\000"
 3854      496E6974 
ARM GAS  /tmp/cc9ujUVj.s 			page 70


 3854      00
 3855              	.LASF38:
 3856 0009 705F6D73 		.ascii	"p_msg\000"
 3856      6700
 3857              	.LASF95:
 3858 000f 71756575 		.ascii	"queue_insert\000"
 3858      655F696E 
 3858      73657274 
 3858      00
 3859              	.LASF86:
 3860 001c 6F6E6679 		.ascii	"onfy\000"
 3860      00
 3861              	.LASF2:
 3862 0021 73697A65 		.ascii	"size_t\000"
 3862      5F7400
 3863              	.LASF59:
 3864 0028 7264796D 		.ascii	"rdymsg\000"
 3864      736700
 3865              	.LASF80:
 3866 002f 63684951 		.ascii	"chIQInit\000"
 3866      496E6974 
 3866      00
 3867              	.LASF75:
 3868 0038 4F757470 		.ascii	"OutputQueue\000"
 3868      75745175 
 3868      65756500 
 3869              	.LASF84:
 3870 0044 63684951 		.ascii	"chIQReadTimeout\000"
 3870      52656164 
 3870      54696D65 
 3870      6F757400 
 3871              	.LASF12:
 3872 0054 6C6F6E67 		.ascii	"long long unsigned int\000"
 3872      206C6F6E 
 3872      6720756E 
 3872      7369676E 
 3872      65642069 
 3873              	.LASF60:
 3874 006b 65786974 		.ascii	"exitcode\000"
 3874      636F6465 
 3874      00
 3875              	.LASF26:
 3876 0074 705F7072 		.ascii	"p_prio\000"
 3876      696F00
 3877              	.LASF65:
 3878 007b 715F7761 		.ascii	"q_waiting\000"
 3878      6974696E 
 3878      6700
 3879              	.LASF11:
 3880 0085 6C6F6E67 		.ascii	"long long int\000"
 3880      206C6F6E 
 3880      6720696E 
 3880      7400
 3881              	.LASF1:
 3882 0093 7369676E 		.ascii	"signed char\000"
 3882      65642063 
 3882      68617200 
ARM GAS  /tmp/cc9ujUVj.s 			page 71


 3883              	.LASF42:
 3884 009f 705F6D70 		.ascii	"p_mpool\000"
 3884      6F6F6C00 
 3885              	.LASF13:
 3886 00a7 626F6F6C 		.ascii	"bool_t\000"
 3886      5F7400
 3887              	.LASF56:
 3888 00ae 6D5F7175 		.ascii	"m_queue\000"
 3888      65756500 
 3889              	.LASF61:
 3890 00b6 77746F62 		.ascii	"wtobjp\000"
 3890      6A7000
 3891              	.LASF18:
 3892 00bd 74736C69 		.ascii	"tslices_t\000"
 3892      6365735F 
 3892      7400
 3893              	.LASF97:
 3894 00c7 71776169 		.ascii	"qwait\000"
 3894      7400
 3895              	.LASF8:
 3896 00cd 6C6F6E67 		.ascii	"long int\000"
 3896      20696E74 
 3896      00
 3897              	.LASF16:
 3898 00d6 74737461 		.ascii	"tstate_t\000"
 3898      74655F74 
 3898      00
 3899              	.LASF89:
 3900 00df 63684F51 		.ascii	"chOQGetI\000"
 3900      47657449 
 3900      00
 3901              	.LASF67:
 3902 00e8 715F6275 		.ascii	"q_buffer\000"
 3902      66666572 
 3902      00
 3903              	.LASF69:
 3904 00f1 715F7772 		.ascii	"q_wrptr\000"
 3904      70747200 
 3905              	.LASF28:
 3906 00f9 705F6E65 		.ascii	"p_newer\000"
 3906      77657200 
 3907              	.LASF51:
 3908 0101 725F6E65 		.ascii	"r_newer\000"
 3908      77657200 
 3909              	.LASF45:
 3910 0109 72656761 		.ascii	"regarm_t\000"
 3910      726D5F74 
 3910      00
 3911              	.LASF79:
 3912 0112 6C696E6B 		.ascii	"link\000"
 3912      00
 3913              	.LASF88:
 3914 0117 63684F51 		.ascii	"chOQPutTimeout\000"
 3914      50757454 
 3914      696D656F 
 3914      757400
 3915              	.LASF82:
ARM GAS  /tmp/cc9ujUVj.s 			page 72


 3916 0126 63684951 		.ascii	"chIQPutI\000"
 3916      50757449 
 3916      00
 3917              	.LASF0:
 3918 012f 756E7369 		.ascii	"unsigned int\000"
 3918      676E6564 
 3918      20696E74 
 3918      00
 3919              	.LASF81:
 3920 013c 63684951 		.ascii	"chIQResetI\000"
 3920      52657365 
 3920      744900
 3921              	.LASF10:
 3922 0147 6C6F6E67 		.ascii	"long unsigned int\000"
 3922      20756E73 
 3922      69676E65 
 3922      6420696E 
 3922      7400
 3923              	.LASF47:
 3924 0159 636F6E74 		.ascii	"context\000"
 3924      65787400 
 3925              	.LASF77:
 3926 0161 73697A65 		.ascii	"size\000"
 3926      00
 3927              	.LASF6:
 3928 0166 73686F72 		.ascii	"short unsigned int\000"
 3928      7420756E 
 3928      7369676E 
 3928      65642069 
 3928      6E7400
 3929              	.LASF20:
 3930 0179 6D73675F 		.ascii	"msg_t\000"
 3930      7400
 3931              	.LASF15:
 3932 017f 746D6F64 		.ascii	"tmode_t\000"
 3932      655F7400 
 3933              	.LASF44:
 3934 0187 54687265 		.ascii	"ThreadsList\000"
 3934      6164734C 
 3934      69737400 
 3935              	.LASF21:
 3936 0193 6576656E 		.ascii	"eventmask_t\000"
 3936      746D6173 
 3936      6B5F7400 
 3937              	.LASF74:
 3938 019f 496E7075 		.ascii	"InputQueue\000"
 3938      74517565 
 3938      756500
 3939              	.LASF55:
 3940 01aa 4D757465 		.ascii	"Mutex\000"
 3940      7800
 3941              	.LASF64:
 3942 01b0 47656E65 		.ascii	"GenericQueue\000"
 3942      72696351 
 3942      75657565 
 3942      00
 3943              	.LASF90:
ARM GAS  /tmp/cc9ujUVj.s 			page 73


 3944 01bd 63684F51 		.ascii	"chOQWriteTimeout\000"
 3944      57726974 
 3944      6554696D 
 3944      656F7574 
 3944      00
 3945              	.LASF66:
 3946 01ce 715F636F 		.ascii	"q_counter\000"
 3946      756E7465 
 3946      7200
 3947              	.LASF29:
 3948 01d8 705F6F6C 		.ascii	"p_older\000"
 3948      64657200 
 3949              	.LASF50:
 3950 01e0 725F6374 		.ascii	"r_ctx\000"
 3950      7800
 3951              	.LASF43:
 3952 01e6 54687265 		.ascii	"ThreadsQueue\000"
 3952      61647351 
 3952      75657565 
 3952      00
 3953              	.LASF76:
 3954 01f3 74696D65 		.ascii	"time\000"
 3954      00
 3955              	.LASF53:
 3956 01f8 725F6375 		.ascii	"r_current\000"
 3956      7272656E 
 3956      7400
 3957              	.LASF52:
 3958 0202 725F6F6C 		.ascii	"r_older\000"
 3958      64657200 
 3959              	.LASF17:
 3960 020a 74726566 		.ascii	"trefs_t\000"
 3960      735F7400 
 3961              	.LASF73:
 3962 0212 716E6F74 		.ascii	"qnotify_t\000"
 3962      6966795F 
 3962      7400
 3963              	.LASF25:
 3964 021c 705F7072 		.ascii	"p_prev\000"
 3964      657600
 3965              	.LASF19:
 3966 0223 74707269 		.ascii	"tprio_t\000"
 3966      6F5F7400 
 3967              	.LASF70:
 3968 022b 715F7264 		.ascii	"q_rdptr\000"
 3968      70747200 
 3969              	.LASF14:
 3970 0233 5F426F6F 		.ascii	"_Bool\000"
 3970      6C00
 3971              	.LASF7:
 3972 0239 696E7433 		.ascii	"int32_t\000"
 3972      325F7400 
 3973              	.LASF4:
 3974 0241 756E7369 		.ascii	"unsigned char\000"
 3974      676E6564 
 3974      20636861 
 3974      7200
ARM GAS  /tmp/cc9ujUVj.s 			page 74


 3975              	.LASF40:
 3976 024f 705F6D74 		.ascii	"p_mtxlist\000"
 3976      786C6973 
 3976      7400
 3977              	.LASF5:
 3978 0259 73686F72 		.ascii	"short int\000"
 3978      7420696E 
 3978      7400
 3979              	.LASF31:
 3980 0263 705F7374 		.ascii	"p_state\000"
 3980      61746500 
 3981              	.LASF34:
 3982 026b 705F7072 		.ascii	"p_preempt\000"
 3982      65656D70 
 3982      7400
 3983              	.LASF49:
 3984 0275 725F7072 		.ascii	"r_prio\000"
 3984      696F00
 3985              	.LASF93:
 3986 027c 2E2E2F43 		.ascii	"../ChibiOS_2.6.2/os/kernel/src/chqueues.c\000"
 3986      68696269 
 3986      4F535F32 
 3986      2E362E32 
 3986      2F6F732F 
 3987              	.LASF62:
 3988 02a6 65776D61 		.ascii	"ewmask\000"
 3988      736B00
 3989              	.LASF24:
 3990 02ad 705F6E65 		.ascii	"p_next\000"
 3990      787400
 3991              	.LASF78:
 3992 02b4 696E6679 		.ascii	"infy\000"
 3992      00
 3993              	.LASF32:
 3994 02b9 705F666C 		.ascii	"p_flags\000"
 3994      61677300 
 3995              	.LASF23:
 3996 02c1 54687265 		.ascii	"Thread\000"
 3996      616400
 3997              	.LASF39:
 3998 02c8 705F6570 		.ascii	"p_epending\000"
 3998      656E6469 
 3998      6E6700
 3999              	.LASF9:
 4000 02d3 75696E74 		.ascii	"uint32_t\000"
 4000      33325F74 
 4000      00
 4001              	.LASF48:
 4002 02dc 725F7175 		.ascii	"r_queue\000"
 4002      65756500 
 4003              	.LASF63:
 4004 02e4 63686172 		.ascii	"char\000"
 4004      00
 4005              	.LASF96:
 4006 02e9 6669666F 		.ascii	"fifo_remove\000"
 4006      5F72656D 
 4006      6F766500 
ARM GAS  /tmp/cc9ujUVj.s 			page 75


 4007              	.LASF58:
 4008 02f5 6D5F6E65 		.ascii	"m_next\000"
 4008      787400
 4009              	.LASF22:
 4010 02fc 73797374 		.ascii	"systime_t\000"
 4010      696D655F 
 4010      7400
 4011              	.LASF41:
 4012 0306 705F7265 		.ascii	"p_realprio\000"
 4012      616C7072 
 4012      696F00
 4013              	.LASF87:
 4014 0311 63684F51 		.ascii	"chOQResetI\000"
 4014      52657365 
 4014      744900
 4015              	.LASF35:
 4016 031c 705F7469 		.ascii	"p_time\000"
 4016      6D6500
 4017              	.LASF46:
 4018 0323 696E7463 		.ascii	"intctx\000"
 4018      747800
 4019              	.LASF37:
 4020 032a 705F6D73 		.ascii	"p_msgqueue\000"
 4020      67717565 
 4020      756500
 4021              	.LASF68:
 4022 0335 715F746F 		.ascii	"q_top\000"
 4022      7000
 4023              	.LASF33:
 4024 033b 705F7265 		.ascii	"p_refs\000"
 4024      667300
 4025              	.LASF54:
 4026 0342 52656164 		.ascii	"ReadyList\000"
 4026      794C6973 
 4026      7400
 4027              	.LASF71:
 4028 034c 715F6E6F 		.ascii	"q_notify\000"
 4028      74696679 
 4028      00
 4029              	.LASF91:
 4030 0355 726C6973 		.ascii	"rlist\000"
 4030      7400
 4031              	.LASF3:
 4032 035b 75696E74 		.ascii	"uint8_t\000"
 4032      385F7400 
 4033              	.LASF92:
 4034 0363 474E5520 		.ascii	"GNU C 4.5.1\000"
 4034      4320342E 
 4034      352E3100 
 4035              	.LASF30:
 4036 036f 705F6E61 		.ascii	"p_name\000"
 4036      6D6500
 4037              	.LASF94:
 4038 0376 2F686F6D 		.ascii	"/home/nis/stm32f407d_neko\000"
 4038      652F6E69 
 4038      732F7374 
 4038      6D333266 
ARM GAS  /tmp/cc9ujUVj.s 			page 76


 4038      34303764 
 4039              	.LASF72:
 4040 0390 715F6C69 		.ascii	"q_link\000"
 4040      6E6B00
 4041              	.LASF57:
 4042 0397 6D5F6F77 		.ascii	"m_owner\000"
 4042      6E657200 
 4043              	.LASF27:
 4044 039f 705F6374 		.ascii	"p_ctx\000"
 4044      7800
 4045              	.LASF36:
 4046 03a5 705F7761 		.ascii	"p_waiting\000"
 4046      6974696E 
 4046      6700
 4047              	.LASF83:
 4048 03af 63684951 		.ascii	"chIQGetTimeout\000"
 4048      47657454 
 4048      696D656F 
 4048      757400
 4049              		.ident	"GCC: (Sourcery G++ Lite 2010.09-51) 4.5.1"
ARM GAS  /tmp/cc9ujUVj.s 			page 77


DEFINED SYMBOLS
                            *ABS*:00000000 chqueues.c
     /tmp/cc9ujUVj.s:24     .text.qwait:00000000 $t
     /tmp/cc9ujUVj.s:29     .text.qwait:00000000 qwait
     /tmp/cc9ujUVj.s:84     .text.chIQInit:00000000 $t
     /tmp/cc9ujUVj.s:90     .text.chIQInit:00000000 chIQInit
     /tmp/cc9ujUVj.s:133    .text.chIQResetI:00000000 $t
     /tmp/cc9ujUVj.s:139    .text.chIQResetI:00000000 chIQResetI
     /tmp/cc9ujUVj.s:199    .text.chIQPutI:00000000 $t
     /tmp/cc9ujUVj.s:205    .text.chIQPutI:00000000 chIQPutI
     /tmp/cc9ujUVj.s:287    .text.chIQGetTimeout:00000000 $t
     /tmp/cc9ujUVj.s:293    .text.chIQGetTimeout:00000000 chIQGetTimeout
     /tmp/cc9ujUVj.s:391    .text.chIQReadTimeout:00000000 $t
     /tmp/cc9ujUVj.s:397    .text.chIQReadTimeout:00000000 chIQReadTimeout
     /tmp/cc9ujUVj.s:522    .text.chOQInit:00000000 $t
     /tmp/cc9ujUVj.s:528    .text.chOQInit:00000000 chOQInit
     /tmp/cc9ujUVj.s:568    .text.chOQResetI:00000000 $t
     /tmp/cc9ujUVj.s:574    .text.chOQResetI:00000000 chOQResetI
     /tmp/cc9ujUVj.s:636    .text.chOQPutTimeout:00000000 $t
     /tmp/cc9ujUVj.s:642    .text.chOQPutTimeout:00000000 chOQPutTimeout
     /tmp/cc9ujUVj.s:742    .text.chOQGetI:00000000 $t
     /tmp/cc9ujUVj.s:748    .text.chOQGetI:00000000 chOQGetI
     /tmp/cc9ujUVj.s:828    .text.chOQWriteTimeout:00000000 $t
     /tmp/cc9ujUVj.s:834    .text.chOQWriteTimeout:00000000 chOQWriteTimeout
                     .debug_frame:00000010 $d

UNDEFINED SYMBOLS
rlist
chSchGoSleepTimeoutS
chSchReadyI
