ARM GAS  /tmp/ccoffX8z.s 			page 1


   1              		.syntax unified
   2              		.cpu cortex-m4
   3              		.fpu softvfp
   4              		.eabi_attribute 20, 1
   5              		.eabi_attribute 21, 1
   6              		.eabi_attribute 23, 3
   7              		.eabi_attribute 24, 1
   8              		.eabi_attribute 25, 1
   9              		.eabi_attribute 26, 1
  10              		.eabi_attribute 30, 2
  11              		.eabi_attribute 18, 4
  12              		.thumb
  13              		.file	"chschd.c"
  20 0000 6D030000 		.text
  20      02007101 
  20      00000201 
  20      FB0E0D00 
  20      01010101 
  21              	.Ltext0:
  22              		.cfi_sections	.debug_frame
  23              		.section	.text.wakeup,"ax",%progbits
  24              		.align	2
  25              		.p2align 4,,15
  26              		.thumb
  27              		.thumb_func
  28              		.type	wakeup, %function
  29              	wakeup:
  30              	.LFB10:
  31              		.file 1 "../ChibiOS_2.6.2/os/kernel/src/chschd.c"
  32              		.loc 1 136 0
  33              		.cfi_startproc
  34              		@ args = 0, pretend = 0, frame = 0
  35              		@ frame_needed = 0, uses_anonymous_args = 0
  36              		@ link register save eliminated.
  37              	.LVL0:
  38              	.LBB22:
  39              		.loc 1 139 0
  40 0000 2023     		movs	r3, #32
  41              	.LVL1:
  42              	@ 139 "../ChibiOS_2.6.2/os/kernel/src/chschd.c" 1
  43 0002 83F31188 		msr     BASEPRI, r3
  44              	@ 0 "" 2
  45              	.LVL2:
  46              		.thumb
  47              	.LBE22:
  48              		.loc 1 140 0
  49 0006 037F     		ldrb	r3, [r0, #28]	@ zero_extendqisi2
  50              	.LVL3:
  51 0008 0D2B     		cmp	r3, #13
  52 000a 11D8     		bhi	.L2
  53 000c DFE803F0 		tbb	[pc, r3]
ARM GAS  /tmp/ccoffX8z.s 			page 2


  54              	.L6:
  55 0010 27       		.byte	(.L3-.L6)/2
  56 0011 10       		.byte	(.L2-.L6)/2
  57 0012 10       		.byte	(.L2-.L6)/2
  58 0013 07       		.byte	(.L4-.L6)/2
  59 0014 10       		.byte	(.L2-.L6)/2
  60 0015 0B       		.byte	(.L5-.L6)/2
  61 0016 10       		.byte	(.L2-.L6)/2
  62 0017 10       		.byte	(.L2-.L6)/2
  63 0018 10       		.byte	(.L2-.L6)/2
  64 0019 10       		.byte	(.L2-.L6)/2
  65 001a 10       		.byte	(.L2-.L6)/2
  66 001b 10       		.byte	(.L2-.L6)/2
  67 001c 10       		.byte	(.L2-.L6)/2
  68 001d 0B       		.byte	(.L5-.L6)/2
  69              		.align	1
  70              	.LVL4:
  71              	.L4:
  72              		.loc 1 150 0
  73 001e 416A     		ldr	r1, [r0, #36]
  74 0020 8B68     		ldr	r3, [r1, #8]
  75 0022 5A1C     		adds	r2, r3, #1
  76 0024 8A60     		str	r2, [r1, #8]
  77              	.L5:
  78              	.LVL5:
  79              	.LBB23:
  80              	.LBB24:
  81              		.file 2 "../ChibiOS_2.6.2/os/kernel/include/chinline.h"
  82              		.loc 2 75 0
  83 0026 4168     		ldr	r1, [r0, #4]
  84 0028 0368     		ldr	r3, [r0, #0]
  85 002a 0B60     		str	r3, [r1, #0]
  86              		.loc 2 76 0
  87 002c 0268     		ldr	r2, [r0, #0]
  88 002e 5160     		str	r1, [r2, #4]
  89              	.LVL6:
  90              	.L2:
  91              	.LBE24:
  92              	.LBE23:
  93              		.loc 1 163 0
  94 0030 4FF0FF32 		mov	r2, #-1
  95              	.LBB25:
  96              	.LBB26:
  97              		.loc 1 93 0
  98 0034 40F20003 		movw	r3, #:lower16:.LANCHOR0
  99              	.LBE26:
 100              	.LBE25:
 101              		.loc 1 163 0
 102 0038 4262     		str	r2, [r0, #36]
 103              	.LVL7:
 104              	.LBB28:
 105              	.LBB27:
 106              		.loc 1 93 0
 107 003a 8168     		ldr	r1, [r0, #8]
 108              		.loc 1 92 0
 109 003c 0022     		movs	r2, #0
 110 003e 0277     		strb	r2, [r0, #28]
ARM GAS  /tmp/ccoffX8z.s 			page 3


 111              		.loc 1 93 0
 112 0040 C0F20003 		movt	r3, #:upper16:.LANCHOR0
 113              	.LVL8:
 114              	.L8:
 115              		.loc 1 95 0
 116 0044 1B68     		ldr	r3, [r3, #0]
 117              	.LVL9:
 118              		.loc 1 96 0
 119 0046 9A68     		ldr	r2, [r3, #8]
 120 0048 9142     		cmp	r1, r2
 121 004a FBD9     		bls	.L8
 122              		.loc 1 99 0
 123 004c 5968     		ldr	r1, [r3, #4]
 124              		.loc 1 98 0
 125 004e 0360     		str	r3, [r0, #0]
 126              		.loc 1 99 0
 127 0050 4160     		str	r1, [r0, #4]
 128              		.loc 1 100 0
 129 0052 0860     		str	r0, [r1, #0]
 130 0054 5860     		str	r0, [r3, #4]
 131              	.LBE27:
 132              	.LBE28:
 133              	.LBB29:
 134              		.loc 1 165 0
 135 0056 0023     		movs	r3, #0
 136              	.LVL10:
 137              	@ 165 "../ChibiOS_2.6.2/os/kernel/src/chschd.c" 1
 138 0058 83F31188 		msr     BASEPRI, r3
 139              	@ 0 "" 2
 140              	.LVL11:
 141              		.thumb
 142 005c 7047     		bx	lr
 143              	.LVL12:
 144              	.L3:
 145              	.LBE29:
 146              	.LBB30:
 147              		.loc 1 144 0
 148 005e 0023     		movs	r3, #0
 149              	.LVL13:
 150              	@ 144 "../ChibiOS_2.6.2/os/kernel/src/chschd.c" 1
 151 0060 83F31188 		msr     BASEPRI, r3
 152              	@ 0 "" 2
 153              	.LVL14:
 154              		.thumb
 155              	.LBE30:
 156              		.loc 1 145 0
 157 0064 7047     		bx	lr
 158              		.cfi_endproc
 159              	.LFE10:
 160              		.size	wakeup, .-wakeup
 161 0066 00BFAFF3 		.section	.text._scheduler_init,"ax",%progbits
 161      0080AFF3 
 161      0080
 162              		.align	2
 163              		.p2align 4,,15
 164              		.global	_scheduler_init
 165              		.thumb
ARM GAS  /tmp/ccoffX8z.s 			page 4


 166              		.thumb_func
 167              		.type	_scheduler_init, %function
 168              	_scheduler_init:
 169              	.LFB7:
 170              		.loc 1 55 0
 171              		.cfi_startproc
 172              		@ args = 0, pretend = 0, frame = 0
 173              		@ frame_needed = 0, uses_anonymous_args = 0
 174              		@ link register save eliminated.
 175              		.loc 1 57 0
 176 0000 40F20003 		movw	r3, #:lower16:.LANCHOR0
 177 0004 C0F20003 		movt	r3, #:upper16:.LANCHOR0
 178              		.loc 1 58 0
 179 0008 0022     		movs	r2, #0
 180              		.loc 1 57 0
 181 000a 5B60     		str	r3, [r3, #4]
 182 000c 1B60     		str	r3, [r3, #0]
 183              		.loc 1 58 0
 184 000e 9A60     		str	r2, [r3, #8]
 185              		.loc 1 60 0
 186 0010 5B61     		str	r3, [r3, #20]
 187 0012 1B61     		str	r3, [r3, #16]
 188              		.loc 1 62 0
 189 0014 7047     		bx	lr
 190              		.cfi_endproc
 191              	.LFE7:
 192              		.size	_scheduler_init, .-_scheduler_init
 193 0016 00BFAFF3 		.section	.text.chSchReadyI,"ax",%progbits
 193      0080AFF3 
 193      0080
 194              		.align	2
 195              		.p2align 4,,15
 196              		.global	chSchReadyI
 197              		.thumb
 198              		.thumb_func
 199              		.type	chSchReadyI, %function
 200              	chSchReadyI:
 201              	.LFB8:
 202              		.loc 1 81 0
 203              		.cfi_startproc
 204              		@ args = 0, pretend = 0, frame = 0
 205              		@ frame_needed = 0, uses_anonymous_args = 0
 206              		@ link register save eliminated.
 207              	.LVL15:
 208              		.loc 1 93 0
 209 0000 40F20003 		movw	r3, #:lower16:.LANCHOR0
 210              		.loc 1 92 0
 211 0004 0022     		movs	r2, #0
 212              		.loc 1 93 0
 213 0006 8168     		ldr	r1, [r0, #8]
 214              		.loc 1 92 0
 215 0008 0277     		strb	r2, [r0, #28]
 216              		.loc 1 93 0
 217 000a C0F20003 		movt	r3, #:upper16:.LANCHOR0
 218              	.LVL16:
 219              	.L13:
 220              		.loc 1 95 0 discriminator 1
ARM GAS  /tmp/ccoffX8z.s 			page 5


 221 000e 1B68     		ldr	r3, [r3, #0]
 222              	.LVL17:
 223              		.loc 1 96 0 discriminator 1
 224 0010 9A68     		ldr	r2, [r3, #8]
 225 0012 8A42     		cmp	r2, r1
 226 0014 FBD2     		bcs	.L13
 227              		.loc 1 99 0
 228 0016 5968     		ldr	r1, [r3, #4]
 229              		.loc 1 98 0
 230 0018 0360     		str	r3, [r0, #0]
 231              		.loc 1 99 0
 232 001a 4160     		str	r1, [r0, #4]
 233              		.loc 1 100 0
 234 001c 0860     		str	r0, [r1, #0]
 235 001e 5860     		str	r0, [r3, #4]
 236              		.loc 1 102 0
 237 0020 7047     		bx	lr
 238              		.cfi_endproc
 239              	.LFE8:
 240              		.size	chSchReadyI, .-chSchReadyI
 241 0022 00BFAFF3 		.section	.text.chSchGoSleepS,"ax",%progbits
 241      0080AFF3 
 241      0080AFF3 
 241      0080
 242              		.align	2
 243              		.p2align 4,,15
 244              		.global	chSchGoSleepS
 245              		.thumb
 246              		.thumb_func
 247              		.type	chSchGoSleepS, %function
 248              	chSchGoSleepS:
 249              	.LFB9:
 250              		.loc 1 115 0
 251              		.cfi_startproc
 252              		@ args = 0, pretend = 0, frame = 0
 253              		@ frame_needed = 0, uses_anonymous_args = 0
 254              		@ link register save eliminated.
 255              	.LVL18:
 256              		.loc 1 120 0
 257 0000 40F20003 		movw	r3, #:lower16:.LANCHOR0
 258 0004 C0F20003 		movt	r3, #:upper16:.LANCHOR0
 259              		.loc 1 115 0
 260 0008 10B4     		push	{r4}
 261              	.LCFI0:
 262              		.cfi_def_cfa_offset 4
 263              		.loc 1 120 0
 264 000a 9969     		ldr	r1, [r3, #24]
 265              	.LVL19:
 266              		.loc 1 124 0
 267 000c 1424     		movs	r4, #20
 268              		.cfi_offset 4, -4
 269              		.loc 1 120 0
 270 000e 0877     		strb	r0, [r1, #28]
 271              		.loc 1 124 0
 272 0010 CC77     		strb	r4, [r1, #31]
 273              	.LVL20:
 274              	.LBB31:
ARM GAS  /tmp/ccoffX8z.s 			page 6


 275              	.LBB33:
 276              		.loc 2 60 0
 277 0012 1A68     		ldr	r2, [r3, #0]
 278              	.LVL21:
 279              	.LBE33:
 280              	.LBE31:
 281              		.loc 1 127 0
 282 0014 0120     		movs	r0, #1
 283              	.LVL22:
 284              	.LBB35:
 285              	.LBB32:
 286              		.loc 2 62 0
 287 0016 1468     		ldr	r4, [r2, #0]
 288              	.LBE32:
 289              	.LBE35:
 290              		.loc 1 127 0
 291 0018 1077     		strb	r0, [r2, #28]
 292              		.loc 1 128 0
 293 001a 1046     		mov	r0, r2
 294              	.LBB36:
 295              	.LBB34:
 296              		.loc 2 62 0
 297 001c 6360     		str	r3, [r4, #4]
 298 001e 1C60     		str	r4, [r3, #0]
 299              	.LBE34:
 300              	.LBE36:
 301              		.loc 1 126 0
 302 0020 9A61     		str	r2, [r3, #24]
 303              		.loc 1 129 0
 304 0022 10BC     		pop	{r4}
 305              		.loc 1 128 0
 306 0024 FFF7FEBF 		b	_port_switch
 307              		.cfi_endproc
 308              	.LFE9:
 309              		.size	chSchGoSleepS, .-chSchGoSleepS
 310 0028 AFF30080 		.section	.text.chSchGoSleepTimeoutS,"ax",%progbits
 310      AFF30080 
 311              		.align	2
 312              		.p2align 4,,15
 313              		.global	chSchGoSleepTimeoutS
 314              		.thumb
 315              		.thumb_func
 316              		.type	chSchGoSleepTimeoutS, %function
 317              	chSchGoSleepTimeoutS:
 318              	.LFB11:
 319              		.loc 1 189 0
 320              		.cfi_startproc
 321              		@ args = 0, pretend = 0, frame = 24
 322              		@ frame_needed = 0, uses_anonymous_args = 0
 323              	.LVL23:
 324 0000 30B5     		push	{r4, r5, lr}
 325              	.LCFI1:
 326              		.cfi_def_cfa_offset 12
 327              		.loc 1 193 0
 328 0002 B1F1FF3F 		cmp	r1, #-1
 329              		.loc 1 189 0
 330 0006 87B0     		sub	sp, sp, #28
ARM GAS  /tmp/ccoffX8z.s 			page 7


 331              	.LCFI2:
 332              		.cfi_def_cfa_offset 40
 333              		.loc 1 189 0
 334 0008 0546     		mov	r5, r0
 335              		.cfi_offset 14, -4
 336              		.cfi_offset 5, -8
 337              		.cfi_offset 4, -12
 338              		.loc 1 193 0
 339 000a 17D0     		beq	.L17
 340              	.LBB37:
 341              		.loc 1 196 0
 342 000c 40F20004 		movw	r4, #:lower16:.LANCHOR0
 343 0010 C0F20004 		movt	r4, #:upper16:.LANCHOR0
 344 0014 40F20002 		movw	r2, #:lower16:wakeup
 345 0018 A369     		ldr	r3, [r4, #24]
 346 001a C0F20002 		movt	r2, #:upper16:wakeup
 347 001e 01A8     		add	r0, sp, #4
 348              	.LVL24:
 349 0020 FFF7FEFF 		bl	chVTSetI
 350              	.LVL25:
 351              		.loc 1 197 0
 352 0024 2846     		mov	r0, r5
 353 0026 FFF7FEFF 		bl	chSchGoSleepS
 354              		.loc 1 198 0
 355 002a 049B     		ldr	r3, [sp, #16]
 356 002c 13B1     		cbz	r3, .L18
 357              		.loc 1 199 0
 358 002e 01A8     		add	r0, sp, #4
 359 0030 FFF7FEFF 		bl	chVTResetI
 360              	.L18:
 361              	.LBE37:
 362              		.loc 1 203 0
 363 0034 A069     		ldr	r0, [r4, #24]
 364              		.loc 1 204 0
 365 0036 406A     		ldr	r0, [r0, #36]
 366 0038 07B0     		add	sp, sp, #28
 367 003a 30BD     		pop	{r4, r5, pc}
 368              	.LVL26:
 369              	.L17:
 370 003c 40F20004 		movw	r4, #:lower16:.LANCHOR0
 371              		.loc 1 202 0
 372 0040 FFF7FEFF 		bl	chSchGoSleepS
 373              	.LVL27:
 374 0044 C0F20004 		movt	r4, #:upper16:.LANCHOR0
 375 0048 F4E7     		b	.L18
 376              		.cfi_endproc
 377              	.LFE11:
 378              		.size	chSchGoSleepTimeoutS, .-chSchGoSleepTimeoutS
 379 004a 00BFAFF3 		.section	.text.chSchWakeupS,"ax",%progbits
 379      0080
 380              		.align	2
 381              		.p2align 4,,15
 382              		.global	chSchWakeupS
 383              		.thumb
 384              		.thumb_func
 385              		.type	chSchWakeupS, %function
 386              	chSchWakeupS:
ARM GAS  /tmp/ccoffX8z.s 			page 8


 387              	.LFB12:
 388              		.loc 1 225 0
 389              		.cfi_startproc
 390              		@ args = 0, pretend = 0, frame = 0
 391              		@ frame_needed = 0, uses_anonymous_args = 0
 392              		@ link register save eliminated.
 393              	.LVL28:
 394              		.loc 1 234 0
 395 0000 40F20002 		movw	r2, #:lower16:.LANCHOR0
 396 0004 C0F20002 		movt	r2, #:upper16:.LANCHOR0
 397              		.loc 1 225 0
 398 0008 30B4     		push	{r4, r5}
 399              	.LCFI3:
 400              		.cfi_def_cfa_offset 8
 401              		.loc 1 234 0
 402 000a 9469     		ldr	r4, [r2, #24]
 403              		.cfi_offset 5, -4
 404              		.cfi_offset 4, -8
 405 000c 8568     		ldr	r5, [r0, #8]
 406              		.loc 1 225 0
 407 000e 0346     		mov	r3, r0
 408              		.loc 1 234 0
 409 0010 A068     		ldr	r0, [r4, #8]
 410              	.LVL29:
 411              		.loc 1 229 0
 412 0012 5962     		str	r1, [r3, #36]
 413              		.loc 1 234 0
 414 0014 8542     		cmp	r5, r0
 415 0016 0CD8     		bhi	.L20
 416              	.LVL30:
 417              	.LBB38:
 418              	.LBB39:
 419              		.loc 1 92 0
 420 0018 0021     		movs	r1, #0
 421              	.LVL31:
 422 001a 1977     		strb	r1, [r3, #28]
 423              	.LVL32:
 424              	.L21:
 425              		.loc 1 95 0
 426 001c 1268     		ldr	r2, [r2, #0]
 427              	.LVL33:
 428              		.loc 1 96 0
 429 001e 9068     		ldr	r0, [r2, #8]
 430 0020 8542     		cmp	r5, r0
 431 0022 FBD9     		bls	.L21
 432              		.loc 1 99 0
 433 0024 5168     		ldr	r1, [r2, #4]
 434              		.loc 1 98 0
 435 0026 1A60     		str	r2, [r3, #0]
 436              		.loc 1 99 0
 437 0028 5960     		str	r1, [r3, #4]
 438              		.loc 1 100 0
 439 002a 0B60     		str	r3, [r1, #0]
 440 002c 5360     		str	r3, [r2, #4]
 441              	.LBE39:
 442              	.LBE38:
 443              		.loc 1 242 0
ARM GAS  /tmp/ccoffX8z.s 			page 9


 444 002e 30BC     		pop	{r4, r5}
 445 0030 7047     		bx	lr
 446              	.LVL34:
 447              	.L20:
 448              	.LBB40:
 449              	.LBB42:
 450              	.LBB43:
 451              		.loc 1 92 0
 452 0032 0025     		movs	r5, #0
 453 0034 2577     		strb	r5, [r4, #28]
 454              		.loc 1 93 0
 455 0036 1146     		mov	r1, r2
 456              	.LVL35:
 457              	.L23:
 458              		.loc 1 95 0
 459 0038 0968     		ldr	r1, [r1, #0]
 460              	.LVL36:
 461              		.loc 1 96 0
 462 003a 8D68     		ldr	r5, [r1, #8]
 463 003c A842     		cmp	r0, r5
 464 003e FBD9     		bls	.L23
 465              		.loc 1 99 0
 466 0040 4868     		ldr	r0, [r1, #4]
 467              		.loc 1 98 0
 468 0042 2160     		str	r1, [r4, #0]
 469              		.loc 1 99 0
 470 0044 6060     		str	r0, [r4, #4]
 471              		.loc 1 100 0
 472 0046 0460     		str	r4, [r0, #0]
 473              	.LBE43:
 474              	.LBE42:
 475              		.loc 1 239 0
 476 0048 0120     		movs	r0, #1
 477              	.LBB41:
 478              	.LBB44:
 479              		.loc 1 100 0
 480 004a 4C60     		str	r4, [r1, #4]
 481              	.LBE44:
 482              	.LBE41:
 483              		.loc 1 239 0
 484 004c 1877     		strb	r0, [r3, #28]
 485              		.loc 1 240 0
 486 004e 2146     		mov	r1, r4
 487              	.LVL37:
 488 0050 1846     		mov	r0, r3
 489              		.loc 1 238 0
 490 0052 9361     		str	r3, [r2, #24]
 491              	.LBE40:
 492              		.loc 1 242 0
 493 0054 30BC     		pop	{r4, r5}
 494              	.LBB45:
 495              		.loc 1 240 0
 496 0056 FFF7FEBF 		b	_port_switch
 497              	.LBE45:
 498              		.cfi_endproc
 499              	.LFE12:
 500              		.size	chSchWakeupS, .-chSchWakeupS
ARM GAS  /tmp/ccoffX8z.s 			page 10


 501 005a 00BFAFF3 		.section	.text.chSchDoRescheduleBehind,"ax",%progbits
 501      0080
 502              		.align	2
 503              		.p2align 4,,15
 504              		.global	chSchDoRescheduleBehind
 505              		.thumb
 506              		.thumb_func
 507              		.type	chSchDoRescheduleBehind, %function
 508              	chSchDoRescheduleBehind:
 509              	.LFB14:
 510              		.loc 1 304 0
 511              		.cfi_startproc
 512              		@ args = 0, pretend = 0, frame = 0
 513              		@ frame_needed = 0, uses_anonymous_args = 0
 514              		@ link register save eliminated.
 515              		.loc 1 307 0
 516 0000 40F2000C 		movw	ip, #:lower16:.LANCHOR0
 517 0004 C0F2000C 		movt	ip, #:upper16:.LANCHOR0
 518              		.loc 1 304 0
 519 0008 70B4     		push	{r4, r5, r6}
 520              	.LCFI4:
 521              		.cfi_def_cfa_offset 12
 522              	.LBB46:
 523              	.LBB48:
 524              		.loc 2 60 0
 525 000a DCF80000 		ldr	r0, [ip, #0]
 526              	.LBE48:
 527              	.LBE46:
 528              		.loc 1 307 0
 529 000e DCF81810 		ldr	r1, [ip, #24]
 530              	.LVL38:
 531              	.LBB51:
 532              	.LBB49:
 533              		.loc 2 62 0
 534 0012 0568     		ldr	r5, [r0, #0]
 535              		.cfi_offset 6, -4
 536              		.cfi_offset 5, -8
 537              		.cfi_offset 4, -12
 538              	.LBE49:
 539              	.LBE51:
 540              	.LBB52:
 541              	.LBB54:
 542              		.loc 1 92 0
 543 0014 8C68     		ldr	r4, [r1, #8]
 544              	.LBE54:
 545              	.LBE52:
 546              	.LBB56:
 547              	.LBB47:
 548              		.loc 2 62 0
 549 0016 C5F804C0 		str	ip, [r5, #4]
 550              	.LBE47:
 551              	.LBE56:
 552              		.loc 1 312 0
 553 001a 1422     		movs	r2, #20
 554              		.loc 1 310 0
 555 001c 0126     		movs	r6, #1
 556              		.loc 1 312 0
ARM GAS  /tmp/ccoffX8z.s 			page 11


 557 001e CA77     		strb	r2, [r1, #31]
 558              	.LVL39:
 559              	.LBB57:
 560              	.LBB53:
 561              		.loc 1 92 0
 562 0020 0022     		movs	r2, #0
 563              	.LBE53:
 564              	.LBE57:
 565              		.loc 1 310 0
 566 0022 0677     		strb	r6, [r0, #28]
 567              	.LBB58:
 568              	.LBB50:
 569              		.loc 2 62 0
 570 0024 6346     		mov	r3, ip
 571 0026 CCF80050 		str	r5, [ip, #0]
 572              	.LBE50:
 573              	.LBE58:
 574              		.loc 1 309 0
 575 002a CCF81800 		str	r0, [ip, #24]
 576              	.LBB59:
 577              	.LBB55:
 578              		.loc 1 92 0
 579 002e 0A77     		strb	r2, [r1, #28]
 580              	.LVL40:
 581              	.L27:
 582              		.loc 1 95 0
 583 0030 1B68     		ldr	r3, [r3, #0]
 584              	.LVL41:
 585              		.loc 1 96 0
 586 0032 9A68     		ldr	r2, [r3, #8]
 587 0034 A242     		cmp	r2, r4
 588 0036 FBD2     		bcs	.L27
 589              		.loc 1 99 0
 590 0038 5A68     		ldr	r2, [r3, #4]
 591              		.loc 1 98 0
 592 003a 0B60     		str	r3, [r1, #0]
 593              		.loc 1 99 0
 594 003c 4A60     		str	r2, [r1, #4]
 595              		.loc 1 100 0
 596 003e 1160     		str	r1, [r2, #0]
 597 0040 5960     		str	r1, [r3, #4]
 598              	.LBE55:
 599              	.LBE59:
 600              		.loc 1 316 0
 601 0042 70BC     		pop	{r4, r5, r6}
 602              		.loc 1 315 0
 603 0044 FFF7FEBF 		b	_port_switch
 604              		.cfi_endproc
 605              	.LFE14:
 606              		.size	chSchDoRescheduleBehind, .-chSchDoRescheduleBehind
 607 0048 AFF30080 		.section	.text.chSchDoRescheduleAhead,"ax",%progbits
 607      AFF30080 
 608              		.align	2
 609              		.p2align 4,,15
 610              		.global	chSchDoRescheduleAhead
 611              		.thumb
 612              		.thumb_func
ARM GAS  /tmp/ccoffX8z.s 			page 12


 613              		.type	chSchDoRescheduleAhead, %function
 614              	chSchDoRescheduleAhead:
 615              	.LFB15:
 616              		.loc 1 329 0
 617              		.cfi_startproc
 618              		@ args = 0, pretend = 0, frame = 0
 619              		@ frame_needed = 0, uses_anonymous_args = 0
 620              		@ link register save eliminated.
 621              		.loc 1 332 0
 622 0000 40F2000C 		movw	ip, #:lower16:.LANCHOR0
 623 0004 C0F2000C 		movt	ip, #:upper16:.LANCHOR0
 624              		.loc 1 329 0
 625 0008 70B4     		push	{r4, r5, r6}
 626              	.LCFI5:
 627              		.cfi_def_cfa_offset 12
 628              	.LBB60:
 629              	.LBB62:
 630              		.loc 2 60 0
 631 000a DCF80000 		ldr	r0, [ip, #0]
 632              	.LBE62:
 633              	.LBE60:
 634              		.loc 1 332 0
 635 000e DCF81810 		ldr	r1, [ip, #24]
 636              	.LVL42:
 637              	.LBB65:
 638              	.LBB63:
 639              		.loc 2 62 0
 640 0012 0568     		ldr	r5, [r0, #0]
 641              		.cfi_offset 6, -4
 642              		.cfi_offset 5, -8
 643              		.cfi_offset 4, -12
 644              	.LBE63:
 645              	.LBE65:
 646              		.loc 1 337 0
 647 0014 8C68     		ldr	r4, [r1, #8]
 648              	.LBB66:
 649              	.LBB61:
 650              		.loc 2 62 0
 651 0016 C5F804C0 		str	ip, [r5, #4]
 652              	.LBE61:
 653              	.LBE66:
 654              		.loc 1 335 0
 655 001a 0126     		movs	r6, #1
 656              		.loc 1 337 0
 657 001c 0022     		movs	r2, #0
 658              		.loc 1 335 0
 659 001e 0677     		strb	r6, [r0, #28]
 660              	.LBB67:
 661              	.LBB64:
 662              		.loc 2 62 0
 663 0020 6346     		mov	r3, ip
 664 0022 CCF80050 		str	r5, [ip, #0]
 665              	.LBE64:
 666              	.LBE67:
 667              		.loc 1 334 0
 668 0026 CCF81800 		str	r0, [ip, #24]
 669              		.loc 1 337 0
ARM GAS  /tmp/ccoffX8z.s 			page 13


 670 002a 0A77     		strb	r2, [r1, #28]
 671              	.LVL43:
 672              	.L30:
 673              		.loc 1 340 0 discriminator 1
 674 002c 1B68     		ldr	r3, [r3, #0]
 675              	.LVL44:
 676              		.loc 1 341 0 discriminator 1
 677 002e 9A68     		ldr	r2, [r3, #8]
 678 0030 9442     		cmp	r4, r2
 679 0032 FBD3     		bcc	.L30
 680              		.loc 1 344 0
 681 0034 5A68     		ldr	r2, [r3, #4]
 682              		.loc 1 343 0
 683 0036 0B60     		str	r3, [r1, #0]
 684              		.loc 1 344 0
 685 0038 4A60     		str	r2, [r1, #4]
 686              		.loc 1 345 0
 687 003a 1160     		str	r1, [r2, #0]
 688 003c 5960     		str	r1, [r3, #4]
 689              		.loc 1 348 0
 690 003e 70BC     		pop	{r4, r5, r6}
 691              		.loc 1 347 0
 692 0040 FFF7FEBF 		b	_port_switch
 693              		.cfi_endproc
 694              	.LFE15:
 695              		.size	chSchDoRescheduleAhead, .-chSchDoRescheduleAhead
 696 0044 AFF30080 		.section	.text.chSchRescheduleS,"ax",%progbits
 696      AFF30080 
 696      AFF30080 
 697              		.align	2
 698              		.p2align 4,,15
 699              		.global	chSchRescheduleS
 700              		.thumb
 701              		.thumb_func
 702              		.type	chSchRescheduleS, %function
 703              	chSchRescheduleS:
 704              	.LFB13:
 705              		.loc 1 253 0
 706              		.cfi_startproc
 707              		@ args = 0, pretend = 0, frame = 0
 708              		@ frame_needed = 0, uses_anonymous_args = 0
 709              		@ link register save eliminated.
 710              		.loc 1 257 0
 711 0000 40F2000C 		movw	ip, #:lower16:.LANCHOR0
 712 0004 C0F2000C 		movt	ip, #:upper16:.LANCHOR0
 713 0008 DCF80010 		ldr	r1, [ip, #0]
 714 000c DCF81800 		ldr	r0, [ip, #24]
 715 0010 8A68     		ldr	r2, [r1, #8]
 716 0012 8368     		ldr	r3, [r0, #8]
 717 0014 9A42     		cmp	r2, r3
 718 0016 00D8     		bhi	.L34
 719 0018 7047     		bx	lr
 720              	.L34:
 721              		.loc 1 259 0
 722              		.loc 1 258 0
 723 001a FFF7FEBF 		b	chSchDoRescheduleAhead
 724              		.cfi_endproc
ARM GAS  /tmp/ccoffX8z.s 			page 14


 725              	.LFE13:
 726              		.size	chSchRescheduleS, .-chSchRescheduleS
 727 001e 00BF     		.section	.text.chSchDoReschedule,"ax",%progbits
 728              		.align	2
 729              		.p2align 4,,15
 730              		.global	chSchDoReschedule
 731              		.thumb
 732              		.thumb_func
 733              		.type	chSchDoReschedule, %function
 734              	chSchDoReschedule:
 735              	.LFB16:
 736              		.loc 1 362 0
 737              		.cfi_startproc
 738              		@ args = 0, pretend = 0, frame = 0
 739              		@ frame_needed = 0, uses_anonymous_args = 0
 740              		@ link register save eliminated.
 741              		.loc 1 367 0
 742 0000 40F20001 		movw	r1, #:lower16:.LANCHOR0
 743 0004 C0F20001 		movt	r1, #:upper16:.LANCHOR0
 744 0008 8869     		ldr	r0, [r1, #24]
 745 000a C37F     		ldrb	r3, [r0, #31]	@ zero_extendqisi2
 746 000c 0BB1     		cbz	r3, .L37
 747              		.loc 1 382 0
 748              		.loc 1 375 0
 749 000e FFF7FEBF 		b	chSchDoRescheduleAhead
 750              	.L37:
 751              		.loc 1 382 0
 752              		.loc 1 370 0
 753 0012 FFF7FEBF 		b	chSchDoRescheduleBehind
 754              		.cfi_endproc
 755              	.LFE16:
 756              		.size	chSchDoReschedule, .-chSchDoReschedule
 757              		.global	rlist
 758 0016 00BFAFF3 		.section	.bss.rlist,"aw",%nobits
 758      0080AFF3 
 758      0080
 759              		.align	2
 760              		.set	.LANCHOR0,. + 0
 761              		.type	rlist, %object
 762              		.size	rlist, 28
 763              	rlist:
 764 0000 00000000 		.space	28
 764      00000000 
 764      00000000 
 764      00000000 
 764      00000000 
 765              		.text
 766              	.Letext0: