ARM GAS  /tmp/ccaUTvTS.s 			page 1


   1              		.syntax unified
   2              		.cpu cortex-m4
   3              		.fpu softvfp
   4              		.eabi_attribute 20, 1
   5              		.eabi_attribute 21, 1
   6              		.eabi_attribute 23, 3
   7              		.eabi_attribute 24, 1
   8              		.eabi_attribute 25, 1
   9              		.eabi_attribute 26, 1
  10              		.eabi_attribute 30, 2
  11              		.eabi_attribute 18, 4
  12              		.thumb
  13              		.file	"chsem.c"
  20 0000 83030000 		.text
  20      02006601 
  20      00000201 
  20      FB0E0D00 
  20      01010101 
  21              	.Ltext0:
  22              		.cfi_sections	.debug_frame
  23              		.section	.text.chSemInit,"ax",%progbits
  24              		.align	2
  25              		.p2align 4,,15
  26              		.global	chSemInit
  27              		.thumb
  28              		.thumb_func
  29              		.type	chSemInit, %function
  30              	chSemInit:
  31              	.LFB7:
  32              		.file 1 "../ChibiOS_2.6.2/os/kernel/src/chsem.c"
  33              		.loc 1 86 0
  34              		.cfi_startproc
  35              		@ args = 0, pretend = 0, frame = 0
  36              		@ frame_needed = 0, uses_anonymous_args = 0
  37              		@ link register save eliminated.
  38              	.LVL0:
  39              		.loc 1 90 0
  40 0000 4060     		str	r0, [r0, #4]
  41 0002 0060     		str	r0, [r0, #0]
  42              		.loc 1 91 0
  43 0004 8160     		str	r1, [r0, #8]
  44              		.loc 1 92 0
  45 0006 7047     		bx	lr
  46              		.cfi_endproc
  47              	.LFE7:
  48              		.size	chSemInit, .-chSemInit
  49 0008 AFF30080 		.section	.text.chSemResetI,"ax",%progbits
  49      AFF30080 
  50              		.align	2
  51              		.p2align 4,,15
  52              		.global	chSemResetI
ARM GAS  /tmp/ccaUTvTS.s 			page 2


  53              		.thumb
  54              		.thumb_func
  55              		.type	chSemResetI, %function
  56              	chSemResetI:
  57              	.LFB9:
  58              		.loc 1 136 0
  59              		.cfi_startproc
  60              		@ args = 0, pretend = 0, frame = 0
  61              		@ frame_needed = 0, uses_anonymous_args = 0
  62              	.LVL1:
  63 0000 F8B5     		push	{r3, r4, r5, r6, r7, lr}
  64              	.LCFI0:
  65              		.cfi_def_cfa_offset 24
  66              		.loc 1 146 0
  67 0002 8768     		ldr	r7, [r0, #8]
  68              		.cfi_offset 14, -4
  69              		.cfi_offset 7, -8
  70              		.cfi_offset 6, -12
  71              		.cfi_offset 5, -16
  72              		.cfi_offset 4, -20
  73              		.cfi_offset 3, -24
  74              	.LVL2:
  75              		.loc 1 147 0
  76 0004 8160     		str	r1, [r0, #8]
  77              		.loc 1 148 0
  78 0006 0137     		adds	r7, r7, #1
  79              	.LVL3:
  80 0008 002F     		cmp	r7, #0
  81              		.loc 1 136 0
  82 000a 0446     		mov	r4, r0
  83              		.loc 1 148 0
  84 000c 29DC     		bgt	.L2
  85              	.LBB24:
  86              	.LBB26:
  87              		.file 2 "../ChibiOS_2.6.2/os/kernel/include/chinline.h"
  88              		.loc 2 67 0
  89 000e 4068     		ldr	r0, [r0, #4]
  90              	.LVL4:
  91              		.loc 2 69 0
  92 0010 4368     		ldr	r3, [r0, #4]
  93 0012 6360     		str	r3, [r4, #4]
  94 0014 1C60     		str	r4, [r3, #0]
  95              	.LBE26:
  96              	.LBE24:
  97              		.loc 1 149 0
  98 0016 FFF7FEFF 		bl	chSchReadyI
  99              	.LVL5:
 100              		.loc 1 148 0
 101 001a 7D1C     		adds	r5, r7, #1
 102              		.loc 1 149 0
 103 001c 6FF00106 		mvn	r6, #1
 104              		.loc 1 148 0
 105 0020 002D     		cmp	r5, #0
 106              		.loc 1 149 0
 107 0022 4662     		str	r6, [r0, #36]
 108 0024 07F00107 		and	r7, r7, #1
 109              	.LVL6:
ARM GAS  /tmp/ccaUTvTS.s 			page 3


 110              		.loc 1 148 0
 111 0028 1CDC     		bgt	.L13
 112 002a 4FB1     		cbz	r7, .L5
 113              	.LBB29:
 114              	.LBB27:
 115              		.loc 2 67 0
 116 002c 6068     		ldr	r0, [r4, #4]
 117              		.loc 2 69 0
 118 002e 4368     		ldr	r3, [r0, #4]
 119 0030 6360     		str	r3, [r4, #4]
 120 0032 1C60     		str	r4, [r3, #0]
 121              	.LBE27:
 122              	.LBE29:
 123              		.loc 1 149 0
 124 0034 FFF7FEFF 		bl	chSchReadyI
 125              		.loc 1 148 0
 126 0038 0135     		adds	r5, r5, #1
 127 003a 002D     		cmp	r5, #0
 128              		.loc 1 149 0
 129 003c 4662     		str	r6, [r0, #36]
 130              		.loc 1 148 0
 131 003e 12DC     		bgt	.L14
 132              	.L5:
 133              	.LBB30:
 134              	.LBB25:
 135              		.loc 2 67 0
 136 0040 6068     		ldr	r0, [r4, #4]
 137              		.loc 2 69 0
 138 0042 4268     		ldr	r2, [r0, #4]
 139 0044 6260     		str	r2, [r4, #4]
 140 0046 1460     		str	r4, [r2, #0]
 141              	.LBE25:
 142              	.LBE30:
 143              		.loc 1 149 0
 144 0048 FFF7FEFF 		bl	chSchReadyI
 145 004c 4662     		str	r6, [r0, #36]
 146              	.LBB31:
 147              	.LBB28:
 148              		.loc 2 67 0
 149 004e 6068     		ldr	r0, [r4, #4]
 150              		.loc 2 69 0
 151 0050 4168     		ldr	r1, [r0, #4]
 152 0052 6160     		str	r1, [r4, #4]
 153 0054 0C60     		str	r4, [r1, #0]
 154              	.LBE28:
 155              	.LBE31:
 156              		.loc 1 149 0
 157 0056 FFF7FEFF 		bl	chSchReadyI
 158              		.loc 1 148 0
 159 005a 0235     		adds	r5, r5, #2
 160 005c 002D     		cmp	r5, #0
 161              		.loc 1 149 0
 162 005e 4662     		str	r6, [r0, #36]
 163              		.loc 1 148 0
 164 0060 EEDD     		ble	.L5
 165              	.LVL7:
 166              	.L2:
ARM GAS  /tmp/ccaUTvTS.s 			page 4


 167 0062 F8BD     		pop	{r3, r4, r5, r6, r7, pc}
 168              	.LVL8:
 169              	.L13:
 170 0064 F8BD     		pop	{r3, r4, r5, r6, r7, pc}
 171              	.L14:
 172 0066 F8BD     		pop	{r3, r4, r5, r6, r7, pc}
 173              		.cfi_endproc
 174              	.LFE9:
 175              		.size	chSemResetI, .-chSemResetI
 176 0068 AFF30080 		.section	.text.chSemReset,"ax",%progbits
 176      AFF30080 
 177              		.align	2
 178              		.p2align 4,,15
 179              		.global	chSemReset
 180              		.thumb
 181              		.thumb_func
 182              		.type	chSemReset, %function
 183              	chSemReset:
 184              	.LFB8:
 185              		.loc 1 109 0
 186              		.cfi_startproc
 187              		@ args = 0, pretend = 0, frame = 0
 188              		@ frame_needed = 0, uses_anonymous_args = 0
 189              	.LVL9:
 190 0000 08B5     		push	{r3, lr}
 191              	.LCFI1:
 192              		.cfi_def_cfa_offset 8
 193              	.LBB32:
 194              		.loc 1 111 0
 195 0002 2023     		movs	r3, #32
 196              		.cfi_offset 14, -4
 197              		.cfi_offset 3, -8
 198              	.LVL10:
 199              	@ 111 "../ChibiOS_2.6.2/os/kernel/src/chsem.c" 1
 200 0004 83F31188 		msr     BASEPRI, r3
 201              	@ 0 "" 2
 202              	.LVL11:
 203              		.thumb
 204              	.LBE32:
 205              		.loc 1 112 0
 206 0008 FFF7FEFF 		bl	chSemResetI
 207              	.LVL12:
 208              		.loc 1 113 0
 209 000c FFF7FEFF 		bl	chSchRescheduleS
 210              	.LBB33:
 211              		.loc 1 114 0
 212 0010 0023     		movs	r3, #0
 213              	.LVL13:
 214              	@ 114 "../ChibiOS_2.6.2/os/kernel/src/chsem.c" 1
 215 0012 83F31188 		msr     BASEPRI, r3
 216              	@ 0 "" 2
 217              	.LVL14:
 218              		.thumb
 219              	.LBE33:
 220              		.loc 1 115 0
 221 0016 08BD     		pop	{r3, pc}
 222              		.cfi_endproc
ARM GAS  /tmp/ccaUTvTS.s 			page 5


 223              	.LFE8:
 224              		.size	chSemReset, .-chSemReset
 225 0018 AFF30080 		.section	.text.chSemWaitS,"ax",%progbits
 225      AFF30080 
 226              		.align	2
 227              		.p2align 4,,15
 228              		.global	chSemWaitS
 229              		.thumb
 230              		.thumb_func
 231              		.type	chSemWaitS, %function
 232              	chSemWaitS:
 233              	.LFB11:
 234              		.loc 1 185 0
 235              		.cfi_startproc
 236              		@ args = 0, pretend = 0, frame = 0
 237              		@ frame_needed = 0, uses_anonymous_args = 0
 238              	.LVL15:
 239 0000 0346     		mov	r3, r0
 240              		.loc 1 194 0
 241 0002 8068     		ldr	r0, [r0, #8]
 242              	.LVL16:
 243 0004 421E     		subs	r2, r0, #1
 244 0006 002A     		cmp	r2, #0
 245              		.loc 1 185 0
 246 0008 10B5     		push	{r4, lr}
 247              	.LCFI2:
 248              		.cfi_def_cfa_offset 8
 249              		.loc 1 194 0
 250 000a 9A60     		str	r2, [r3, #8]
 251 000c 01DB     		blt	.L19
 252              		.cfi_offset 14, -4
 253              		.cfi_offset 4, -8
 254              		.loc 1 200 0
 255 000e 0020     		movs	r0, #0
 256              		.loc 1 201 0
 257 0010 10BD     		pop	{r4, pc}
 258              	.L19:
 259              		.loc 1 195 0
 260 0012 40F20004 		movw	r4, #:lower16:rlist
 261 0016 C0F20004 		movt	r4, #:upper16:rlist
 262              		.loc 1 197 0
 263 001a 0320     		movs	r0, #3
 264              		.loc 1 195 0
 265 001c A269     		ldr	r2, [r4, #24]
 266 001e 5362     		str	r3, [r2, #36]
 267              	.LVL17:
 268              	.LBB34:
 269              	.LBB35:
 270              		.loc 2 55 0
 271 0020 5968     		ldr	r1, [r3, #4]
 272              		.loc 2 54 0
 273 0022 1360     		str	r3, [r2, #0]
 274              		.loc 2 55 0
 275 0024 5160     		str	r1, [r2, #4]
 276              		.loc 2 56 0
 277 0026 5A60     		str	r2, [r3, #4]
 278 0028 0A60     		str	r2, [r1, #0]
ARM GAS  /tmp/ccaUTvTS.s 			page 6


 279              	.LBE35:
 280              	.LBE34:
 281              		.loc 1 197 0
 282 002a FFF7FEFF 		bl	chSchGoSleepS
 283              	.LVL18:
 284              		.loc 1 198 0
 285 002e A369     		ldr	r3, [r4, #24]
 286 0030 586A     		ldr	r0, [r3, #36]
 287 0032 10BD     		pop	{r4, pc}
 288              		.cfi_endproc
 289              	.LFE11:
 290              		.size	chSemWaitS, .-chSemWaitS
 291 0034 AFF30080 		.section	.text.chSemWait,"ax",%progbits
 291      AFF30080 
 291      AFF30080 
 292              		.align	2
 293              		.p2align 4,,15
 294              		.global	chSemWait
 295              		.thumb
 296              		.thumb_func
 297              		.type	chSemWait, %function
 298              	chSemWait:
 299              	.LFB10:
 300              		.loc 1 164 0
 301              		.cfi_startproc
 302              		@ args = 0, pretend = 0, frame = 0
 303              		@ frame_needed = 0, uses_anonymous_args = 0
 304              	.LVL19:
 305 0000 08B5     		push	{r3, lr}
 306              	.LCFI3:
 307              		.cfi_def_cfa_offset 8
 308              	.LBB36:
 309              		.loc 1 167 0
 310 0002 2023     		movs	r3, #32
 311              		.cfi_offset 14, -4
 312              		.cfi_offset 3, -8
 313              	.LVL20:
 314              	@ 167 "../ChibiOS_2.6.2/os/kernel/src/chsem.c" 1
 315 0004 83F31188 		msr     BASEPRI, r3
 316              	@ 0 "" 2
 317              	.LVL21:
 318              		.thumb
 319              	.LBE36:
 320              		.loc 1 168 0
 321 0008 FFF7FEFF 		bl	chSemWaitS
 322              	.LVL22:
 323              	.LBB37:
 324              		.loc 1 169 0
 325 000c 0023     		movs	r3, #0
 326              	.LVL23:
 327              	@ 169 "../ChibiOS_2.6.2/os/kernel/src/chsem.c" 1
 328 000e 83F31188 		msr     BASEPRI, r3
 329              	@ 0 "" 2
 330              	.LVL24:
 331              		.thumb
 332              	.LBE37:
 333              		.loc 1 171 0
ARM GAS  /tmp/ccaUTvTS.s 			page 7


 334 0012 08BD     		pop	{r3, pc}
 335              		.cfi_endproc
 336              	.LFE10:
 337              		.size	chSemWait, .-chSemWait
 338 0014 AFF30080 		.section	.text.chSemWaitTimeoutS,"ax",%progbits
 338      AFF30080 
 338      AFF30080 
 339              		.align	2
 340              		.p2align 4,,15
 341              		.global	chSemWaitTimeoutS
 342              		.thumb
 343              		.thumb_func
 344              		.type	chSemWaitTimeoutS, %function
 345              	chSemWaitTimeoutS:
 346              	.LFB13:
 347              		.loc 1 250 0
 348              		.cfi_startproc
 349              		@ args = 0, pretend = 0, frame = 0
 350              		@ frame_needed = 0, uses_anonymous_args = 0
 351              		@ link register save eliminated.
 352              	.LVL25:
 353 0000 0346     		mov	r3, r0
 354              		.loc 1 259 0
 355 0002 8068     		ldr	r0, [r0, #8]
 356              	.LVL26:
 357 0004 421E     		subs	r2, r0, #1
 358 0006 002A     		cmp	r2, #0
 359              		.loc 1 250 0
 360 0008 10B4     		push	{r4}
 361              	.LCFI4:
 362              		.cfi_def_cfa_offset 4
 363              		.loc 1 250 0
 364 000a 0C46     		mov	r4, r1
 365              		.cfi_offset 4, -4
 366              		.loc 1 259 0
 367 000c 9A60     		str	r2, [r3, #8]
 368 000e 02DB     		blt	.L25
 369              		.loc 1 268 0
 370 0010 0020     		movs	r0, #0
 371              	.L22:
 372              		.loc 1 269 0
 373 0012 10BC     		pop	{r4}
 374 0014 7047     		bx	lr
 375              	.L25:
 376              		.loc 1 260 0
 377 0016 71B1     		cbz	r1, .L26
 378              		.loc 1 264 0
 379 0018 40F20004 		movw	r4, #:lower16:rlist
 380 001c C0F20004 		movt	r4, #:upper16:rlist
 381              		.loc 1 266 0
 382 0020 0320     		movs	r0, #3
 383              		.loc 1 264 0
 384 0022 A269     		ldr	r2, [r4, #24]
 385 0024 5362     		str	r3, [r2, #36]
 386              	.LVL27:
 387              	.LBB38:
 388              	.LBB39:
ARM GAS  /tmp/ccaUTvTS.s 			page 8


 389              		.loc 2 55 0
 390 0026 5C68     		ldr	r4, [r3, #4]
 391              	.LVL28:
 392              		.loc 2 54 0
 393 0028 1360     		str	r3, [r2, #0]
 394              		.loc 2 55 0
 395 002a 5460     		str	r4, [r2, #4]
 396              		.loc 2 56 0
 397 002c 5A60     		str	r2, [r3, #4]
 398 002e 2260     		str	r2, [r4, #0]
 399              	.LBE39:
 400              	.LBE38:
 401              		.loc 1 269 0
 402 0030 10BC     		pop	{r4}
 403              		.loc 1 266 0
 404 0032 FFF7FEBF 		b	chSchGoSleepTimeoutS
 405              	.LVL29:
 406              	.L26:
 407              		.loc 1 261 0
 408 0036 9860     		str	r0, [r3, #8]
 409              		.loc 1 262 0
 410 0038 4FF0FF30 		mov	r0, #-1
 411 003c E9E7     		b	.L22
 412              		.cfi_endproc
 413              	.LFE13:
 414              		.size	chSemWaitTimeoutS, .-chSemWaitTimeoutS
 415 003e 00BF     		.section	.text.chSemWaitTimeout,"ax",%progbits
 416              		.align	2
 417              		.p2align 4,,15
 418              		.global	chSemWaitTimeout
 419              		.thumb
 420              		.thumb_func
 421              		.type	chSemWaitTimeout, %function
 422              	chSemWaitTimeout:
 423              	.LFB12:
 424              		.loc 1 222 0
 425              		.cfi_startproc
 426              		@ args = 0, pretend = 0, frame = 0
 427              		@ frame_needed = 0, uses_anonymous_args = 0
 428              	.LVL30:
 429 0000 08B5     		push	{r3, lr}
 430              	.LCFI5:
 431              		.cfi_def_cfa_offset 8
 432              	.LBB40:
 433              		.loc 1 225 0
 434 0002 2023     		movs	r3, #32
 435              		.cfi_offset 14, -4
 436              		.cfi_offset 3, -8
 437              	.LVL31:
 438              	@ 225 "../ChibiOS_2.6.2/os/kernel/src/chsem.c" 1
 439 0004 83F31188 		msr     BASEPRI, r3
 440              	@ 0 "" 2
 441              	.LVL32:
 442              		.thumb
 443              	.LBE40:
 444              		.loc 1 226 0
 445 0008 FFF7FEFF 		bl	chSemWaitTimeoutS
ARM GAS  /tmp/ccaUTvTS.s 			page 9


 446              	.LVL33:
 447              	.LBB41:
 448              		.loc 1 227 0
 449 000c 0023     		movs	r3, #0
 450              	.LVL34:
 451              	@ 227 "../ChibiOS_2.6.2/os/kernel/src/chsem.c" 1
 452 000e 83F31188 		msr     BASEPRI, r3
 453              	@ 0 "" 2
 454              	.LVL35:
 455              		.thumb
 456              	.LBE41:
 457              		.loc 1 229 0
 458 0012 08BD     		pop	{r3, pc}
 459              		.cfi_endproc
 460              	.LFE12:
 461              		.size	chSemWaitTimeout, .-chSemWaitTimeout
 462 0014 AFF30080 		.section	.text.chSemSignal,"ax",%progbits
 462      AFF30080 
 462      AFF30080 
 463              		.align	2
 464              		.p2align 4,,15
 465              		.global	chSemSignal
 466              		.thumb
 467              		.thumb_func
 468              		.type	chSemSignal, %function
 469              	chSemSignal:
 470              	.LFB14:
 471              		.loc 1 278 0
 472              		.cfi_startproc
 473              		@ args = 0, pretend = 0, frame = 0
 474              		@ frame_needed = 0, uses_anonymous_args = 0
 475              	.LVL36:
 476 0000 08B5     		push	{r3, lr}
 477              	.LCFI6:
 478              		.cfi_def_cfa_offset 8
 479              		.loc 1 278 0
 480 0002 0246     		mov	r2, r0
 481              	.LBB42:
 482              		.loc 1 286 0
 483 0004 2023     		movs	r3, #32
 484              		.cfi_offset 14, -4
 485              		.cfi_offset 3, -8
 486              	.LVL37:
 487              	@ 286 "../ChibiOS_2.6.2/os/kernel/src/chsem.c" 1
 488 0006 83F31188 		msr     BASEPRI, r3
 489              	@ 0 "" 2
 490              	.LVL38:
 491              		.thumb
 492              	.LBE42:
 493              		.loc 1 287 0
 494 000a 8068     		ldr	r0, [r0, #8]
 495              	.LVL39:
 496 000c 431C     		adds	r3, r0, #1
 497              	.LVL40:
 498 000e 002B     		cmp	r3, #0
 499 0010 9360     		str	r3, [r2, #8]
 500 0012 03DD     		ble	.L30
ARM GAS  /tmp/ccaUTvTS.s 			page 10


 501              	.LBB43:
 502              		.loc 1 289 0
 503 0014 0023     		movs	r3, #0
 504              	.LVL41:
 505              	@ 289 "../ChibiOS_2.6.2/os/kernel/src/chsem.c" 1
 506 0016 83F31188 		msr     BASEPRI, r3
 507              	@ 0 "" 2
 508              	.LVL42:
 509              		.thumb
 510              	.LBE43:
 511              		.loc 1 290 0
 512 001a 08BD     		pop	{r3, pc}
 513              	.LVL43:
 514              	.L30:
 515              	.LBB44:
 516              	.LBB45:
 517              		.loc 2 60 0
 518 001c 1068     		ldr	r0, [r2, #0]
 519              	.LVL44:
 520              		.loc 2 62 0
 521 001e 0368     		ldr	r3, [r0, #0]
 522              	.LBE45:
 523              	.LBE44:
 524              		.loc 1 288 0
 525 0020 0021     		movs	r1, #0
 526              	.LBB47:
 527              	.LBB46:
 528              		.loc 2 62 0
 529 0022 1360     		str	r3, [r2, #0]
 530 0024 5A60     		str	r2, [r3, #4]
 531              	.LBE46:
 532              	.LBE47:
 533              		.loc 1 288 0
 534 0026 FFF7FEFF 		bl	chSchWakeupS
 535              	.LVL45:
 536              	.LBB48:
 537              		.loc 1 289 0
 538 002a 0023     		movs	r3, #0
 539              	@ 289 "../ChibiOS_2.6.2/os/kernel/src/chsem.c" 1
 540 002c 83F31188 		msr     BASEPRI, r3
 541              	@ 0 "" 2
 542              	.LVL46:
 543              		.thumb
 544              	.LBE48:
 545              		.loc 1 290 0
 546 0030 08BD     		pop	{r3, pc}
 547              		.cfi_endproc
 548              	.LFE14:
 549              		.size	chSemSignal, .-chSemSignal
 550 0032 00BFAFF3 		.section	.text.chSemSignalI,"ax",%progbits
 550      0080AFF3 
 550      0080AFF3 
 550      0080
 551              		.align	2
 552              		.p2align 4,,15
 553              		.global	chSemSignalI
 554              		.thumb
ARM GAS  /tmp/ccaUTvTS.s 			page 11


 555              		.thumb_func
 556              		.type	chSemSignalI, %function
 557              	chSemSignalI:
 558              	.LFB15:
 559              		.loc 1 303 0
 560              		.cfi_startproc
 561              		@ args = 0, pretend = 0, frame = 0
 562              		@ frame_needed = 0, uses_anonymous_args = 0
 563              		@ link register save eliminated.
 564              	.LVL47:
 565              		.loc 1 303 0
 566 0000 0346     		mov	r3, r0
 567              		.loc 1 312 0
 568 0002 8068     		ldr	r0, [r0, #8]
 569              	.LVL48:
 570 0004 421C     		adds	r2, r0, #1
 571 0006 002A     		cmp	r2, #0
 572 0008 9A60     		str	r2, [r3, #8]
 573 000a 00DD     		ble	.L33
 574 000c 7047     		bx	lr
 575              	.L33:
 576              	.LVL49:
 577              	.LBB49:
 578              	.LBB51:
 579              	.LBB52:
 580              		.loc 2 60 0
 581 000e 1A68     		ldr	r2, [r3, #0]
 582              	.LVL50:
 583              		.loc 2 62 0
 584 0010 1168     		ldr	r1, [r2, #0]
 585              	.LBE52:
 586              	.LBE51:
 587              		.loc 1 317 0
 588 0012 1046     		mov	r0, r2
 589              	.LBB50:
 590              	.LBB53:
 591              		.loc 2 62 0
 592 0014 1960     		str	r1, [r3, #0]
 593 0016 4B60     		str	r3, [r1, #4]
 594              	.LBE53:
 595              	.LBE50:
 596              		.loc 1 316 0
 597 0018 0023     		movs	r3, #0
 598              	.LVL51:
 599 001a 5362     		str	r3, [r2, #36]
 600              	.LBE49:
 601              		.loc 1 319 0
 602              	.LBB54:
 603              		.loc 1 317 0
 604 001c FFF7FEBF 		b	chSchReadyI
 605              	.LBE54:
 606              		.cfi_endproc
 607              	.LFE15:
 608              		.size	chSemSignalI, .-chSemSignalI
 609              		.section	.text.chSemAddCounterI,"ax",%progbits
 610              		.align	2
 611              		.p2align 4,,15
ARM GAS  /tmp/ccaUTvTS.s 			page 12


 612              		.global	chSemAddCounterI
 613              		.thumb
 614              		.thumb_func
 615              		.type	chSemAddCounterI, %function
 616              	chSemAddCounterI:
 617              	.LFB16:
 618              		.loc 1 334 0
 619              		.cfi_startproc
 620              		@ args = 0, pretend = 0, frame = 0
 621              		@ frame_needed = 0, uses_anonymous_args = 0
 622              	.LVL52:
 623 0000 F8B5     		push	{r3, r4, r5, r6, r7, lr}
 624              	.LCFI7:
 625              		.cfi_def_cfa_offset 24
 626              		.loc 1 343 0
 627 0002 0D1E     		subs	r5, r1, #0
 628              		.cfi_offset 14, -4
 629              		.cfi_offset 7, -8
 630              		.cfi_offset 6, -12
 631              		.cfi_offset 5, -16
 632              		.cfi_offset 4, -20
 633              		.cfi_offset 3, -24
 634              		.loc 1 334 0
 635 0004 0446     		mov	r4, r0
 636              		.loc 1 343 0
 637 0006 3BDD     		ble	.L34
 638              		.loc 1 344 0
 639 0008 8068     		ldr	r0, [r0, #8]
 640              	.LVL53:
 641              		.loc 1 345 0
 642 000a 0026     		movs	r6, #0
 643              		.loc 1 344 0
 644 000c 431C     		adds	r3, r0, #1
 645 000e 6F1E     		subs	r7, r5, #1
 646 0010 B342     		cmp	r3, r6
 647 0012 A360     		str	r3, [r4, #8]
 648 0014 07F00107 		and	r7, r7, #1
 649 0018 33DD     		ble	.L50
 650              	.LVL54:
 651              	.L40:
 652              		.loc 1 346 0
 653 001a 013D     		subs	r5, r5, #1
 654              	.LVL55:
 655              		.loc 1 343 0
 656 001c 002D     		cmp	r5, #0
 657 001e 2FDD     		ble	.L34
 658 0020 8FB1     		cbz	r7, .L38
 659              		.loc 1 344 0
 660 0022 A068     		ldr	r0, [r4, #8]
 661 0024 431C     		adds	r3, r0, #1
 662 0026 002B     		cmp	r3, #0
 663 0028 A360     		str	r3, [r4, #8]
 664 002a 32DD     		ble	.L51
 665              	.L42:
 666              		.loc 1 346 0
 667 002c 013D     		subs	r5, r5, #1
 668              		.loc 1 343 0
ARM GAS  /tmp/ccaUTvTS.s 			page 13


 669 002e 002D     		cmp	r5, #0
 670 0030 09DC     		bgt	.L38
 671 0032 36E0     		b	.L55
 672              	.L36:
 673              		.loc 1 344 0
 674 0034 A168     		ldr	r1, [r4, #8]
 675 0036 481C     		adds	r0, r1, #1
 676              		.loc 1 346 0
 677 0038 013D     		subs	r5, r5, #1
 678              		.loc 1 344 0
 679 003a 0028     		cmp	r0, #0
 680 003c A060     		str	r0, [r4, #8]
 681 003e 14DD     		ble	.L53
 682              	.L45:
 683              		.loc 1 346 0
 684 0040 013D     		subs	r5, r5, #1
 685              		.loc 1 343 0
 686 0042 002D     		cmp	r5, #0
 687 0044 1BDD     		ble	.L54
 688              	.L38:
 689              		.loc 1 344 0
 690 0046 A268     		ldr	r2, [r4, #8]
 691 0048 511C     		adds	r1, r2, #1
 692 004a 0029     		cmp	r1, #0
 693 004c A160     		str	r1, [r4, #8]
 694 004e F1DC     		bgt	.L36
 695              	.LVL56:
 696              	.LBB55:
 697              	.LBB57:
 698              		.loc 2 60 0
 699 0050 2068     		ldr	r0, [r4, #0]
 700              	.LVL57:
 701              		.loc 2 62 0
 702 0052 0368     		ldr	r3, [r0, #0]
 703 0054 2360     		str	r3, [r4, #0]
 704 0056 5C60     		str	r4, [r3, #4]
 705              	.LBE57:
 706              	.LBE55:
 707              		.loc 1 345 0
 708 0058 FFF7FEFF 		bl	chSchReadyI
 709              	.LVL58:
 710 005c 4662     		str	r6, [r0, #36]
 711              		.loc 1 344 0
 712 005e A168     		ldr	r1, [r4, #8]
 713 0060 481C     		adds	r0, r1, #1
 714              		.loc 1 346 0
 715 0062 013D     		subs	r5, r5, #1
 716              		.loc 1 344 0
 717 0064 0028     		cmp	r0, #0
 718 0066 A060     		str	r0, [r4, #8]
 719 0068 EADC     		bgt	.L45
 720              	.LVL59:
 721              	.L53:
 722              	.LBB60:
 723              	.LBB58:
 724              		.loc 2 60 0
 725 006a 2068     		ldr	r0, [r4, #0]
ARM GAS  /tmp/ccaUTvTS.s 			page 14


 726              		.loc 2 62 0
 727 006c 0268     		ldr	r2, [r0, #0]
 728 006e 2260     		str	r2, [r4, #0]
 729 0070 5460     		str	r4, [r2, #4]
 730              	.LBE58:
 731              	.LBE60:
 732              		.loc 1 345 0
 733 0072 FFF7FEFF 		bl	chSchReadyI
 734              		.loc 1 346 0
 735 0076 013D     		subs	r5, r5, #1
 736              		.loc 1 343 0
 737 0078 002D     		cmp	r5, #0
 738              		.loc 1 345 0
 739 007a 4662     		str	r6, [r0, #36]
 740              		.loc 1 343 0
 741 007c E3DC     		bgt	.L38
 742              	.LVL60:
 743              	.L54:
 744 007e F8BD     		pop	{r3, r4, r5, r6, r7, pc}
 745              	.L34:
 746 0080 F8BD     		pop	{r3, r4, r5, r6, r7, pc}
 747              	.LVL61:
 748              	.L50:
 749              	.LBB61:
 750              	.LBB56:
 751              		.loc 2 60 0
 752 0082 2068     		ldr	r0, [r4, #0]
 753              		.loc 2 62 0
 754 0084 0268     		ldr	r2, [r0, #0]
 755 0086 2260     		str	r2, [r4, #0]
 756 0088 5460     		str	r4, [r2, #4]
 757              	.LBE56:
 758              	.LBE61:
 759              		.loc 1 345 0
 760 008a FFF7FEFF 		bl	chSchReadyI
 761              	.LVL62:
 762 008e 4662     		str	r6, [r0, #36]
 763 0090 C3E7     		b	.L40
 764              	.LVL63:
 765              	.L51:
 766              	.LBB62:
 767              	.LBB59:
 768              		.loc 2 60 0
 769 0092 2068     		ldr	r0, [r4, #0]
 770              		.loc 2 62 0
 771 0094 0168     		ldr	r1, [r0, #0]
 772 0096 2160     		str	r1, [r4, #0]
 773 0098 4C60     		str	r4, [r1, #4]
 774              	.LBE59:
 775              	.LBE62:
 776              		.loc 1 345 0
 777 009a FFF7FEFF 		bl	chSchReadyI
 778 009e 4662     		str	r6, [r0, #36]
 779 00a0 C4E7     		b	.L42
 780              	.LVL64:
 781              	.L55:
 782 00a2 F8BD     		pop	{r3, r4, r5, r6, r7, pc}
ARM GAS  /tmp/ccaUTvTS.s 			page 15


 783              		.cfi_endproc
 784              	.LFE16:
 785              		.size	chSemAddCounterI, .-chSemAddCounterI
 786 00a4 AFF30080 		.section	.text.chSemSignalWait,"ax",%progbits
 786      AFF30080 
 786      AFF30080 
 787              		.align	2
 788              		.p2align 4,,15
 789              		.global	chSemSignalWait
 790              		.thumb
 791              		.thumb_func
 792              		.type	chSemSignalWait, %function
 793              	chSemSignalWait:
 794              	.LFB17:
 795              		.loc 1 366 0
 796              		.cfi_startproc
 797              		@ args = 0, pretend = 0, frame = 8
 798              		@ frame_needed = 0, uses_anonymous_args = 0
 799              	.LVL65:
 800 0000 10B5     		push	{r4, lr}
 801              	.LCFI8:
 802              		.cfi_def_cfa_offset 8
 803 0002 0246     		mov	r2, r0
 804 0004 82B0     		sub	sp, sp, #8
 805              	.LCFI9:
 806              		.cfi_def_cfa_offset 16
 807              	.LBB63:
 808              		.loc 1 379 0
 809 0006 2023     		movs	r3, #32
 810              	.LVL66:
 811              	@ 379 "../ChibiOS_2.6.2/os/kernel/src/chsem.c" 1
 812 0008 83F31188 		msr     BASEPRI, r3
 813              	@ 0 "" 2
 814              	.LVL67:
 815              		.thumb
 816              	.LBE63:
 817              		.loc 1 380 0
 818 000c 8068     		ldr	r0, [r0, #8]
 819              	.LVL68:
 820 000e 431C     		adds	r3, r0, #1
 821              	.LVL69:
 822 0010 002B     		cmp	r3, #0
 823 0012 9360     		str	r3, [r2, #8]
 824 0014 1CDD     		ble	.L60
 825              		.cfi_offset 14, -4
 826              		.cfi_offset 4, -8
 827              	.LVL70:
 828              	.L57:
 829              		.loc 1 382 0
 830 0016 8868     		ldr	r0, [r1, #8]
 831 0018 421E     		subs	r2, r0, #1
 832 001a 002A     		cmp	r2, #0
 833 001c 8A60     		str	r2, [r1, #8]
 834 001e 07DB     		blt	.L61
 835              		.loc 1 390 0
 836 0020 FFF7FEFF 		bl	chSchRescheduleS
 837              	.LVL71:
ARM GAS  /tmp/ccaUTvTS.s 			page 16


 838              		.loc 1 391 0
 839 0024 0020     		movs	r0, #0
 840              	.LVL72:
 841              	.L59:
 842              	.LBB64:
 843              		.loc 1 393 0
 844 0026 0023     		movs	r3, #0
 845              	.LVL73:
 846              	@ 393 "../ChibiOS_2.6.2/os/kernel/src/chsem.c" 1
 847 0028 83F31188 		msr     BASEPRI, r3
 848              	@ 0 "" 2
 849              	.LVL74:
 850              		.thumb
 851              	.LBE64:
 852              		.loc 1 395 0
 853 002c 02B0     		add	sp, sp, #8
 854 002e 10BD     		pop	{r4, pc}
 855              	.LVL75:
 856              	.L61:
 857              	.LBB65:
 858              		.loc 1 383 0
 859 0030 40F20004 		movw	r4, #:lower16:rlist
 860 0034 C0F20004 		movt	r4, #:upper16:rlist
 861              	.LBB66:
 862              	.LBB67:
 863              		.loc 2 55 0
 864 0038 4B68     		ldr	r3, [r1, #4]
 865              	.LBE67:
 866              	.LBE66:
 867              		.loc 1 383 0
 868 003a A469     		ldr	r4, [r4, #24]
 869              	.LVL76:
 870              		.loc 1 386 0
 871 003c 0320     		movs	r0, #3
 872              	.LBB69:
 873              	.LBB68:
 874              		.loc 2 54 0
 875 003e 2160     		str	r1, [r4, #0]
 876              		.loc 2 55 0
 877 0040 6360     		str	r3, [r4, #4]
 878              		.loc 2 56 0
 879 0042 4C60     		str	r4, [r1, #4]
 880 0044 1C60     		str	r4, [r3, #0]
 881              	.LBE68:
 882              	.LBE69:
 883              		.loc 1 385 0
 884 0046 6162     		str	r1, [r4, #36]
 885              		.loc 1 386 0
 886 0048 FFF7FEFF 		bl	chSchGoSleepS
 887              	.LVL77:
 888              		.loc 1 387 0
 889 004c 606A     		ldr	r0, [r4, #36]
 890              	.LVL78:
 891 004e EAE7     		b	.L59
 892              	.LVL79:
 893              	.L60:
 894              	.LBE65:
ARM GAS  /tmp/ccaUTvTS.s 			page 17


 895              	.LBB70:
 896              	.LBB71:
 897              		.loc 2 60 0
 898 0050 1068     		ldr	r0, [r2, #0]
 899              	.LVL80:
 900              		.loc 2 62 0
 901 0052 0368     		ldr	r3, [r0, #0]
 902 0054 1360     		str	r3, [r2, #0]
 903 0056 5A60     		str	r2, [r3, #4]
 904              	.LBE71:
 905              	.LBE70:
 906              		.loc 1 381 0
 907 0058 0191     		str	r1, [sp, #4]
 908 005a FFF7FEFF 		bl	chSchReadyI
 909              	.LVL81:
 910 005e 0021     		movs	r1, #0
 911 0060 4162     		str	r1, [r0, #36]
 912 0062 0199     		ldr	r1, [sp, #4]
 913 0064 D7E7     		b	.L57
 914              		.cfi_endproc
 915              	.LFE17:
 916              		.size	chSemSignalWait, .-chSemSignalWait
 917 0066 00BFAFF3 		.text
 917      0080AFF3 
 917      0080
 918              	.Letext0: