ARM GAS  /tmp/cccZdfap.s 			page 1


   1              		.syntax unified
   2              		.cpu cortex-m4
   3              		.fpu softvfp
   4              		.eabi_attribute 20, 1
   5              		.eabi_attribute 21, 1
   6              		.eabi_attribute 23, 3
   7              		.eabi_attribute 24, 1
   8              		.eabi_attribute 25, 1
   9              		.eabi_attribute 26, 1
  10              		.eabi_attribute 30, 2
  11              		.eabi_attribute 18, 4
  12              		.thumb
  13              		.file	"chsys.c"
  20 0000 C8010000 		.text
  20      02006F01 
  20      00000201 
  20      FB0E0D00 
  20      01010101 
  21              	.Ltext0:
  22              		.cfi_sections	.debug_frame
  23              		.section	.text._idle_thread,"ax",%progbits
  24              		.align	2
  25              		.p2align 4,,15
  26              		.global	_idle_thread
  27              		.thumb
  28              		.thumb_func
  29              		.type	_idle_thread, %function
  30              	_idle_thread:
  31              	.LFB7:
  32              		.file 1 "../ChibiOS_2.6.2/os/kernel/src/chsys.c"
  33              		.loc 1 61 0
  34              		.cfi_startproc
  35              		@ args = 0, pretend = 0, frame = 0
  36              		@ frame_needed = 0, uses_anonymous_args = 0
  37              		@ link register save eliminated.
  38              	.LVL0:
  39              		.loc 1 64 0
  40 0000 40F20000 		movw	r0, #:lower16:rlist
  41              	.LVL1:
  42 0004 C0F20000 		movt	r0, #:upper16:rlist
  43 0008 40F20003 		movw	r3, #:lower16:.LC0
  44 000c 8269     		ldr	r2, [r0, #24]
  45 000e C0F20003 		movt	r3, #:upper16:.LC0
  46 0012 9361     		str	r3, [r2, #24]
  47              	.L2:
  48 0014 FEE7     		b	.L2
  49              		.cfi_endproc
  50              	.LFE7:
  51              		.size	_idle_thread, .-_idle_thread
  52 0016 00BFAFF3 		.section	.text.chSysInit,"ax",%progbits
  52      0080AFF3 
ARM GAS  /tmp/cccZdfap.s 			page 2


  52      0080
  53              		.align	2
  54              		.p2align 4,,15
  55              		.global	chSysInit
  56              		.thumb
  57              		.thumb_func
  58              		.type	chSysInit, %function
  59              	chSysInit:
  60              	.LFB8:
  61              		.loc 1 84 0
  62              		.cfi_startproc
  63              		@ args = 0, pretend = 0, frame = 0
  64              		@ frame_needed = 0, uses_anonymous_args = 0
  65 0000 30B5     		push	{r4, r5, lr}
  66              	.LCFI0:
  67              		.cfi_def_cfa_offset 12
  68 0002 83B0     		sub	sp, sp, #12
  69              	.LCFI1:
  70              		.cfi_def_cfa_offset 24
  71              		.loc 1 90 0
  72              		.cfi_offset 14, -4
  73              		.cfi_offset 5, -8
  74              		.cfi_offset 4, -12
  75 0004 FFF7FEFF 		bl	_port_init
  76              		.loc 1 91 0
  77 0008 FFF7FEFF 		bl	_scheduler_init
  78              		.loc 1 92 0
  79 000c FFF7FEFF 		bl	_vt_init
  80              		.loc 1 94 0
  81 0010 FFF7FEFF 		bl	_core_init
  82              		.loc 1 97 0
  83 0014 FFF7FEFF 		bl	_heap_init
  84              		.loc 1 104 0
  85 0018 40F20000 		movw	r0, #:lower16:.LANCHOR0
  86 001c 4021     		movs	r1, #64
  87 001e C0F20000 		movt	r0, #:upper16:.LANCHOR0
  88 0022 FFF7FEFF 		bl	_thread_init
  89 0026 40F20004 		movw	r4, #:lower16:rlist
  90 002a C0F20004 		movt	r4, #:upper16:rlist
  91              		.loc 1 105 0
  92 002e 0122     		movs	r2, #1
  93              		.loc 1 104 0
  94 0030 A061     		str	r0, [r4, #24]
  95              		.loc 1 105 0
  96 0032 0277     		strb	r2, [r0, #28]
  97              	.LBB2:
  98              		.loc 1 111 0
  99 0034 0023     		movs	r3, #0
 100              	.LVL2:
 101              	@ 111 "../ChibiOS_2.6.2/os/kernel/src/chsys.c" 1
 102 0036 83F31188 		msr     BASEPRI, r3                    
 103 003a 62B6     		cpsie   i
 104              	@ 0 "" 2
 105              	.LVL3:
 106              		.thumb
 107              	.LBE2:
 108              		.loc 1 115 0
ARM GAS  /tmp/cccZdfap.s 			page 3


 109 003c 40F20001 		movw	r1, #:lower16:ch_debug
 110 0040 A569     		ldr	r5, [r4, #24]
 111 0042 C0F20001 		movt	r1, #:upper16:ch_debug
 112              		.loc 1 121 0
 113 0046 1C46     		mov	r4, r3
 114 0048 40F20000 		movw	r0, #:lower16:.LANCHOR1
 115 004c 40F20003 		movw	r3, #:lower16:_idle_thread
 116              	.LVL4:
 117              		.loc 1 115 0
 118 0050 A961     		str	r1, [r5, #24]
 119              		.loc 1 121 0
 120 0052 C0F20003 		movt	r3, #:upper16:_idle_thread
 121 0056 C021     		movs	r1, #192
 122 0058 C0F20000 		movt	r0, #:upper16:.LANCHOR1
 123 005c 0094     		str	r4, [sp, #0]
 124              	.LVL5:
 125 005e FFF7FEFF 		bl	chThdCreateStatic
 126              		.loc 1 124 0
 127 0062 03B0     		add	sp, sp, #12
 128 0064 30BD     		pop	{r4, r5, pc}
 129              		.cfi_endproc
 130              	.LFE8:
 131              		.size	chSysInit, .-chSysInit
 132 0066 00BFAFF3 		.section	.text.chSysTimerHandlerI,"ax",%progbits
 132      0080AFF3 
 132      0080
 133              		.align	2
 134              		.p2align 4,,15
 135              		.global	chSysTimerHandlerI
 136              		.thumb
 137              		.thumb_func
 138              		.type	chSysTimerHandlerI, %function
 139              	chSysTimerHandlerI:
 140              	.LFB9:
 141              		.loc 1 137 0
 142              		.cfi_startproc
 143              		@ args = 0, pretend = 0, frame = 0
 144              		@ frame_needed = 0, uses_anonymous_args = 0
 145 0000 70B5     		push	{r4, r5, r6, lr}
 146              	.LCFI2:
 147              		.cfi_def_cfa_offset 16
 148              		.loc 1 143 0
 149 0002 40F20003 		movw	r3, #:lower16:rlist
 150 0006 C0F20003 		movt	r3, #:upper16:rlist
 151 000a 9B69     		ldr	r3, [r3, #24]
 152 000c DA7F     		ldrb	r2, [r3, #31]	@ zero_extendqisi2
 153 000e 0AB1     		cbz	r2, .L6
 154              		.cfi_offset 14, -4
 155              		.cfi_offset 6, -8
 156              		.cfi_offset 5, -12
 157              		.cfi_offset 4, -16
 158              		.loc 1 145 0
 159 0010 013A     		subs	r2, r2, #1
 160 0012 DA77     		strb	r2, [r3, #31]
 161              	.L6:
 162              		.loc 1 148 0
 163 0014 1A6A     		ldr	r2, [r3, #32]
ARM GAS  /tmp/cccZdfap.s 			page 4


 164              		.loc 1 150 0
 165 0016 40F20004 		movw	r4, #:lower16:vtlist
 166 001a C0F20004 		movt	r4, #:upper16:vtlist
 167              		.loc 1 148 0
 168 001e 511C     		adds	r1, r2, #1
 169 0020 1962     		str	r1, [r3, #32]
 170              		.loc 1 150 0
 171 0022 E368     		ldr	r3, [r4, #12]
 172 0024 2168     		ldr	r1, [r4, #0]
 173 0026 581C     		adds	r0, r3, #1
 174 0028 A142     		cmp	r1, r4
 175 002a E060     		str	r0, [r4, #12]
 176 002c 15D0     		beq	.L5
 177              	.LBB3:
 178              		.loc 1 150 0 is_stmt 0 discriminator 1
 179 002e 8D68     		ldr	r5, [r1, #8]
 180 0030 013D     		subs	r5, r5, #1
 181 0032 8D60     		str	r5, [r1, #8]
 182              	.LVL6:
 183 0034 8DB9     		cbnz	r5, .L5
 184              		.loc 1 150 0
 185 0036 2646     		mov	r6, r4
 186              	.LVL7:
 187              	.L8:
 188              	.LBB4:
 189              		.loc 1 150 0 discriminator 3
 190 0038 0B68     		ldr	r3, [r1, #0]
 191              	.LVL8:
 192 003a CA68     		ldr	r2, [r1, #12]
 193              	.LVL9:
 194 003c 5E60     		str	r6, [r3, #4]
 195 003e 2360     		str	r3, [r4, #0]
 196 0040 CD60     		str	r5, [r1, #12]
 197              	.LBB5:
 198 0042 2B46     		mov	r3, r5
 199              	.LVL10:
 200              	@ 150 "../ChibiOS_2.6.2/os/kernel/src/chsys.c" 1
 201 0044 83F31188 		msr     BASEPRI, r3
 202              	@ 0 "" 2
 203              	.LVL11:
 204              		.thumb
 205              	.LBE5:
 206 0048 0869     		ldr	r0, [r1, #16]
 207 004a 9047     		blx	r2
 208              	.LVL12:
 209              	.LBB6:
 210 004c 2023     		movs	r3, #32
 211              	@ 150 "../ChibiOS_2.6.2/os/kernel/src/chsys.c" 1
 212 004e 83F31188 		msr     BASEPRI, r3
 213              	@ 0 "" 2
 214              	.LVL13:
 215              		.thumb
 216              	.LBE6:
 217              	.LBE4:
 218 0052 2168     		ldr	r1, [r4, #0]
 219              	.LVL14:
 220 0054 8868     		ldr	r0, [r1, #8]
ARM GAS  /tmp/cccZdfap.s 			page 5


 221 0056 0028     		cmp	r0, #0
 222 0058 EED0     		beq	.L8
 223              	.LVL15:
 224              	.L5:
 225 005a 70BD     		pop	{r4, r5, r6, pc}
 226              	.LBE3:
 227              		.cfi_endproc
 228              	.LFE9:
 229              		.size	chSysTimerHandlerI, .-chSysTimerHandlerI
 230              		.global	_idle_thread_wa
 231 005c AFF30080 		.section	.bss.mainthread.1982,"aw",%nobits
 232              		.align	2
 233              		.set	.LANCHOR0,. + 0
 234              		.type	mainthread.1982, %object
 235              		.size	mainthread.1982, 72
 236              	mainthread.1982:
 237 0000 00000000 		.space	72
 237      00000000 
 237      00000000 
 237      00000000 
 237      00000000 
 238              		.section	.rodata.str1.4,"aMS",%progbits,1
 239              		.align	2
 240              	.LC0:
 241 0000 69646C65 		.ascii	"idle\000"
 241      00
 242 0005 000000   		.section	.bss._idle_thread_wa,"aw",%nobits
 243              		.align	3
 244              		.set	.LANCHOR1,. + 0
 245              		.type	_idle_thread_wa, %object
 246              		.size	_idle_thread_wa, 192
 247              	_idle_thread_wa:
 248 0000 00000000 		.space	192
 248      00000000 
 248      00000000 
 248      00000000 
 248      00000000 
 249              		.text
 250              	.Letext0: