ARM GAS  /tmp/cc46yabI.s 			page 1


   1              		.syntax unified
   2              		.cpu cortex-m4
   3              		.fpu softvfp
   4              		.eabi_attribute 20, 1
   5              		.eabi_attribute 21, 1
   6              		.eabi_attribute 23, 3
   7              		.eabi_attribute 24, 1
   8              		.eabi_attribute 25, 1
   9              		.eabi_attribute 26, 1
  10              		.eabi_attribute 30, 2
  11              		.eabi_attribute 18, 4
  12              		.thumb
  13              		.file	"chthreads.c"
  20 0000 83030000 		.text
  20      0200C701 
  20      00000201 
  20      FB0E0D00 
  20      01010101 
  21              	.Ltext0:
  22              		.cfi_sections	.debug_frame
  23              		.section	.text._thread_init,"ax",%progbits
  24              		.align	2
  25              		.p2align 4,,15
  26              		.global	_thread_init
  27              		.thumb
  28              		.thumb_func
  29              		.type	_thread_init, %function
  30              	_thread_init:
  31              	.LFB7:
  32              		.file 1 "../ChibiOS_2.6.2/os/kernel/src/chthreads.c"
  33              		.loc 1 76 0
  34              		.cfi_startproc
  35              		@ args = 0, pretend = 0, frame = 0
  36              		@ frame_needed = 0, uses_anonymous_args = 0
  37              		@ link register save eliminated.
  38              	.LVL0:
  39 0000 F0B4     		push	{r4, r5, r6, r7}
  40              	.LCFI0:
  41              		.cfi_def_cfa_offset 16
  42              		.loc 1 99 0
  43 0002 40F20004 		movw	r4, #:lower16:rlist
  44              		.cfi_offset 7, -4
  45              		.cfi_offset 6, -8
  46              		.cfi_offset 5, -12
  47              		.cfi_offset 4, -16
  48              		.loc 1 80 0
  49 0006 0022     		movs	r2, #0
  50              		.loc 1 99 0
  51 0008 C0F20004 		movt	r4, #:upper16:rlist
  52              		.loc 1 79 0
  53 000c 0227     		movs	r7, #2
ARM GAS  /tmp/cc46yabI.s 			page 2


  54              		.loc 1 82 0
  55 000e 1426     		movs	r6, #20
  56              		.loc 1 95 0
  57 0010 0125     		movs	r5, #1
  58              		.loc 1 79 0
  59 0012 0777     		strb	r7, [r0, #28]
  60              		.loc 1 82 0
  61 0014 C677     		strb	r6, [r0, #31]
  62              		.loc 1 80 0
  63 0016 4277     		strb	r2, [r0, #29]
  64              		.loc 1 95 0
  65 0018 8577     		strb	r5, [r0, #30]
  66              		.loc 1 99 0
  67 001a 6569     		ldr	r5, [r4, #20]
  68              		.loc 1 85 0
  69 001c 0164     		str	r1, [r0, #64]
  70              		.loc 1 105 0
  71 001e 00F12C06 		add	r6, r0, #44
  72              		.loc 1 102 0
  73 0022 00F12807 		add	r7, r0, #40
  74              		.loc 1 99 0
  75 0026 0461     		str	r4, [r0, #16]
  76              		.loc 1 78 0
  77 0028 8160     		str	r1, [r0, #8]
  78              		.loc 1 99 0
  79 002a 4561     		str	r5, [r0, #20]
  80              		.loc 1 86 0
  81 002c C263     		str	r2, [r0, #60]
  82              		.loc 1 99 0
  83 002e 6061     		str	r0, [r4, #20]
  84              		.loc 1 89 0
  85 0030 8263     		str	r2, [r0, #56]
  86              		.loc 1 92 0
  87 0032 0262     		str	r2, [r0, #32]
  88              		.loc 1 98 0
  89 0034 8261     		str	r2, [r0, #24]
  90              		.loc 1 99 0
  91 0036 2861     		str	r0, [r5, #16]
  92              		.loc 1 102 0
  93 0038 8762     		str	r7, [r0, #40]
  94              		.loc 1 105 0
  95 003a 0663     		str	r6, [r0, #48]
  96 003c C662     		str	r6, [r0, #44]
  97              		.loc 1 114 0
  98 003e F0BC     		pop	{r4, r5, r6, r7}
  99 0040 7047     		bx	lr
 100              		.cfi_endproc
 101              	.LFE7:
 102              		.size	_thread_init, .-_thread_init
 103 0042 00BFAFF3 		.section	.text.chThdCreateI,"ax",%progbits
 103      0080AFF3 
 103      0080AFF3 
 103      0080
 104              		.align	2
 105              		.p2align 4,,15
 106              		.global	chThdCreateI
 107              		.thumb
ARM GAS  /tmp/cc46yabI.s 			page 3


 108              		.thumb_func
 109              		.type	chThdCreateI, %function
 110              	chThdCreateI:
 111              	.LFB8:
 112              		.loc 1 158 0
 113              		.cfi_startproc
 114              		@ args = 4, pretend = 0, frame = 0
 115              		@ frame_needed = 0, uses_anonymous_args = 0
 116              		@ link register save eliminated.
 117              	.LVL1:
 118              		.loc 1 167 0
 119 0000 A1F1240C 		sub	ip, r1, #36
 120              		.loc 1 158 0
 121 0004 F0B4     		push	{r4, r5, r6, r7}
 122              	.LCFI1:
 123              		.cfi_def_cfa_offset 16
 124              		.loc 1 167 0
 125 0006 00EB0C07 		add	r7, r0, ip
 126              		.cfi_offset 7, -4
 127              		.cfi_offset 6, -8
 128              		.cfi_offset 5, -12
 129              		.cfi_offset 4, -16
 130 000a C760     		str	r7, [r0, #12]
 131 000c 40F20001 		movw	r1, #:lower16:_port_thread_start
 132              	.LVL2:
 133 0010 40F80C30 		str	r3, [r0, ip]
 134 0014 049B     		ldr	r3, [sp, #16]
 135              	.LVL3:
 136 0016 C0F20001 		movt	r1, #:upper16:_port_thread_start
 137              	.LBB10:
 138              	.LBB12:
 139              		.loc 1 99 0
 140 001a 40F20006 		movw	r6, #:lower16:rlist
 141              	.LBE12:
 142              	.LBE10:
 143              		.loc 1 167 0
 144 001e 7B60     		str	r3, [r7, #4]
 145 0020 3962     		str	r1, [r7, #32]
 146              	.LBB14:
 147              	.LBB11:
 148              		.loc 1 80 0
 149 0022 0025     		movs	r5, #0
 150              		.loc 1 99 0
 151 0024 C0F20006 		movt	r6, #:upper16:rlist
 152              		.loc 1 79 0
 153 0028 0223     		movs	r3, #2
 154              		.loc 1 82 0
 155 002a 1421     		movs	r1, #20
 156              		.loc 1 95 0
 157 002c 0127     		movs	r7, #1
 158              	.LVL4:
 159              		.loc 1 82 0
 160 002e C177     		strb	r1, [r0, #31]
 161              		.loc 1 95 0
 162 0030 8777     		strb	r7, [r0, #30]
 163              		.loc 1 79 0
 164 0032 0377     		strb	r3, [r0, #28]
ARM GAS  /tmp/cc46yabI.s 			page 4


 165              		.loc 1 80 0
 166 0034 4577     		strb	r5, [r0, #29]
 167              		.loc 1 99 0
 168 0036 7369     		ldr	r3, [r6, #20]
 169              		.loc 1 85 0
 170 0038 0264     		str	r2, [r0, #64]
 171              		.loc 1 105 0
 172 003a 00F12C01 		add	r1, r0, #44
 173              		.loc 1 102 0
 174 003e 00F12807 		add	r7, r0, #40
 175              		.loc 1 99 0
 176 0042 0661     		str	r6, [r0, #16]
 177              		.loc 1 78 0
 178 0044 8260     		str	r2, [r0, #8]
 179              		.loc 1 99 0
 180 0046 4361     		str	r3, [r0, #20]
 181              	.LBE11:
 182              	.LBE14:
 183              		.loc 1 158 0
 184 0048 0446     		mov	r4, r0
 185              	.LVL5:
 186              	.LBB15:
 187              	.LBB13:
 188              		.loc 1 99 0
 189 004a 7061     		str	r0, [r6, #20]
 190              		.loc 1 86 0
 191 004c C563     		str	r5, [r0, #60]
 192              		.loc 1 89 0
 193 004e 8563     		str	r5, [r0, #56]
 194              		.loc 1 92 0
 195 0050 0562     		str	r5, [r0, #32]
 196              		.loc 1 98 0
 197 0052 8561     		str	r5, [r0, #24]
 198              		.loc 1 99 0
 199 0054 1861     		str	r0, [r3, #16]
 200              		.loc 1 102 0
 201 0056 8762     		str	r7, [r0, #40]
 202              		.loc 1 105 0
 203 0058 0163     		str	r1, [r0, #48]
 204 005a C162     		str	r1, [r0, #44]
 205              	.LBE13:
 206              	.LBE15:
 207              		.loc 1 169 0
 208 005c F0BC     		pop	{r4, r5, r6, r7}
 209 005e 7047     		bx	lr
 210              		.cfi_endproc
 211              	.LFE8:
 212              		.size	chThdCreateI, .-chThdCreateI
 213              		.section	.text.chThdCreateStatic,"ax",%progbits
 214              		.align	2
 215              		.p2align 4,,15
 216              		.global	chThdCreateStatic
 217              		.thumb
 218              		.thumb_func
 219              		.type	chThdCreateStatic, %function
 220              	chThdCreateStatic:
 221              	.LFB9:
ARM GAS  /tmp/cc46yabI.s 			page 5


 222              		.loc 1 188 0
 223              		.cfi_startproc
 224              		@ args = 4, pretend = 0, frame = 0
 225              		@ frame_needed = 0, uses_anonymous_args = 0
 226              	.LVL6:
 227 0000 10B5     		push	{r4, lr}
 228              	.LCFI2:
 229              		.cfi_def_cfa_offset 8
 230 0002 9C46     		mov	ip, r3
 231 0004 82B0     		sub	sp, sp, #8
 232              	.LCFI3:
 233              		.cfi_def_cfa_offset 16
 234              	.LBB16:
 235              		.loc 1 199 0
 236 0006 2023     		movs	r3, #32
 237              	.LVL7:
 238              	@ 199 "../ChibiOS_2.6.2/os/kernel/src/chthreads.c" 1
 239 0008 83F31188 		msr     BASEPRI, r3
 240              	@ 0 "" 2
 241              	.LVL8:
 242              		.thumb
 243              	.LBE16:
 244              		.loc 1 200 0
 245 000c 049C     		ldr	r4, [sp, #16]
 246              		.cfi_offset 14, -4
 247              		.cfi_offset 4, -8
 248 000e 6346     		mov	r3, ip
 249              	.LVL9:
 250 0010 0094     		str	r4, [sp, #0]
 251 0012 FFF7FEFF 		bl	chThdCreateI
 252              	.LVL10:
 253 0016 0021     		movs	r1, #0
 254 0018 0446     		mov	r4, r0
 255              	.LVL11:
 256 001a FFF7FEFF 		bl	chSchWakeupS
 257              	.LVL12:
 258              	.LBB17:
 259              		.loc 1 201 0
 260 001e 0023     		movs	r3, #0
 261              	.LVL13:
 262              	@ 201 "../ChibiOS_2.6.2/os/kernel/src/chthreads.c" 1
 263 0020 83F31188 		msr     BASEPRI, r3
 264              	@ 0 "" 2
 265              	.LVL14:
 266              		.thumb
 267              	.LBE17:
 268              		.loc 1 203 0
 269 0024 2046     		mov	r0, r4
 270 0026 02B0     		add	sp, sp, #8
 271 0028 10BD     		pop	{r4, pc}
 272              		.cfi_endproc
 273              	.LFE9:
 274              		.size	chThdCreateStatic, .-chThdCreateStatic
 275 002a 00BFAFF3 		.section	.text.chThdSetPriority,"ax",%progbits
 275      0080
 276              		.align	2
 277              		.p2align 4,,15
ARM GAS  /tmp/cc46yabI.s 			page 6


 278              		.global	chThdSetPriority
 279              		.thumb
 280              		.thumb_func
 281              		.type	chThdSetPriority, %function
 282              	chThdSetPriority:
 283              	.LFB10:
 284              		.loc 1 217 0
 285              		.cfi_startproc
 286              		@ args = 0, pretend = 0, frame = 0
 287              		@ frame_needed = 0, uses_anonymous_args = 0
 288              	.LVL15:
 289 0000 10B5     		push	{r4, lr}
 290              	.LCFI4:
 291              		.cfi_def_cfa_offset 8
 292              	.LBB18:
 293              		.loc 1 222 0
 294 0002 2023     		movs	r3, #32
 295              	.LVL16:
 296              	@ 222 "../ChibiOS_2.6.2/os/kernel/src/chthreads.c" 1
 297 0004 83F31188 		msr     BASEPRI, r3
 298              	@ 0 "" 2
 299              	.LVL17:
 300              		.thumb
 301              	.LBE18:
 302              		.loc 1 224 0
 303 0008 40F20003 		movw	r3, #:lower16:rlist
 304              	.LVL18:
 305 000c C0F20003 		movt	r3, #:upper16:rlist
 306 0010 9B69     		ldr	r3, [r3, #24]
 307 0012 1C6C     		ldr	r4, [r3, #64]
 308              		.cfi_offset 14, -4
 309              		.cfi_offset 4, -8
 310              	.LVL19:
 311              		.loc 1 225 0
 312 0014 9A68     		ldr	r2, [r3, #8]
 313 0016 9442     		cmp	r4, r2
 314 0018 01D0     		beq	.L5
 315              		.loc 1 225 0 is_stmt 0 discriminator 1
 316 001a 8242     		cmp	r2, r0
 317 001c 00D2     		bcs	.L6
 318              	.L5:
 319              		.loc 1 226 0 is_stmt 1
 320 001e 9860     		str	r0, [r3, #8]
 321              	.L6:
 322              		.loc 1 227 0
 323 0020 1864     		str	r0, [r3, #64]
 324              		.loc 1 232 0
 325 0022 FFF7FEFF 		bl	chSchRescheduleS
 326              	.LVL20:
 327              	.LBB19:
 328              		.loc 1 233 0
 329 0026 0023     		movs	r3, #0
 330              	.LVL21:
 331              	@ 233 "../ChibiOS_2.6.2/os/kernel/src/chthreads.c" 1
 332 0028 83F31188 		msr     BASEPRI, r3
 333              	@ 0 "" 2
 334              	.LVL22:
ARM GAS  /tmp/cc46yabI.s 			page 7


 335              		.thumb
 336              	.LBE19:
 337              		.loc 1 235 0
 338 002c 2046     		mov	r0, r4
 339 002e 10BD     		pop	{r4, pc}
 340              		.cfi_endproc
 341              	.LFE10:
 342              		.size	chThdSetPriority, .-chThdSetPriority
 343              		.section	.text.chThdResume,"ax",%progbits
 344              		.align	2
 345              		.p2align 4,,15
 346              		.global	chThdResume
 347              		.thumb
 348              		.thumb_func
 349              		.type	chThdResume, %function
 350              	chThdResume:
 351              	.LFB11:
 352              		.loc 1 250 0
 353              		.cfi_startproc
 354              		@ args = 0, pretend = 0, frame = 0
 355              		@ frame_needed = 0, uses_anonymous_args = 0
 356              	.LVL23:
 357 0000 10B5     		push	{r4, lr}
 358              	.LCFI5:
 359              		.cfi_def_cfa_offset 8
 360              	.LBB20:
 361              		.loc 1 252 0
 362 0002 2023     		movs	r3, #32
 363              	.LVL24:
 364              	.LBE20:
 365              		.loc 1 250 0
 366 0004 0446     		mov	r4, r0
 367              		.cfi_offset 14, -4
 368              		.cfi_offset 4, -8
 369              	.LBB21:
 370              		.loc 1 252 0
 371              	@ 252 "../ChibiOS_2.6.2/os/kernel/src/chthreads.c" 1
 372 0006 83F31188 		msr     BASEPRI, r3
 373              	@ 0 "" 2
 374              	.LVL25:
 375              		.thumb
 376              	.LBE21:
 377              		.loc 1 256 0
 378 000a 0021     		movs	r1, #0
 379 000c FFF7FEFF 		bl	chSchWakeupS
 380              	.LVL26:
 381              	.LBB22:
 382              		.loc 1 257 0
 383 0010 0023     		movs	r3, #0
 384              	.LVL27:
 385              	@ 257 "../ChibiOS_2.6.2/os/kernel/src/chthreads.c" 1
 386 0012 83F31188 		msr     BASEPRI, r3
 387              	@ 0 "" 2
 388              	.LVL28:
 389              		.thumb
 390              	.LBE22:
 391              		.loc 1 259 0
ARM GAS  /tmp/cc46yabI.s 			page 8


 392 0016 2046     		mov	r0, r4
 393 0018 10BD     		pop	{r4, pc}
 394              		.cfi_endproc
 395              	.LFE11:
 396              		.size	chThdResume, .-chThdResume
 397 001a 00BFAFF3 		.section	.text.chThdTerminate,"ax",%progbits
 397      0080
 398              		.align	2
 399              		.p2align 4,,15
 400              		.global	chThdTerminate
 401              		.thumb
 402              		.thumb_func
 403              		.type	chThdTerminate, %function
 404              	chThdTerminate:
 405              	.LFB12:
 406              		.loc 1 273 0
 407              		.cfi_startproc
 408              		@ args = 0, pretend = 0, frame = 0
 409              		@ frame_needed = 0, uses_anonymous_args = 0
 410              		@ link register save eliminated.
 411              	.LVL29:
 412              	.LBB23:
 413              		.loc 1 275 0
 414 0000 2023     		movs	r3, #32
 415              	.LVL30:
 416              	@ 275 "../ChibiOS_2.6.2/os/kernel/src/chthreads.c" 1
 417 0002 83F31188 		msr     BASEPRI, r3
 418              	@ 0 "" 2
 419              	.LVL31:
 420              		.thumb
 421              	.LBE23:
 422              		.loc 1 276 0
 423 0006 417F     		ldrb	r1, [r0, #29]	@ zero_extendqisi2
 424 0008 41F00403 		orr	r3, r1, #4
 425              	.LVL32:
 426 000c 4377     		strb	r3, [r0, #29]
 427              	.LBB24:
 428              		.loc 1 277 0
 429 000e 0023     		movs	r3, #0
 430              	.LVL33:
 431              	@ 277 "../ChibiOS_2.6.2/os/kernel/src/chthreads.c" 1
 432 0010 83F31188 		msr     BASEPRI, r3
 433              	@ 0 "" 2
 434              	.LVL34:
 435              		.thumb
 436              	.LBE24:
 437              		.loc 1 278 0
 438 0014 7047     		bx	lr
 439              		.cfi_endproc
 440              	.LFE12:
 441              		.size	chThdTerminate, .-chThdTerminate
 442 0016 00BFAFF3 		.section	.text.chThdSleep,"ax",%progbits
 442      0080AFF3 
 442      0080
 443              		.align	2
 444              		.p2align 4,,15
 445              		.global	chThdSleep
ARM GAS  /tmp/cc46yabI.s 			page 9


 446              		.thumb
 447              		.thumb_func
 448              		.type	chThdSleep, %function
 449              	chThdSleep:
 450              	.LFB13:
 451              		.loc 1 292 0
 452              		.cfi_startproc
 453              		@ args = 0, pretend = 0, frame = 0
 454              		@ frame_needed = 0, uses_anonymous_args = 0
 455              	.LVL35:
 456 0000 08B5     		push	{r3, lr}
 457              	.LCFI6:
 458              		.cfi_def_cfa_offset 8
 459              		.loc 1 292 0
 460 0002 0146     		mov	r1, r0
 461              	.LBB25:
 462              		.loc 1 296 0
 463 0004 2023     		movs	r3, #32
 464              		.cfi_offset 14, -4
 465              		.cfi_offset 3, -8
 466              	.LVL36:
 467              	@ 296 "../ChibiOS_2.6.2/os/kernel/src/chthreads.c" 1
 468 0006 83F31188 		msr     BASEPRI, r3
 469              	@ 0 "" 2
 470              	.LVL37:
 471              		.thumb
 472              	.LBE25:
 473              		.loc 1 297 0
 474 000a 0620     		movs	r0, #6
 475              	.LVL38:
 476 000c FFF7FEFF 		bl	chSchGoSleepTimeoutS
 477              	.LVL39:
 478              	.LBB26:
 479              		.loc 1 298 0
 480 0010 0023     		movs	r3, #0
 481              	.LVL40:
 482              	@ 298 "../ChibiOS_2.6.2/os/kernel/src/chthreads.c" 1
 483 0012 83F31188 		msr     BASEPRI, r3
 484              	@ 0 "" 2
 485              	.LVL41:
 486              		.thumb
 487              	.LBE26:
 488              		.loc 1 299 0
 489 0016 08BD     		pop	{r3, pc}
 490              		.cfi_endproc
 491              	.LFE13:
 492              		.size	chThdSleep, .-chThdSleep
 493 0018 AFF30080 		.section	.text.chThdSleepUntil,"ax",%progbits
 493      AFF30080 
 494              		.align	2
 495              		.p2align 4,,15
 496              		.global	chThdSleepUntil
 497              		.thumb
 498              		.thumb_func
 499              		.type	chThdSleepUntil, %function
 500              	chThdSleepUntil:
 501              	.LFB14:
ARM GAS  /tmp/cc46yabI.s 			page 10


 502              		.loc 1 309 0
 503              		.cfi_startproc
 504              		@ args = 0, pretend = 0, frame = 0
 505              		@ frame_needed = 0, uses_anonymous_args = 0
 506              	.LVL42:
 507 0000 08B5     		push	{r3, lr}
 508              	.LCFI7:
 509              		.cfi_def_cfa_offset 8
 510              	.LBB27:
 511              		.loc 1 311 0
 512 0002 2023     		movs	r3, #32
 513              		.cfi_offset 14, -4
 514              		.cfi_offset 3, -8
 515              	.LVL43:
 516              	@ 311 "../ChibiOS_2.6.2/os/kernel/src/chthreads.c" 1
 517 0004 83F31188 		msr     BASEPRI, r3
 518              	@ 0 "" 2
 519              	.LVL44:
 520              		.thumb
 521              	.LBE27:
 522              		.loc 1 312 0
 523 0008 40F20003 		movw	r3, #:lower16:vtlist
 524              	.LVL45:
 525 000c C0F20003 		movt	r3, #:upper16:vtlist
 526 0010 D968     		ldr	r1, [r3, #12]
 527              	.LVL46:
 528 0012 411A     		subs	r1, r0, r1
 529              	.LVL47:
 530 0014 02D0     		beq	.L12
 531              		.loc 1 313 0
 532 0016 0620     		movs	r0, #6
 533 0018 FFF7FEFF 		bl	chSchGoSleepTimeoutS
 534              	.LVL48:
 535              	.L12:
 536              	.LBB28:
 537              		.loc 1 314 0
 538 001c 0023     		movs	r3, #0
 539              	.LVL49:
 540              	@ 314 "../ChibiOS_2.6.2/os/kernel/src/chthreads.c" 1
 541 001e 83F31188 		msr     BASEPRI, r3
 542              	@ 0 "" 2
 543              	.LVL50:
 544              		.thumb
 545              	.LBE28:
 546              		.loc 1 315 0
 547 0022 08BD     		pop	{r3, pc}
 548              		.cfi_endproc
 549              	.LFE14:
 550              		.size	chThdSleepUntil, .-chThdSleepUntil
 551 0024 AFF30080 		.section	.text.chThdYield,"ax",%progbits
 551      AFF30080 
 551      AFF30080 
 552              		.align	2
 553              		.p2align 4,,15
 554              		.global	chThdYield
 555              		.thumb
 556              		.thumb_func
ARM GAS  /tmp/cc46yabI.s 			page 11


 557              		.type	chThdYield, %function
 558              	chThdYield:
 559              	.LFB15:
 560              		.loc 1 324 0
 561              		.cfi_startproc
 562              		@ args = 0, pretend = 0, frame = 0
 563              		@ frame_needed = 0, uses_anonymous_args = 0
 564 0000 08B5     		push	{r3, lr}
 565              	.LCFI8:
 566              		.cfi_def_cfa_offset 8
 567              	.LBB29:
 568              		.loc 1 326 0
 569 0002 2023     		movs	r3, #32
 570              		.cfi_offset 14, -4
 571              		.cfi_offset 3, -8
 572              	.LVL51:
 573              	@ 326 "../ChibiOS_2.6.2/os/kernel/src/chthreads.c" 1
 574 0004 83F31188 		msr     BASEPRI, r3
 575              	@ 0 "" 2
 576              	.LVL52:
 577              		.thumb
 578              	.LBE29:
 579              		.loc 1 327 0
 580 0008 40F2000C 		movw	ip, #:lower16:rlist
 581 000c C0F2000C 		movt	ip, #:upper16:rlist
 582 0010 DCF80010 		ldr	r1, [ip, #0]
 583 0014 DCF81800 		ldr	r0, [ip, #24]
 584 0018 8A68     		ldr	r2, [r1, #8]
 585 001a 8368     		ldr	r3, [r0, #8]
 586              	.LVL53:
 587 001c 9A42     		cmp	r2, r3
 588 001e 01D3     		bcc	.L14
 589              		.loc 1 327 0 is_stmt 0 discriminator 1
 590 0020 FFF7FEFF 		bl	chSchDoRescheduleBehind
 591              	.L14:
 592              	.LBB30:
 593              		.loc 1 328 0 is_stmt 1
 594 0024 0023     		movs	r3, #0
 595              	.LVL54:
 596              	@ 328 "../ChibiOS_2.6.2/os/kernel/src/chthreads.c" 1
 597 0026 83F31188 		msr     BASEPRI, r3
 598              	@ 0 "" 2
 599              	.LVL55:
 600              		.thumb
 601              	.LBE30:
 602              		.loc 1 329 0
 603 002a 08BD     		pop	{r3, pc}
 604              		.cfi_endproc
 605              	.LFE15:
 606              		.size	chThdYield, .-chThdYield
 607 002c AFF30080 		.section	.text.chThdExitS,"ax",%progbits
 608              		.align	2
 609              		.p2align 4,,15
 610              		.global	chThdExitS
 611              		.thumb
 612              		.thumb_func
 613              		.type	chThdExitS, %function
ARM GAS  /tmp/cc46yabI.s 			page 12


 614              	chThdExitS:
 615              	.LFB17:
 616              		.loc 1 366 0
 617              		.cfi_startproc
 618              		@ args = 0, pretend = 0, frame = 0
 619              		@ frame_needed = 0, uses_anonymous_args = 0
 620              	.LVL56:
 621              		.loc 1 367 0
 622 0000 40F20003 		movw	r3, #:lower16:rlist
 623 0004 C0F20003 		movt	r3, #:upper16:rlist
 624              		.loc 1 366 0
 625 0008 70B5     		push	{r4, r5, r6, lr}
 626              	.LCFI9:
 627              		.cfi_def_cfa_offset 16
 628              		.loc 1 367 0
 629 000a 9C69     		ldr	r4, [r3, #24]
 630              		.cfi_offset 14, -4
 631              		.cfi_offset 6, -8
 632              		.cfi_offset 5, -12
 633              		.cfi_offset 4, -16
 634              	.LVL57:
 635              		.loc 1 374 0
 636 000c 2546     		mov	r5, r4
 637              		.loc 1 369 0
 638 000e 6062     		str	r0, [r4, #36]
 639              		.loc 1 374 0
 640 0010 55F8280F 		ldr	r0, [r5, #40]!
 641              	.LVL58:
 642 0014 A842     		cmp	r0, r5
 643 0016 06D0     		beq	.L16
 644              	.LVL59:
 645              	.L19:
 646              	.LBB31:
 647              	.LBB32:
 648              		.file 2 "../ChibiOS_2.6.2/os/kernel/include/chinline.h"
 649              		.loc 2 89 0
 650 0018 0168     		ldr	r1, [r0, #0]
 651 001a A162     		str	r1, [r4, #40]
 652              	.LBE32:
 653              	.LBE31:
 654              		.loc 1 375 0
 655 001c FFF7FEFF 		bl	chSchReadyI
 656              	.LVL60:
 657              		.loc 1 374 0
 658 0020 A06A     		ldr	r0, [r4, #40]
 659 0022 A842     		cmp	r0, r5
 660 0024 F8D1     		bne	.L19
 661              	.LVL61:
 662              	.L16:
 663              		.loc 1 380 0
 664 0026 607F     		ldrb	r0, [r4, #29]	@ zero_extendqisi2
 665 0028 10F0030F 		tst	r0, #3
 666              		.loc 1 381 0
 667 002c 01BF     		itttt	eq
 668 002e 2269     		ldreq	r2, [r4, #16]
 669 0030 6069     		ldreq	r0, [r4, #20]
 670 0032 0261     		streq	r2, [r0, #16]
ARM GAS  /tmp/cc46yabI.s 			page 13


 671 0034 2269     		ldreq	r2, [r4, #16]
 672 0036 08BF     		it	eq
 673 0038 5061     		streq	r0, [r2, #20]
 674              		.loc 1 383 0
 675 003a 0E20     		movs	r0, #14
 676              		.loc 1 386 0
 677 003c BDE87040 		pop	{r4, r5, r6, lr}
 678              		.loc 1 383 0
 679 0040 FFF7FEBF 		b	chSchGoSleepS
 680              		.cfi_endproc
 681              	.LFE17:
 682              		.size	chThdExitS, .-chThdExitS
 683 0044 AFF30080 		.section	.text.chThdExit,"ax",%progbits
 683      AFF30080 
 683      AFF30080 
 684              		.align	2
 685              		.p2align 4,,15
 686              		.global	chThdExit
 687              		.thumb
 688              		.thumb_func
 689              		.type	chThdExit, %function
 690              	chThdExit:
 691              	.LFB16:
 692              		.loc 1 345 0
 693              		.cfi_startproc
 694              		@ args = 0, pretend = 0, frame = 0
 695              		@ frame_needed = 0, uses_anonymous_args = 0
 696              		@ link register save eliminated.
 697              	.LVL62:
 698              	.LBB33:
 699              		.loc 1 347 0
 700 0000 2023     		movs	r3, #32
 701              	.LVL63:
 702              	@ 347 "../ChibiOS_2.6.2/os/kernel/src/chthreads.c" 1
 703 0002 83F31188 		msr     BASEPRI, r3
 704              	@ 0 "" 2
 705              	.LVL64:
 706              		.thumb
 707              	.LBE33:
 708              		.loc 1 350 0
 709              		.loc 1 348 0
 710 0006 FFF7FEBF 		b	chThdExitS
 711              		.cfi_endproc
 712              	.LFE16:
 713              		.size	chThdExit, .-chThdExit
 714 000a 00BFAFF3 		.section	.text.chThdWait,"ax",%progbits
 714      0080
 715              		.align	2
 716              		.p2align 4,,15
 717              		.global	chThdWait
 718              		.thumb
 719              		.thumb_func
 720              		.type	chThdWait, %function
 721              	chThdWait:
 722              	.LFB18:
 723              		.loc 1 420 0
 724              		.cfi_startproc
ARM GAS  /tmp/cc46yabI.s 			page 14


 725              		@ args = 0, pretend = 0, frame = 0
 726              		@ frame_needed = 0, uses_anonymous_args = 0
 727              	.LVL65:
 728 0000 38B5     		push	{r3, r4, r5, lr}
 729              	.LCFI10:
 730              		.cfi_def_cfa_offset 16
 731              		.loc 1 420 0
 732 0002 0446     		mov	r4, r0
 733              		.cfi_offset 14, -4
 734              		.cfi_offset 5, -8
 735              		.cfi_offset 4, -12
 736              		.cfi_offset 3, -16
 737              	.LBB34:
 738              		.loc 1 425 0
 739 0004 2023     		movs	r3, #32
 740              	.LVL66:
 741              	@ 425 "../ChibiOS_2.6.2/os/kernel/src/chthreads.c" 1
 742 0006 83F31188 		msr     BASEPRI, r3
 743              	@ 0 "" 2
 744              	.LVL67:
 745              		.thumb
 746              	.LBE34:
 747              		.loc 1 430 0
 748 000a 037F     		ldrb	r3, [r0, #28]	@ zero_extendqisi2
 749              	.LVL68:
 750 000c 0E2B     		cmp	r3, #14
 751 000e 0AD0     		beq	.L23
 752              		.loc 1 431 0
 753 0010 40F20000 		movw	r0, #:lower16:rlist
 754              	.LVL69:
 755 0014 C0F20000 		movt	r0, #:upper16:rlist
 756              	.LBB35:
 757              	.LBB36:
 758              		.loc 2 82 0
 759 0018 A26A     		ldr	r2, [r4, #40]
 760              	.LBE36:
 761              	.LBE35:
 762              		.loc 1 431 0
 763 001a 8169     		ldr	r1, [r0, #24]
 764              	.LVL70:
 765              		.loc 1 432 0
 766 001c 0720     		movs	r0, #7
 767              	.LVL71:
 768              	.LBB38:
 769              	.LBB37:
 770              		.loc 2 82 0
 771 001e 0A60     		str	r2, [r1, #0]
 772              		.loc 2 83 0
 773 0020 A162     		str	r1, [r4, #40]
 774              	.LBE37:
 775              	.LBE38:
 776              		.loc 1 432 0
 777 0022 FFF7FEFF 		bl	chSchGoSleepS
 778              	.LVL72:
 779              	.L23:
 780              		.loc 1 434 0
 781 0026 656A     		ldr	r5, [r4, #36]
ARM GAS  /tmp/cc46yabI.s 			page 15


 782              	.LVL73:
 783              	.LBB39:
 784              		.loc 1 435 0
 785 0028 0023     		movs	r3, #0
 786              	.LVL74:
 787              	@ 435 "../ChibiOS_2.6.2/os/kernel/src/chthreads.c" 1
 788 002a 83F31188 		msr     BASEPRI, r3
 789              	@ 0 "" 2
 790              	.LVL75:
 791              		.thumb
 792              	.LBE39:
 793              		.loc 1 437 0
 794 002e 2046     		mov	r0, r4
 795 0030 FFF7FEFF 		bl	chThdRelease
 796              	.LVL76:
 797              		.loc 1 440 0
 798 0034 2846     		mov	r0, r5
 799 0036 38BD     		pop	{r3, r4, r5, pc}
 800              		.cfi_endproc
 801              	.LFE18:
 802              		.size	chThdWait, .-chThdWait
 803 0038 AFF30080 		.text
 803      AFF30080 
 804              	.Letext0: