ARM GAS  /tmp/cc8W0isz.s 			page 1


   1              		.syntax unified
   2              		.cpu cortex-m4
   3              		.fpu softvfp
   4              		.eabi_attribute 20, 1
   5              		.eabi_attribute 21, 1
   6              		.eabi_attribute 23, 3
   7              		.eabi_attribute 24, 1
   8              		.eabi_attribute 25, 1
   9              		.eabi_attribute 26, 1
  10              		.eabi_attribute 30, 2
  11              		.eabi_attribute 18, 4
  12              		.thumb
  13              		.file	"chvt.c"
  20 0000 6A010000 		.text
  20      02001301 
  20      00000201 
  20      FB0E0D00 
  20      01010101 
  21              	.Ltext0:
  22              		.cfi_sections	.debug_frame
  23              		.section	.text._vt_init,"ax",%progbits
  24              		.align	2
  25              		.p2align 4,,15
  26              		.global	_vt_init
  27              		.thumb
  28              		.thumb_func
  29              		.type	_vt_init, %function
  30              	_vt_init:
  31              	.LFB7:
  32              		.file 1 "../ChibiOS_2.6.2/os/kernel/src/chvt.c"
  33              		.loc 1 50 0
  34              		.cfi_startproc
  35              		@ args = 0, pretend = 0, frame = 0
  36              		@ frame_needed = 0, uses_anonymous_args = 0
  37              		@ link register save eliminated.
  38              		.loc 1 52 0
  39 0000 40F20003 		movw	r3, #:lower16:.LANCHOR0
  40 0004 C0F20003 		movt	r3, #:upper16:.LANCHOR0
  41              		.loc 1 53 0
  42 0008 4FF0FF30 		mov	r0, #-1
  43              		.loc 1 54 0
  44 000c 0022     		movs	r2, #0
  45              		.loc 1 52 0
  46 000e 5B60     		str	r3, [r3, #4]
  47 0010 1B60     		str	r3, [r3, #0]
  48              		.loc 1 53 0
  49 0012 9860     		str	r0, [r3, #8]
  50              		.loc 1 54 0
  51 0014 DA60     		str	r2, [r3, #12]
  52              		.loc 1 55 0
  53 0016 7047     		bx	lr
ARM GAS  /tmp/cc8W0isz.s 			page 2


  54              		.cfi_endproc
  55              	.LFE7:
  56              		.size	_vt_init, .-_vt_init
  57 0018 AFF30080 		.section	.text.chVTSetI,"ax",%progbits
  57      AFF30080 
  58              		.align	2
  59              		.p2align 4,,15
  60              		.global	chVTSetI
  61              		.thumb
  62              		.thumb_func
  63              		.type	chVTSetI, %function
  64              	chVTSetI:
  65              	.LFB8:
  66              		.loc 1 76 0
  67              		.cfi_startproc
  68              		@ args = 0, pretend = 0, frame = 0
  69              		@ frame_needed = 0, uses_anonymous_args = 0
  70              		@ link register save eliminated.
  71              	.LVL0:
  72 0000 30B4     		push	{r4, r5}
  73              	.LCFI0:
  74              		.cfi_def_cfa_offset 8
  75              		.loc 1 85 0
  76 0002 40F20004 		movw	r4, #:lower16:.LANCHOR0
  77              		.cfi_offset 5, -4
  78              		.cfi_offset 4, -8
  79 0006 C0F20004 		movt	r4, #:upper16:.LANCHOR0
  80              		.loc 1 83 0
  81 000a 0361     		str	r3, [r0, #16]
  82              		.loc 1 85 0
  83 000c 2568     		ldr	r5, [r4, #0]
  84              	.LVL1:
  85              		.loc 1 84 0
  86 000e C260     		str	r2, [r0, #12]
  87              		.loc 1 86 0
  88 0010 AB68     		ldr	r3, [r5, #8]
  89              	.LVL2:
  90 0012 9942     		cmp	r1, r3
  91 0014 04D9     		bls	.L3
  92              	.LVL3:
  93              	.L6:
  94              		.loc 1 88 0
  95 0016 2D68     		ldr	r5, [r5, #0]
  96              	.LVL4:
  97              		.loc 1 87 0
  98 0018 C91A     		subs	r1, r1, r3
  99              	.LVL5:
 100              		.loc 1 86 0
 101 001a AB68     		ldr	r3, [r5, #8]
 102 001c 8B42     		cmp	r3, r1
 103 001e FAD3     		bcc	.L6
 104              	.L3:
 105              		.loc 1 91 0
 106 0020 6B68     		ldr	r3, [r5, #4]
 107              		.loc 1 93 0
 108 0022 8160     		str	r1, [r0, #8]
 109              		.loc 1 94 0
ARM GAS  /tmp/cc8W0isz.s 			page 3


 110 0024 A542     		cmp	r5, r4
 111              		.loc 1 91 0
 112 0026 4360     		str	r3, [r0, #4]
 113 0028 0560     		str	r5, [r0, #0]
 114              		.loc 1 92 0
 115 002a 1860     		str	r0, [r3, #0]
 116              		.loc 1 95 0
 117 002c 18BF     		it	ne
 118 002e AB68     		ldrne	r3, [r5, #8]
 119              		.loc 1 92 0
 120 0030 6860     		str	r0, [r5, #4]
 121              		.loc 1 95 0
 122 0032 1CBF     		itt	ne
 123 0034 C1EB0301 		rsbne	r1, r1, r3
 124              	.LVL6:
 125 0038 A960     		strne	r1, [r5, #8]
 126              		.loc 1 96 0
 127 003a 30BC     		pop	{r4, r5}
 128 003c 7047     		bx	lr
 129              		.cfi_endproc
 130              	.LFE8:
 131              		.size	chVTSetI, .-chVTSetI
 132 003e 00BF     		.section	.text.chVTResetI,"ax",%progbits
 133              		.align	2
 134              		.p2align 4,,15
 135              		.global	chVTResetI
 136              		.thumb
 137              		.thumb_func
 138              		.type	chVTResetI, %function
 139              	chVTResetI:
 140              	.LFB9:
 141              		.loc 1 106 0
 142              		.cfi_startproc
 143              		@ args = 0, pretend = 0, frame = 0
 144              		@ frame_needed = 0, uses_anonymous_args = 0
 145              		@ link register save eliminated.
 146              	.LVL7:
 147              		.loc 1 114 0
 148 0000 0368     		ldr	r3, [r0, #0]
 149 0002 40F20002 		movw	r2, #:lower16:.LANCHOR0
 150 0006 C0F20002 		movt	r2, #:upper16:.LANCHOR0
 151 000a 9342     		cmp	r3, r2
 152              		.loc 1 115 0
 153 000c 1FBF     		itttt	ne
 154 000e 9968     		ldrne	r1, [r3, #8]
 155 0010 8268     		ldrne	r2, [r0, #8]
 156 0012 8A18     		addne	r2, r1, r2
 157 0014 9A60     		strne	r2, [r3, #8]
 158              		.loc 1 116 0
 159 0016 4268     		ldr	r2, [r0, #4]
 160 0018 1360     		str	r3, [r2, #0]
 161              		.loc 1 117 0
 162 001a 0168     		ldr	r1, [r0, #0]
 163              		.loc 1 118 0
 164 001c 0023     		movs	r3, #0
 165              		.loc 1 117 0
 166 001e 4A60     		str	r2, [r1, #4]
ARM GAS  /tmp/cc8W0isz.s 			page 4


 167              		.loc 1 118 0
 168 0020 C360     		str	r3, [r0, #12]
 169              		.loc 1 119 0
 170 0022 7047     		bx	lr
 171              		.cfi_endproc
 172              	.LFE9:
 173              		.size	chVTResetI, .-chVTResetI
 174              		.global	vtlist
 175 0024 AFF30080 		.section	.bss.vtlist,"aw",%nobits
 175      AFF30080 
 175      AFF30080 
 176              		.align	2
 177              		.set	.LANCHOR0,. + 0
 178              		.type	vtlist, %object
 179              		.size	vtlist, 16
 180              	vtlist:
 181 0000 00000000 		.space	16
 181      00000000 
 181      00000000 
 181      00000000 
 182              		.text
 183              	.Letext0: