ARM GAS  /tmp/ccut71Z5.s 			page 1


   1              		.syntax unified
   2              		.cpu cortex-m4
   3              		.fpu softvfp
   4              		.eabi_attribute 20, 1
   5              		.eabi_attribute 21, 1
   6              		.eabi_attribute 23, 3
   7              		.eabi_attribute 24, 1
   8              		.eabi_attribute 25, 1
   9              		.eabi_attribute 26, 1
  10              		.eabi_attribute 30, 2
  11              		.eabi_attribute 18, 4
  12              		.thumb
  13              		.file	"gdisp_lld_SSD1963.c"
  20 0000 C0040000 		.text
  20      02005102 
  20      00000201 
  20      FB0E0D00 
  20      01010101 
  21              	.Ltext0:
  22              		.cfi_sections	.debug_frame
  23              		.section	.text.gdisp_lld_init,"ax",%progbits
  24              		.align	2
  25              		.p2align 4,,15
  26              		.global	gdisp_lld_init
  27              		.thumb
  28              		.thumb_func
  29              		.type	gdisp_lld_init, %function
  30              	gdisp_lld_init:
  31              	.LFB127:
  32              		.file 1 "SSD1963_8/gdisp_lld_SSD1963.c"
  33              		.loc 1 95 0
  34              		.cfi_startproc
  35              		@ args = 0, pretend = 0, frame = 80
  36              		@ frame_needed = 0, uses_anonymous_args = 0
  37              	.LVL0:
  38 0000 2DE9F04F 		push	{r4, r5, r6, r7, r8, r9, sl, fp, lr}
  39              	.LCFI0:
  40              		.cfi_def_cfa_offset 36
  41              		.loc 1 99 0
  42 0004 457D     		ldrb	r5, [r0, #21]	@ zero_extendqisi2
  43              		.cfi_offset 14, -4
  44              		.cfi_offset 11, -8
  45              		.cfi_offset 10, -12
  46              		.cfi_offset 9, -16
  47              		.cfi_offset 8, -20
  48              		.cfi_offset 7, -24
  49              		.cfi_offset 6, -28
  50              		.cfi_offset 5, -32
  51              		.cfi_offset 4, -36
  52              	.LVL1:
  53 0006 40F20006 		movw	r6, #:lower16:.LANCHOR0
ARM GAS  /tmp/ccut71Z5.s 			page 2


  54 000a C0F20006 		movt	r6, #:upper16:.LANCHOR0
  55 000e 05EB4508 		add	r8, r5, r5, lsl #1
  56              	.LBB162:
  57              	.LBB165:
  58              		.file 2 "./board_SSD1963.h"
  59              		.loc 2 83 0
  60 0012 4FF4605A 		mov	sl, #14336
  61              		.loc 2 86 0
  62 0016 40F20002 		movw	r2, #:lower16:.LANCHOR1
  63              	.LBE165:
  64              	.LBE162:
  65              		.loc 1 99 0
  66 001a 06EBC805 		add	r5, r6, r8, lsl #3
  67              	.LVL2:
  68              	.LBB169:
  69              	.LBB166:
  70              		.loc 2 83 0
  71 001e C4F2020A 		movt	sl, 16386
  72              		.loc 2 86 0
  73 0022 C0F20002 		movt	r2, #:upper16:.LANCHOR1
  74              	.LBE166:
  75              	.LBE169:
  76              		.loc 1 95 0
  77 0026 0446     		mov	r4, r0
  78              		.loc 1 100 0
  79 0028 C560     		str	r5, [r0, #12]
  80              	.LBB170:
  81              	.LBB164:
  82              		.loc 2 86 0
  83 002a 07CA     		ldmia	r2, {r0, r1, r2}
  84              	.LVL3:
  85              		.loc 2 83 0
  86 002c DAF838E0 		ldr	lr, [sl, #56]
  87              	.LBE164:
  88              	.LBE170:
  89              		.loc 1 95 0
  90 0030 95B0     		sub	sp, sp, #84
  91              	.LCFI1:
  92              		.cfi_def_cfa_offset 120
  93              	.LBB171:
  94              	.LBB167:
  95              		.loc 2 89 0
  96 0032 40F20003 		movw	r3, #:lower16:.LANCHOR2
  97 0036 C0F20003 		movt	r3, #:upper16:.LANCHOR2
  98              		.loc 2 83 0
  99 003a 4EF0010C 		orr	ip, lr, #1
 100              		.loc 2 86 0
 101 003e 0DF14409 		add	r9, sp, #68
 102              		.loc 2 83 0
 103 0042 CAF838C0 		str	ip, [sl, #56]
 104              		.loc 2 86 0
 105 0046 89E80700 		stmia	r9, {r0, r1, r2}
 106              		.loc 2 89 0
 107 004a 93E80700 		ldmia	r3, {r0, r1, r2}
 108 004e 0EAF     		add	r7, sp, #56
 109 0050 87E80700 		stmia	r7, {r0, r1, r2}
 110              		.loc 2 92 0
ARM GAS  /tmp/ccut71Z5.s 			page 3


 111 0054 4846     		mov	r0, r9
 112 0056 40F20261 		movw	r1, #1538
 113 005a FFF7FEFF 		bl	palSetBusMode
 114              		.loc 2 98 0
 115 005e 4FF0204A 		mov	sl, #-1610612736
 116              		.loc 2 93 0
 117 0062 3846     		mov	r0, r7
 118 0064 40F20261 		movw	r1, #1538
 119              		.loc 2 106 0
 120 0068 0027     		movs	r7, #0
 121              		.loc 2 98 0
 122 006a 40F60A2B 		movw	fp, #2570
 123              		.loc 2 93 0
 124 006e FFF7FEFF 		bl	palSetBusMode
 125              	.LVL4:
 126              		.loc 2 106 0
 127 0072 C4F20207 		movt	r7, 16386
 128              		.loc 2 104 0
 129 0076 41F2110E 		movw	lr, #4113
 130              		.loc 2 106 0
 131 007a 0221     		movs	r1, #2
 132              		.loc 2 98 0
 133 007c C0F20A0B 		movt	fp, 10
 134              	.LBE167:
 135              	.LBE171:
 136              	.LBB172:
 137              	.LBB173:
 138              		.loc 2 131 0
 139 0080 8946     		mov	r9, r1
 140              	.LBE173:
 141              	.LBE172:
 142              	.LBB175:
 143              	.LBB163:
 144              		.loc 2 106 0
 145 0082 1922     		movs	r2, #25
 146              		.loc 2 98 0
 147 0084 CAF804B0 		str	fp, [sl, #4]
 148              		.loc 2 106 0
 149 0088 3846     		mov	r0, r7
 150              		.loc 2 104 0
 151 008a CAF800E0 		str	lr, [sl, #0]
 152              	.LBE163:
 153              	.LBE175:
 154              	.LBB176:
 155              	.LBB178:
 156              		.loc 2 169 0
 157 008e 4FF0C04B 		mov	fp, #1610612736
 158              	.LBE178:
 159              	.LBE176:
 160              	.LBB180:
 161              	.LBB168:
 162              		.loc 2 106 0
 163 0092 FFF7FEFF 		bl	_pal_lld_setgroupmode
 164              	.LVL5:
 165              	.LBE168:
 166              	.LBE180:
 167              		.loc 1 107 0
ARM GAS  /tmp/ccut71Z5.s 			page 4


 168 0096 1420     		movs	r0, #20
 169              	.LBB181:
 170              	.LBB174:
 171              		.loc 2 131 0
 172 0098 A7F81A90 		strh	r9, [r7, #26]	@ movhi
 173              	.LBE174:
 174              	.LBE181:
 175              		.loc 1 107 0
 176 009c FFF7FEFF 		bl	gfxSleepMilliseconds
 177              	.LVL6:
 178              	.LBB182:
 179              	.LBB184:
 180              		.loc 2 182 0
 181 00a0 4FF0000A 		mov	sl, #0
 182              	.LBE184:
 183              	.LBE182:
 184              		.loc 1 109 0
 185 00a4 1420     		movs	r0, #20
 186              	.LBB187:
 187              	.LBB188:
 188              		.loc 2 133 0
 189 00a6 A7F81890 		strh	r9, [r7, #24]	@ movhi
 190              	.LBE188:
 191              	.LBE187:
 192              	.LBB189:
 193              	.LBB177:
 194              		.loc 2 169 0
 195 00aa 0127     		movs	r7, #1
 196              	.LBE177:
 197              	.LBE189:
 198              	.LBB190:
 199              	.LBB185:
 200              		.loc 2 182 0
 201 00ac C6F2020A 		movt	sl, 24578
 202              	.LBE185:
 203              	.LBE190:
 204              		.loc 1 109 0
 205 00b0 FFF7FEFF 		bl	gfxSleepMilliseconds
 206              	.LVL7:
 207              		.loc 1 115 0
 208 00b4 0520     		movs	r0, #5
 209              	.LBB191:
 210              	.LBB179:
 211              		.loc 2 169 0
 212 00b6 8BF80070 		strb	r7, [fp, #0]
 213              	.LBE179:
 214              	.LBE191:
 215              		.loc 1 115 0
 216 00ba FFF7FEFF 		bl	gfxSleepMilliseconds
 217              	.LVL8:
 218              	.LBB192:
 219              	.LBB193:
 220              		.loc 2 182 0
 221 00be 4FF00309 		mov	r9, #3
 222              	.LBE193:
 223              	.LBE192:
 224              	.LBB195:
ARM GAS  /tmp/ccut71Z5.s 			page 5


 225              	.LBB196:
 226 00c2 0422     		movs	r2, #4
 227              	.LBE196:
 228              	.LBE195:
 229              	.LBB198:
 230              	.LBB199:
 231              		.loc 2 169 0
 232 00c4 6FF01F0C 		mvn	ip, #31
 233              	.LBE199:
 234              	.LBE198:
 235              	.LBB201:
 236              	.LBB183:
 237              		.loc 2 182 0
 238 00c8 2221     		movs	r1, #34
 239              	.LBE183:
 240              	.LBE201:
 241              	.LBB202:
 242              	.LBB203:
 243              		.loc 2 169 0
 244 00ca E220     		movs	r0, #226
 245 00cc 8BF80000 		strb	r0, [fp, #0]
 246              	.LVL9:
 247              	.LBE203:
 248              	.LBE202:
 249              	.LBB204:
 250              	.LBB186:
 251              		.loc 2 182 0
 252 00d0 8AF80010 		strb	r1, [sl, #0]
 253              	.LVL10:
 254              	.LBE186:
 255              	.LBE204:
 256              		.loc 1 123 0
 257 00d4 0520     		movs	r0, #5
 258              	.LBB205:
 259              	.LBB194:
 260              		.loc 2 182 0
 261 00d6 8AF80090 		strb	r9, [sl, #0]
 262              	.LVL11:
 263              	.LBE194:
 264              	.LBE205:
 265              	.LBB206:
 266              	.LBB197:
 267 00da 8AF80020 		strb	r2, [sl, #0]
 268              	.LVL12:
 269              	.LBE197:
 270              	.LBE206:
 271              	.LBB207:
 272              	.LBB200:
 273              		.loc 2 169 0
 274 00de 8BF800C0 		strb	ip, [fp, #0]
 275              	.LVL13:
 276              	.LBE200:
 277              	.LBE207:
 278              	.LBB208:
 279              	.LBB209:
 280              		.loc 2 182 0
 281 00e2 8AF80070 		strb	r7, [sl, #0]
ARM GAS  /tmp/ccut71Z5.s 			page 6


 282              	.LBE209:
 283              	.LBE208:
 284              		.loc 1 123 0
 285 00e6 FFF7FEFF 		bl	gfxSleepMilliseconds
 286              	.LVL14:
 287              	.LBB210:
 288              	.LBB211:
 289              		.loc 2 169 0
 290 00ea 6FF01F01 		mvn	r1, #31
 291 00ee 8BF80010 		strb	r1, [fp, #0]
 292              	.LVL15:
 293              	.LBE211:
 294              	.LBE210:
 295              		.loc 1 125 0
 296 00f2 0520     		movs	r0, #5
 297              	.LBB212:
 298              	.LBB213:
 299              		.loc 2 182 0
 300 00f4 8AF80090 		strb	r9, [sl, #0]
 301              	.LBE213:
 302              	.LBE212:
 303              		.loc 1 125 0
 304 00f8 FFF7FEFF 		bl	gfxSleepMilliseconds
 305              	.LVL16:
 306              		.loc 1 127 0
 307 00fc 0520     		movs	r0, #5
 308              	.LBB214:
 309              	.LBB215:
 310              		.loc 2 169 0
 311 00fe 8BF80070 		strb	r7, [fp, #0]
 312              	.LBE215:
 313              	.LBE214:
 314              		.loc 1 127 0
 315 0102 FFF7FEFF 		bl	gfxSleepMilliseconds
 316              	.LVL17:
 317              		.loc 1 133 0
 318 0106 36F83810 		ldrh	r1, [r6, r8, lsl #3]
 319              		.loc 1 134 0
 320 010a 6A88     		ldrh	r2, [r5, #2]
 321              		.loc 1 148 0
 322 010c B5F808C0 		ldrh	ip, [r5, #8]
 323 0110 AB88     		ldrh	r3, [r5, #4]
 324              		.loc 1 155 0
 325 0112 6E8A     		ldrh	r6, [r5, #18]
 326              		.loc 1 142 0
 327 0114 6869     		ldr	r0, [r5, #20]
 328              		.loc 1 155 0
 329 0116 0796     		str	r6, [sp, #28]
 330              		.loc 1 147 0
 331 0118 05F10808 		add	r8, r5, #8
 332 011c CDF82080 		str	r8, [sp, #32]
 333              		.loc 1 133 0
 334 0120 0FFA81F8 		sxth	r8, r1
 335 0124 CDF80880 		str	r8, [sp, #8]
 336              		.loc 1 134 0
 337 0128 0FFA82F8 		sxth	r8, r2
 338 012c CDF80C80 		str	r8, [sp, #12]
ARM GAS  /tmp/ccut71Z5.s 			page 7


 339              		.loc 1 133 0
 340 0130 DDF80880 		ldr	r8, [sp, #8]
 341 0134 08F1FF38 		add	r8, r8, #-1
 342 0138 CDF80880 		str	r8, [sp, #8]
 343 013c 01F1FF38 		add	r8, r1, #-1
 344 0140 CDF81080 		str	r8, [sp, #16]
 345              		.loc 1 134 0
 346 0144 DDF80C80 		ldr	r8, [sp, #12]
 347 0148 08F1FF38 		add	r8, r8, #-1
 348 014c CDF80C80 		str	r8, [sp, #12]
 349 0150 02F1FF38 		add	r8, r2, #-1
 350 0154 CDF81480 		str	r8, [sp, #20]
 351              		.loc 1 148 0
 352 0158 03EB0C08 		add	r8, r3, ip
 353 015c CDF81880 		str	r8, [sp, #24]
 354              		.loc 1 133 0
 355 0160 DDF80880 		ldr	r8, [sp, #8]
 356 0164 C8F30728 		ubfx	r8, r8, #8, #8
 357 0168 CDF80880 		str	r8, [sp, #8]
 358 016c DDF81080 		ldr	r8, [sp, #16]
 359 0170 5FFA88F8 		uxtb	r8, r8
 360 0174 CDF81080 		str	r8, [sp, #16]
 361              		.loc 1 134 0
 362 0178 DDF80C80 		ldr	r8, [sp, #12]
 363 017c C8F30728 		ubfx	r8, r8, #8, #8
 364 0180 CDF80C80 		str	r8, [sp, #12]
 365 0184 DDF81480 		ldr	r8, [sp, #20]
 366              		.loc 1 148 0
 367 0188 5FFA8CF6 		uxtb	r6, ip
 368              		.loc 1 134 0
 369 018c 5FFA88F8 		uxtb	r8, r8
 370              		.loc 1 148 0
 371 0190 0196     		str	r6, [sp, #4]
 372              		.loc 1 134 0
 373 0192 CDF81480 		str	r8, [sp, #20]
 374              		.loc 1 147 0
 375 0196 6E89     		ldrh	r6, [r5, #10]
 376              		.loc 1 148 0
 377 0198 DDF804C0 		ldr	ip, [sp, #4]
 378              		.loc 1 142 0
 379 019c C0F30748 		ubfx	r8, r0, #16, #8
 380 01a0 CDF82480 		str	r8, [sp, #36]
 381              		.loc 1 143 0
 382 01a4 C0F30728 		ubfx	r8, r0, #8, #8
 383 01a8 CDF82880 		str	r8, [sp, #40]
 384              		.loc 1 144 0
 385 01ac 5FFA80F8 		uxtb	r8, r0
 386              		.loc 1 147 0
 387 01b0 300A     		lsrs	r0, r6, #8
 388 01b2 0D90     		str	r0, [sp, #52]
 389 01b4 F0B2     		uxtb	r0, r6
 390              		.loc 1 148 0
 391 01b6 069E     		ldr	r6, [sp, #24]
 392              		.loc 1 147 0
 393 01b8 0C90     		str	r0, [sp, #48]
 394              		.loc 1 148 0
 395 01ba C6F30720 		ubfx	r0, r6, #8, #8
ARM GAS  /tmp/ccut71Z5.s 			page 8


 396 01be 0690     		str	r0, [sp, #24]
 397              	.LBB216:
 398              	.LBB217:
 399              		.loc 2 169 0
 400 01c0 B020     		movs	r0, #176
 401              	.LBE217:
 402              	.LBE216:
 403              		.loc 1 155 0
 404 01c2 079E     		ldr	r6, [sp, #28]
 405              	.LBB219:
 406              	.LBB218:
 407              		.loc 2 169 0
 408 01c4 8BF80000 		strb	r0, [fp, #0]
 409              	.LVL18:
 410              	.LBE218:
 411              	.LBE219:
 412              	.LBB220:
 413              	.LBB221:
 414              		.loc 2 182 0
 415 01c8 0C20     		movs	r0, #12
 416 01ca 8AF80000 		strb	r0, [sl, #0]
 417              	.LVL19:
 418              	.LBE221:
 419              	.LBE220:
 420              	.LBB222:
 421              	.LBB223:
 422 01ce 8020     		movs	r0, #128
 423 01d0 8AF80000 		strb	r0, [sl, #0]
 424              	.LBE223:
 425              	.LBE222:
 426              	.LBB224:
 427              	.LBB225:
 428 01d4 0298     		ldr	r0, [sp, #8]
 429 01d6 8AF80000 		strb	r0, [sl, #0]
 430              	.LBE225:
 431              	.LBE224:
 432              	.LBB226:
 433              	.LBB227:
 434 01da 0498     		ldr	r0, [sp, #16]
 435 01dc 8AF80000 		strb	r0, [sl, #0]
 436              	.LBE227:
 437              	.LBE226:
 438              	.LBB228:
 439              	.LBB229:
 440 01e0 0398     		ldr	r0, [sp, #12]
 441 01e2 8AF80000 		strb	r0, [sl, #0]
 442              	.LBE229:
 443              	.LBE228:
 444              	.LBB230:
 445              	.LBB231:
 446 01e6 0598     		ldr	r0, [sp, #20]
 447              	.LBE231:
 448              	.LBE230:
 449              		.loc 1 148 0
 450 01e8 9C44     		add	ip, ip, r3
 451              	.LBB233:
 452              	.LBB232:
ARM GAS  /tmp/ccut71Z5.s 			page 9


 453              		.loc 2 182 0
 454 01ea 8AF80000 		strb	r0, [sl, #0]
 455              	.LVL20:
 456              	.LBE232:
 457              	.LBE233:
 458              	.LBB234:
 459              	.LBB235:
 460 01ee 0023     		movs	r3, #0
 461              	.LBE235:
 462              	.LBE234:
 463              	.LBB237:
 464              	.LBB238:
 465              		.loc 2 169 0
 466 01f0 F020     		movs	r0, #240
 467              	.LBE238:
 468              	.LBE237:
 469              	.LBB240:
 470              	.LBB236:
 471              		.loc 2 182 0
 472 01f2 8AF80030 		strb	r3, [sl, #0]
 473              	.LVL21:
 474              	.LBE236:
 475              	.LBE240:
 476              	.LBB241:
 477              	.LBB239:
 478              		.loc 2 169 0
 479 01f6 8BF80000 		strb	r0, [fp, #0]
 480              	.LVL22:
 481              	.LBE239:
 482              	.LBE241:
 483              	.LBB242:
 484              	.LBB243:
 485 01fa 3A20     		movs	r0, #58
 486              	.LBE243:
 487              	.LBE242:
 488              	.LBB245:
 489              	.LBB246:
 490              		.loc 2 182 0
 491 01fc 8AF80030 		strb	r3, [sl, #0]
 492              	.LVL23:
 493              	.LBE246:
 494              	.LBE245:
 495              	.LBB247:
 496              	.LBB244:
 497              		.loc 2 169 0
 498 0200 8BF80000 		strb	r0, [fp, #0]
 499              	.LVL24:
 500              	.LBE244:
 501              	.LBE247:
 502              	.LBB248:
 503              	.LBB249:
 504              		.loc 2 182 0
 505 0204 6020     		movs	r0, #96
 506 0206 8AF80000 		strb	r0, [sl, #0]
 507              	.LVL25:
 508              	.LBE249:
 509              	.LBE248:
ARM GAS  /tmp/ccut71Z5.s 			page 10


 510              	.LBB250:
 511              	.LBB251:
 512              		.loc 2 169 0
 513 020a E620     		movs	r0, #230
 514 020c 8BF80000 		strb	r0, [fp, #0]
 515              	.LBE251:
 516              	.LBE250:
 517              	.LBB252:
 518              	.LBB253:
 519              		.loc 2 182 0
 520 0210 0998     		ldr	r0, [sp, #36]
 521 0212 8AF80000 		strb	r0, [sl, #0]
 522              	.LBE253:
 523              	.LBE252:
 524              	.LBB254:
 525              	.LBB255:
 526 0216 0A98     		ldr	r0, [sp, #40]
 527 0218 8AF80000 		strb	r0, [sl, #0]
 528              	.LBE255:
 529              	.LBE254:
 530              	.LBB256:
 531              	.LBB257:
 532              		.loc 2 169 0
 533 021c B420     		movs	r0, #180
 534              	.LBE257:
 535              	.LBE256:
 536              	.LBB259:
 537              	.LBB260:
 538              		.loc 2 182 0
 539 021e 8AF80080 		strb	r8, [sl, #0]
 540              	.LVL26:
 541              	.LBE260:
 542              	.LBE259:
 543              	.LBB261:
 544              	.LBB258:
 545              		.loc 2 169 0
 546 0222 8BF80000 		strb	r0, [fp, #0]
 547              	.LBE258:
 548              	.LBE261:
 549              	.LBB262:
 550              	.LBB263:
 551              		.loc 2 182 0
 552 0226 DDF83480 		ldr	r8, [sp, #52]
 553              	.LVL27:
 554 022a 8AF80080 		strb	r8, [sl, #0]
 555              	.LBE263:
 556              	.LBE262:
 557              	.LBB264:
 558              	.LBB265:
 559 022e 0C98     		ldr	r0, [sp, #48]
 560 0230 8AF80000 		strb	r0, [sl, #0]
 561              	.LBE265:
 562              	.LBE264:
 563              	.LBB266:
 564              	.LBB267:
 565 0234 DDF81880 		ldr	r8, [sp, #24]
 566              	.LBE267:
ARM GAS  /tmp/ccut71Z5.s 			page 11


 567              	.LBE266:
 568              		.loc 1 148 0
 569 0238 5FFA8CFC 		uxtb	ip, ip
 570              	.LVL28:
 571              	.LBB269:
 572              	.LBB268:
 573              		.loc 2 182 0
 574 023c 8AF80080 		strb	r8, [sl, #0]
 575              	.LBE268:
 576              	.LBE269:
 577              	.LBB270:
 578              	.LBB271:
 579 0240 8AF800C0 		strb	ip, [sl, #0]
 580              	.LVL29:
 581              	.LBE271:
 582              	.LBE270:
 583              	.LBB272:
 584              	.LBB273:
 585 0244 0198     		ldr	r0, [sp, #4]
 586              	.LBE273:
 587              	.LBE272:
 588              		.loc 1 155 0
 589 0246 360A     		lsrs	r6, r6, #8
 590              	.LBB275:
 591              	.LBB274:
 592              		.loc 2 182 0
 593 0248 8AF80000 		strb	r0, [sl, #0]
 594              	.LVL30:
 595              	.LBE274:
 596              	.LBE275:
 597              	.LBB276:
 598              	.LBB277:
 599              		.loc 2 169 0
 600 024c B620     		movs	r0, #182
 601              	.LBE277:
 602              	.LBE276:
 603              	.LBB279:
 604              	.LBB280:
 605              		.loc 2 182 0
 606 024e 8AF80030 		strb	r3, [sl, #0]
 607              	.LVL31:
 608              	.LBE280:
 609              	.LBE279:
 610              	.LBB281:
 611              	.LBB282:
 612 0252 8AF80030 		strb	r3, [sl, #0]
 613              	.LVL32:
 614              	.LBE282:
 615              	.LBE281:
 616              	.LBB283:
 617              	.LBB284:
 618 0256 8AF80030 		strb	r3, [sl, #0]
 619              	.LVL33:
 620              	.LBE284:
 621              	.LBE283:
 622              	.LBB285:
 623              	.LBB278:
ARM GAS  /tmp/ccut71Z5.s 			page 12


 624              		.loc 2 169 0
 625 025a 8BF80000 		strb	r0, [fp, #0]
 626              	.LBE278:
 627              	.LBE285:
 628              	.LBB286:
 629              	.LBB287:
 630              		.loc 2 182 0
 631 025e 8AF80060 		strb	r6, [sl, #0]
 632              	.LBE287:
 633              	.LBE286:
 634              		.loc 1 156 0
 635 0262 DDF820C0 		ldr	ip, [sp, #32]
 636              	.LVL34:
 637 0266 288A     		ldrh	r0, [r5, #16]
 638 0268 BCF80480 		ldrh	r8, [ip, #4]
 639 026c C5B2     		uxtb	r5, r0
 640 026e 08EB000C 		add	ip, r8, r0
 641 0272 05EB0806 		add	r6, r5, r8
 642              		.loc 1 155 0
 643 0276 DDF81C80 		ldr	r8, [sp, #28]
 644              		.loc 1 156 0
 645 027a CCF3072C 		ubfx	ip, ip, #8, #8
 646              		.loc 1 155 0
 647 027e 5FFA88F0 		uxtb	r0, r8
 648              	.LVL35:
 649              		.loc 1 156 0
 650 0282 F6B2     		uxtb	r6, r6
 651              	.LVL36:
 652              	.LBB288:
 653              	.LBB289:
 654              		.loc 2 182 0
 655 0284 8AF80000 		strb	r0, [sl, #0]
 656              	.LBE289:
 657              	.LBE288:
 658              	.LBB290:
 659              	.LBB291:
 660 0288 8AF800C0 		strb	ip, [sl, #0]
 661              	.LBE291:
 662              	.LBE290:
 663              	.LBB292:
 664              	.LBB293:
 665 028c 8AF80060 		strb	r6, [sl, #0]
 666              	.LVL37:
 667              	.LBE293:
 668              	.LBE292:
 669              	.LBB294:
 670              	.LBB295:
 671 0290 8AF80050 		strb	r5, [sl, #0]
 672              	.LVL38:
 673              	.LBE295:
 674              	.LBE294:
 675              	.LBB296:
 676              	.LBB297:
 677              		.loc 2 169 0
 678 0294 3525     		movs	r5, #53
 679              	.LVL39:
 680              	.LBE297:
ARM GAS  /tmp/ccut71Z5.s 			page 13


 681              	.LBE296:
 682              	.LBB299:
 683              	.LBB300:
 684              		.loc 2 182 0
 685 0296 8AF80030 		strb	r3, [sl, #0]
 686              	.LVL40:
 687              	.LBE300:
 688              	.LBE299:
 689              	.LBB301:
 690              	.LBB302:
 691 029a 8AF80030 		strb	r3, [sl, #0]
 692              	.LVL41:
 693              	.LBE302:
 694              	.LBE301:
 695              	.LBB303:
 696              	.LBB298:
 697              		.loc 2 169 0
 698 029e 8BF80050 		strb	r5, [fp, #0]
 699              	.LVL42:
 700              	.LBE298:
 701              	.LBE303:
 702              	.LBB304:
 703              	.LBB305:
 704 02a2 2925     		movs	r5, #41
 705              	.LBE305:
 706              	.LBE304:
 707              	.LBB307:
 708              	.LBB308:
 709              		.loc 2 182 0
 710 02a4 8AF80030 		strb	r3, [sl, #0]
 711              	.LVL43:
 712              	.LBE308:
 713              	.LBE307:
 714              	.LBB309:
 715              	.LBB306:
 716              		.loc 2 169 0
 717 02a8 8BF80050 		strb	r5, [fp, #0]
 718              	.LBE306:
 719              	.LBE309:
 720              		.loc 1 177 0
 721 02ac 2180     		strh	r1, [r4, #0]	@ movhi
 722              		.loc 1 179 0
 723 02ae A380     		strh	r3, [r4, #4]	@ movhi
 724              		.loc 1 181 0
 725 02b0 5A21     		movs	r1, #90
 726              		.loc 1 182 0
 727 02b2 3223     		movs	r3, #50
 728              		.loc 1 185 0
 729 02b4 3846     		mov	r0, r7
 730              	.LVL44:
 731              		.loc 1 178 0
 732 02b6 6280     		strh	r2, [r4, #2]	@ movhi
 733              		.loc 1 180 0
 734 02b8 84F80690 		strb	r9, [r4, #6]
 735              		.loc 1 181 0
 736 02bc E171     		strb	r1, [r4, #7]
 737              		.loc 1 182 0
ARM GAS  /tmp/ccut71Z5.s 			page 14


 738 02be 2372     		strb	r3, [r4, #8]
 739              		.loc 1 185 0
 740 02c0 15B0     		add	sp, sp, #84
 741 02c2 BDE8F08F 		pop	{r4, r5, r6, r7, r8, r9, sl, fp, pc}
 742              		.cfi_endproc
 743              	.LFE127:
 744              		.size	gdisp_lld_init, .-gdisp_lld_init
 745 02c6 00BFAFF3 		.section	.text.gdisp_lld_write_start,"ax",%progbits
 745      0080AFF3 
 745      0080
 746              		.align	2
 747              		.p2align 4,,15
 748              		.global	gdisp_lld_write_start
 749              		.thumb
 750              		.thumb_func
 751              		.type	gdisp_lld_write_start, %function
 752              	gdisp_lld_write_start:
 753              	.LFB128:
 754              		.loc 1 188 0
 755              		.cfi_startproc
 756              		@ args = 0, pretend = 0, frame = 0
 757              		@ frame_needed = 0, uses_anonymous_args = 0
 758              		@ link register save eliminated.
 759              	.LVL45:
 760              	.LBB310:
 761              	.LBB311:
 762              	.LBB312:
 763              	.LBB313:
 764              		.loc 2 169 0
 765 0000 4FF0C043 		mov	r3, #1610612736
 766              	.LVL46:
 767 0004 2B22     		movs	r2, #43
 768              	.LBE313:
 769              	.LBE312:
 770              	.LBE311:
 771              	.LBE310:
 772              		.loc 1 188 0
 773 0006 10B4     		push	{r4}
 774              	.LCFI2:
 775              		.cfi_def_cfa_offset 4
 776              	.LBB341:
 777              	.LBB340:
 778              	.LBB315:
 779              	.LBB314:
 780              		.loc 2 169 0
 781 0008 1A70     		strb	r2, [r3, #0]
 782              	.LBE314:
 783              	.LBE315:
 784              	.LBB316:
 785              	.LBB317:
 786              		.loc 2 182 0
 787 000a 0022     		movs	r2, #0
 788              	.LBE317:
 789              	.LBE316:
 790              		.loc 1 61 0
 791 000c 90F91BC0 		ldrsb	ip, [r0, #27]
 792              	.LBB319:
ARM GAS  /tmp/ccut71Z5.s 			page 15


 793              	.LBB318:
 794              		.loc 2 182 0
 795 0010 C6F20202 		movt	r2, 24578
 796 0014 82F800C0 		strb	ip, [r2, #0]
 797              	.LBE318:
 798              	.LBE319:
 799              		.loc 1 61 0
 800 0018 847E     		ldrb	r4, [r0, #26]	@ zero_extendqisi2
 801              		.cfi_offset 4, -4
 802              	.LVL47:
 803              	.LBB320:
 804              	.LBB321:
 805              		.loc 2 182 0
 806 001a 1470     		strb	r4, [r2, #0]
 807              	.LBE321:
 808              	.LBE320:
 809              		.loc 1 62 0
 810 001c B0F91A10 		ldrsh	r1, [r0, #26]
 811 0020 B0F91EC0 		ldrsh	ip, [r0, #30]
 812 0024 01EB0C04 		add	r4, r1, ip
 813              	.LVL48:
 814 0028 611E     		subs	r1, r4, #1
 815 002a C1F30724 		ubfx	r4, r1, #8, #8
 816              	.LVL49:
 817              	.LBB322:
 818              	.LBB323:
 819              		.loc 2 182 0
 820 002e 1470     		strb	r4, [r2, #0]
 821              	.LBE323:
 822              	.LBE322:
 823              		.loc 1 62 0
 824 0030 817E     		ldrb	r1, [r0, #26]	@ zero_extendqisi2
 825 0032 90F81EC0 		ldrb	ip, [r0, #30]	@ zero_extendqisi2
 826 0036 01EB0C04 		add	r4, r1, ip
 827              	.LVL50:
 828 003a 611E     		subs	r1, r4, #1
 829 003c CCB2     		uxtb	r4, r1
 830              	.LVL51:
 831              	.LBB324:
 832              	.LBB325:
 833              		.loc 2 169 0
 834 003e 2A21     		movs	r1, #42
 835              	.LBE325:
 836              	.LBE324:
 837              	.LBB327:
 838              	.LBB328:
 839              		.loc 2 182 0
 840 0040 1470     		strb	r4, [r2, #0]
 841              	.LVL52:
 842              	.LBE328:
 843              	.LBE327:
 844              	.LBB329:
 845              	.LBB326:
 846              		.loc 2 169 0
 847 0042 1970     		strb	r1, [r3, #0]
 848              	.LBE326:
 849              	.LBE329:
ARM GAS  /tmp/ccut71Z5.s 			page 16


 850              		.loc 1 64 0
 851 0044 90F919C0 		ldrsb	ip, [r0, #25]
 852              	.LBB330:
 853              	.LBB331:
 854              		.loc 2 182 0
 855 0048 82F800C0 		strb	ip, [r2, #0]
 856              	.LBE331:
 857              	.LBE330:
 858              		.loc 1 64 0
 859 004c 047E     		ldrb	r4, [r0, #24]	@ zero_extendqisi2
 860              	.LVL53:
 861              	.LBB332:
 862              	.LBB333:
 863              		.loc 2 182 0
 864 004e 1470     		strb	r4, [r2, #0]
 865              	.LBE333:
 866              	.LBE332:
 867              		.loc 1 65 0
 868 0050 B0F91810 		ldrsh	r1, [r0, #24]
 869 0054 B0F91CC0 		ldrsh	ip, [r0, #28]
 870 0058 01EB0C04 		add	r4, r1, ip
 871              	.LVL54:
 872 005c 611E     		subs	r1, r4, #1
 873 005e C1F30724 		ubfx	r4, r1, #8, #8
 874              	.LVL55:
 875              	.LBB334:
 876              	.LBB335:
 877              		.loc 2 182 0
 878 0062 1470     		strb	r4, [r2, #0]
 879              	.LBE335:
 880              	.LBE334:
 881              		.loc 1 65 0
 882 0064 047E     		ldrb	r4, [r0, #24]	@ zero_extendqisi2
 883              	.LVL56:
 884 0066 90F81CC0 		ldrb	ip, [r0, #28]	@ zero_extendqisi2
 885 006a 04EB0C01 		add	r1, r4, ip
 886              	.LVL57:
 887 006e 481E     		subs	r0, r1, #1
 888              	.LVL58:
 889 0070 C1B2     		uxtb	r1, r0
 890              	.LVL59:
 891              	.LBB336:
 892              	.LBB337:
 893              		.loc 2 182 0
 894 0072 1170     		strb	r1, [r2, #0]
 895              	.LVL60:
 896              	.LBE337:
 897              	.LBE336:
 898              	.LBB338:
 899              	.LBB339:
 900              		.loc 2 169 0
 901 0074 2C22     		movs	r2, #44
 902 0076 1A70     		strb	r2, [r3, #0]
 903              	.LBE339:
 904              	.LBE338:
 905              	.LBE340:
 906              	.LBE341:
ARM GAS  /tmp/ccut71Z5.s 			page 17


 907              		.loc 1 191 0
 908 0078 10BC     		pop	{r4}
 909 007a 7047     		bx	lr
 910              		.cfi_endproc
 911              	.LFE128:
 912              		.size	gdisp_lld_write_start, .-gdisp_lld_write_start
 913 007c AFF30080 		.section	.text.gdisp_lld_write_color,"ax",%progbits
 914              		.align	2
 915              		.p2align 4,,15
 916              		.global	gdisp_lld_write_color
 917              		.thumb
 918              		.thumb_func
 919              		.type	gdisp_lld_write_color, %function
 920              	gdisp_lld_write_color:
 921              	.LFB129:
 922              		.loc 1 192 0
 923              		.cfi_startproc
 924              		@ args = 0, pretend = 0, frame = 0
 925              		@ frame_needed = 0, uses_anonymous_args = 0
 926              		@ link register save eliminated.
 927              	.LVL61:
 928              		.loc 1 194 0
 929 0000 028D     		ldrh	r2, [r0, #40]
 930              	.LBB342:
 931              	.LBB343:
 932              		.loc 2 182 0
 933 0002 0023     		movs	r3, #0
 934 0004 C6F20203 		movt	r3, 24578
 935              	.LBE343:
 936              	.LBE342:
 937              		.loc 1 194 0
 938 0008 02F47840 		and	r0, r2, #63488
 939              	.LVL62:
 940              		.loc 1 195 0
 941 000c 02F4FC61 		and	r1, r2, #2016
 942              		.loc 1 196 0
 943 0010 D200     		lsls	r2, r2, #3
 944              		.loc 1 194 0
 945 0012 000A     		lsrs	r0, r0, #8
 946              	.LVL63:
 947              		.loc 1 195 0
 948 0014 C908     		lsrs	r1, r1, #3
 949              	.LVL64:
 950              		.loc 1 196 0
 951 0016 D2B2     		uxtb	r2, r2
 952              	.LVL65:
 953              	.LBB345:
 954              	.LBB344:
 955              		.loc 2 182 0
 956 0018 1870     		strb	r0, [r3, #0]
 957              	.LBE344:
 958              	.LBE345:
 959              	.LBB346:
 960              	.LBB347:
 961 001a 1970     		strb	r1, [r3, #0]
 962              	.LBE347:
 963              	.LBE346:
ARM GAS  /tmp/ccut71Z5.s 			page 18


 964              	.LBB348:
 965              	.LBB349:
 966 001c 1A70     		strb	r2, [r3, #0]
 967              	.LBE349:
 968              	.LBE348:
 969              		.loc 1 197 0
 970 001e 7047     		bx	lr
 971              		.cfi_endproc
 972              	.LFE129:
 973              		.size	gdisp_lld_write_color, .-gdisp_lld_write_color
 974              		.section	.text.gdisp_lld_write_stop,"ax",%progbits
 975              		.align	2
 976              		.p2align 4,,15
 977              		.global	gdisp_lld_write_stop
 978              		.thumb
 979              		.thumb_func
 980              		.type	gdisp_lld_write_stop, %function
 981              	gdisp_lld_write_stop:
 982              	.LFB130:
 983              		.loc 1 198 0
 984              		.cfi_startproc
 985              		@ args = 0, pretend = 0, frame = 0
 986              		@ frame_needed = 0, uses_anonymous_args = 0
 987              		@ link register save eliminated.
 988              	.LVL66:
 989              		.loc 1 200 0
 990 0000 7047     		bx	lr
 991              		.cfi_endproc
 992              	.LFE130:
 993              		.size	gdisp_lld_write_stop, .-gdisp_lld_write_stop
 994 0002 00BFAFF3 		.section	.rodata.DisplayTimings,"a",%progbits
 994      0080AFF3 
 994      0080AFF3 
 994      0080
 995              		.align	2
 996              		.set	.LANCHOR0,. + 0
 997              		.type	DisplayTimings, %object
 998              		.size	DisplayTimings, 24
 999              	DisplayTimings:
 1000 0000 4001     		.short	320
 1001 0002 F000     		.short	240
 1002 0004 0000     		.short	0
 1003 0006 0000     		.short	0
 1004 0008 4400     		.short	68
 1005 000a B801     		.short	440
 1006 000c 0000     		.short	0
 1007 000e 0000     		.short	0
 1008 0010 1200     		.short	18
 1009 0012 0901     		.short	265
 1010 0014 D8FF0000 		.word	65496
 1011              		.section	.rodata.C.1.5280,"a",%progbits
 1012              		.align	2
 1013              		.set	.LANCHOR2,. + 0
 1014              		.type	C.1.5280, %object
 1015              		.size	C.1.5280, 12
 1016              	C.1.5280:
 1017 0000 00100240 		.word	1073876992
ARM GAS  /tmp/ccut71Z5.s 			page 19


 1018 0004 80070000 		.word	1920
 1019 0008 00000000 		.word	0
 1020              		.section	.rodata.C.0.5279,"a",%progbits
 1021              		.align	2
 1022              		.set	.LANCHOR1,. + 0
 1023              		.type	C.0.5279, %object
 1024              		.size	C.0.5279, 12
 1025              	C.0.5279:
 1026 0000 000C0240 		.word	1073875968
 1027 0004 B3C80000 		.word	51379
 1028 0008 00000000 		.word	0
 1029              		.text
 1030              	.Letext0: