ARM GAS  /tmp/cckLBHkD.s 			page 1


   1              		.syntax unified
   2              		.cpu cortex-m4
   3              		.fpu softvfp
   4              		.eabi_attribute 20, 1
   5              		.eabi_attribute 21, 1
   6              		.eabi_attribute 23, 3
   7              		.eabi_attribute 24, 1
   8              		.eabi_attribute 25, 1
   9              		.eabi_attribute 26, 1
  10              		.eabi_attribute 30, 2
  11              		.eabi_attribute 18, 4
  12              		.thumb
  13              		.file	"gdisp.c"
  20 0000 04050000 		.text
  20      02007801 
  20      00000201 
  20      FB0E0D00 
  20      01010101 
  21              	.Ltext0:
  22              		.cfi_sections	.debug_frame
  23              		.section	.text.hline_clip,"ax",%progbits
  24              		.align	2
  25              		.p2align 4,,15
  26              		.thumb
  27              		.thumb_func
  28              		.type	hline_clip, %function
  29              	hline_clip:
  30              	.LFB120:
  31              		.file 1 "../ChibiOS_2.6.2/ext/ugfx/src/gdisp/gdisp.c"
  32              		.loc 1 267 0
  33              		.cfi_startproc
  34              		@ args = 0, pretend = 0, frame = 0
  35              		@ frame_needed = 0, uses_anonymous_args = 0
  36              	.LVL0:
  37              		.loc 1 269 0
  38 0000 038C     		ldrh	r3, [r0, #32]
  39 0002 B0F818C0 		ldrh	ip, [r0, #24]
  40              		.loc 1 267 0
  41 0006 10B5     		push	{r4, lr}
  42              	.LCFI0:
  43              		.cfi_def_cfa_offset 8
  44              		.loc 1 269 0
  45 0008 0FFA8CF1 		sxth	r1, ip
  46 000c 0FFA83FE 		sxth	lr, r3
  47              		.cfi_offset 14, -4
  48              		.cfi_offset 4, -8
  49 0010 8E45     		cmp	lr, r1
  50              		.loc 1 270 0
  51 0012 BEBF     		ittt	lt
  52 0014 1946     		movlt	r1, r3
  53 0016 0383     		strhlt	r3, [r0, #24]	@ movhi
ARM GAS  /tmp/cckLBHkD.s 			page 2


  54 0018 6346     		movlt	r3, ip
  55              		.loc 1 267 0
  56 001a 0446     		mov	r4, r0
  57              		.loc 1 270 0
  58 001c BCBF     		itt	lt
  59 001e A0F820C0 		strhlt	ip, [r0, #32]	@ movhi
  60 0022 8C46     		movlt	ip, r1
  61              		.loc 1 330 0
  62 0024 5A1C     		adds	r2, r3, #1
  63 0026 CCEB0200 		rsb	r0, ip, r2
  64              	.LVL1:
  65              		.loc 1 331 0
  66 002a 0123     		movs	r3, #1
  67              		.loc 1 330 0
  68 002c A083     		strh	r0, [r4, #28]	@ movhi
  69              		.loc 1 331 0
  70 002e E383     		strh	r3, [r4, #30]	@ movhi
  71              		.loc 1 332 0
  72 0030 2046     		mov	r0, r4
  73 0032 FFF7FEFF 		bl	gdisp_lld_write_start
  74              	.L3:
  75              		.loc 1 333 0 discriminator 1
  76 0036 2046     		mov	r0, r4
  77 0038 FFF7FEFF 		bl	gdisp_lld_write_color
  78 003c A38B     		ldrh	r3, [r4, #28]
  79 003e 5A1E     		subs	r2, r3, #1
  80 0040 90B2     		uxth	r0, r2
  81 0042 A083     		strh	r0, [r4, #28]	@ movhi
  82 0044 0028     		cmp	r0, #0
  83 0046 F6D1     		bne	.L3
  84              		.loc 1 334 0
  85 0048 2046     		mov	r0, r4
  86              		.loc 1 351 0
  87 004a BDE81040 		pop	{r4, lr}
  88              		.loc 1 334 0
  89 004e FFF7FEBF 		b	gdisp_lld_write_stop
  90              		.cfi_endproc
  91              	.LFE120:
  92              		.size	hline_clip, .-hline_clip
  93 0052 00BFAFF3 		.section	.text.vline_clip,"ax",%progbits
  93      0080AFF3 
  93      0080AFF3 
  93      0080
  94              		.align	2
  95              		.p2align 4,,15
  96              		.thumb
  97              		.thumb_func
  98              		.type	vline_clip, %function
  99              	vline_clip:
 100              	.LFB121:
 101              		.loc 1 355 0
 102              		.cfi_startproc
 103              		@ args = 0, pretend = 0, frame = 0
 104              		@ frame_needed = 0, uses_anonymous_args = 0
 105              	.LVL2:
 106              		.loc 1 357 0
 107 0000 438C     		ldrh	r3, [r0, #34]
ARM GAS  /tmp/cckLBHkD.s 			page 3


 108 0002 B0F81AC0 		ldrh	ip, [r0, #26]
 109              		.loc 1 355 0
 110 0006 10B5     		push	{r4, lr}
 111              	.LCFI1:
 112              		.cfi_def_cfa_offset 8
 113              		.loc 1 357 0
 114 0008 0FFA8CF1 		sxth	r1, ip
 115 000c 0FFA83FE 		sxth	lr, r3
 116              		.cfi_offset 14, -4
 117              		.cfi_offset 4, -8
 118 0010 8E45     		cmp	lr, r1
 119              		.loc 1 358 0
 120 0012 BEBF     		ittt	lt
 121 0014 1946     		movlt	r1, r3
 122 0016 4383     		strhlt	r3, [r0, #26]	@ movhi
 123 0018 6346     		movlt	r3, ip
 124              		.loc 1 355 0
 125 001a 0446     		mov	r4, r0
 126              		.loc 1 358 0
 127 001c BCBF     		itt	lt
 128 001e A0F822C0 		strhlt	ip, [r0, #34]	@ movhi
 129 0022 8C46     		movlt	ip, r1
 130              		.loc 1 409 0
 131 0024 5A1C     		adds	r2, r3, #1
 132 0026 CCEB0200 		rsb	r0, ip, r2
 133              	.LVL3:
 134              		.loc 1 410 0
 135 002a 0123     		movs	r3, #1
 136              		.loc 1 409 0
 137 002c E083     		strh	r0, [r4, #30]	@ movhi
 138              		.loc 1 410 0
 139 002e A383     		strh	r3, [r4, #28]	@ movhi
 140              		.loc 1 411 0
 141 0030 2046     		mov	r0, r4
 142 0032 FFF7FEFF 		bl	gdisp_lld_write_start
 143              	.L8:
 144              		.loc 1 418 0 discriminator 1
 145 0036 2046     		mov	r0, r4
 146 0038 FFF7FEFF 		bl	gdisp_lld_write_color
 147 003c E38B     		ldrh	r3, [r4, #30]
 148 003e 5A1E     		subs	r2, r3, #1
 149 0040 90B2     		uxth	r0, r2
 150 0042 E083     		strh	r0, [r4, #30]	@ movhi
 151 0044 0028     		cmp	r0, #0
 152 0046 F6D1     		bne	.L8
 153              		.loc 1 419 0
 154 0048 2046     		mov	r0, r4
 155              		.loc 1 436 0
 156 004a BDE81040 		pop	{r4, lr}
 157              		.loc 1 419 0
 158 004e FFF7FEBF 		b	gdisp_lld_write_stop
 159              		.cfi_endproc
 160              	.LFE121:
 161              		.size	vline_clip, .-vline_clip
 162 0052 00BFAFF3 		.section	.text.gdispGetDisplay,"ax",%progbits
 162      0080AFF3 
 162      0080AFF3 
ARM GAS  /tmp/cckLBHkD.s 			page 4


 162      0080
 163              		.align	2
 164              		.p2align 4,,15
 165              		.global	gdispGetDisplay
 166              		.thumb
 167              		.thumb_func
 168              		.type	gdispGetDisplay, %function
 169              	gdispGetDisplay:
 170              	.LFB125:
 171              		.loc 1 630 0
 172              		.cfi_startproc
 173              		@ args = 0, pretend = 0, frame = 0
 174              		@ frame_needed = 0, uses_anonymous_args = 0
 175              		@ link register save eliminated.
 176              	.LVL4:
 177              		.loc 1 632 0
 178 0000 40F20003 		movw	r3, #:lower16:.LANCHOR0
 179 0004 C0F20003 		movt	r3, #:upper16:.LANCHOR0
 180              		.loc 1 634 0
 181 0008 0028     		cmp	r0, #0
 182 000a 0CBF     		ite	eq
 183 000c 1846     		moveq	r0, r3
 184 000e 0020     		movne	r0, #0
 185              	.LVL5:
 186 0010 7047     		bx	lr
 187              		.cfi_endproc
 188              	.LFE125:
 189              		.size	gdispGetDisplay, .-gdispGetDisplay
 190 0012 00BFAFF3 		.section	.text.gdispSetDisplay,"ax",%progbits
 190      0080AFF3 
 190      0080AFF3 
 190      0080
 191              		.align	2
 192              		.p2align 4,,15
 193              		.global	gdispSetDisplay
 194              		.thumb
 195              		.thumb_func
 196              		.type	gdispSetDisplay, %function
 197              	gdispSetDisplay:
 198              	.LFB126:
 199              		.loc 1 636 0
 200              		.cfi_startproc
 201              		@ args = 0, pretend = 0, frame = 0
 202              		@ frame_needed = 0, uses_anonymous_args = 0
 203              		@ link register save eliminated.
 204              	.LVL6:
 205              		.loc 1 637 0
 206 0000 20B1     		cbz	r0, .L13
 207              		.loc 1 637 0 is_stmt 0 discriminator 1
 208 0002 40F20003 		movw	r3, #:lower16:.LANCHOR1
 209 0006 C0F20003 		movt	r3, #:upper16:.LANCHOR1
 210 000a 1860     		str	r0, [r3, #0]
 211              	.L13:
 212 000c 7047     		bx	lr
 213              		.cfi_endproc
 214              	.LFE126:
 215              		.size	gdispSetDisplay, .-gdispSetDisplay
ARM GAS  /tmp/cckLBHkD.s 			page 5


 216 000e 00BF     		.section	.text.gdispGFlush,"ax",%progbits
 217              		.align	2
 218              		.p2align 4,,15
 219              		.global	gdispGFlush
 220              		.thumb
 221              		.thumb_func
 222              		.type	gdispGFlush, %function
 223              	gdispGFlush:
 224              	.LFB127:
 225              		.loc 1 640 0 is_stmt 1
 226              		.cfi_startproc
 227              		@ args = 0, pretend = 0, frame = 0
 228              		@ frame_needed = 0, uses_anonymous_args = 0
 229              		@ link register save eliminated.
 230              	.LVL7:
 231              		.loc 1 653 0
 232 0000 7047     		bx	lr
 233              		.cfi_endproc
 234              	.LFE127:
 235              		.size	gdispGFlush, .-gdispGFlush
 236 0002 00BFAFF3 		.section	.text.gdispGDrawPixel,"ax",%progbits
 236      0080AFF3 
 236      0080AFF3 
 236      0080
 237              		.align	2
 238              		.p2align 4,,15
 239              		.global	gdispGDrawPixel
 240              		.thumb
 241              		.thumb_func
 242              		.type	gdispGDrawPixel, %function
 243              	gdispGDrawPixel:
 244              	.LFB128:
 245              		.loc 1 902 0
 246              		.cfi_startproc
 247              		@ args = 0, pretend = 0, frame = 0
 248              		@ frame_needed = 0, uses_anonymous_args = 0
 249              	.LVL8:
 250 0000 70B5     		push	{r4, r5, r6, lr}
 251              	.LCFI2:
 252              		.cfi_def_cfa_offset 16
 253              	.LBB9:
 254              	.LBB11:
 255              		.loc 1 166 0
 256 0002 0125     		movs	r5, #1
 257              		.cfi_offset 14, -4
 258              		.cfi_offset 6, -8
 259              		.cfi_offset 5, -12
 260              		.cfi_offset 4, -16
 261              	.LBE11:
 262              	.LBE9:
 263              		.loc 1 902 0
 264 0004 0446     		mov	r4, r0
 265              		.loc 1 904 0
 266 0006 0183     		strh	r1, [r0, #24]	@ movhi
 267              		.loc 1 905 0
 268 0008 4283     		strh	r2, [r0, #26]	@ movhi
 269              		.loc 1 906 0
ARM GAS  /tmp/cckLBHkD.s 			page 6


 270 000a 0385     		strh	r3, [r0, #40]	@ movhi
 271              	.LVL9:
 272              	.LBB13:
 273              	.LBB10:
 274              		.loc 1 166 0
 275 000c C583     		strh	r5, [r0, #30]	@ movhi
 276 000e 8583     		strh	r5, [r0, #28]	@ movhi
 277              		.loc 1 167 0
 278 0010 FFF7FEFF 		bl	gdisp_lld_write_start
 279              	.LVL10:
 280              		.loc 1 168 0
 281 0014 2046     		mov	r0, r4
 282 0016 FFF7FEFF 		bl	gdisp_lld_write_color
 283              		.loc 1 169 0
 284 001a 2046     		mov	r0, r4
 285              	.LBE10:
 286              	.LBE13:
 287              		.loc 1 910 0
 288 001c BDE87040 		pop	{r4, r5, r6, lr}
 289              	.LBB14:
 290              	.LBB12:
 291              		.loc 1 169 0
 292 0020 FFF7FEBF 		b	gdisp_lld_write_stop
 293              	.LBE12:
 294              	.LBE14:
 295              		.cfi_endproc
 296              	.LFE128:
 297              		.size	gdispGDrawPixel, .-gdispGDrawPixel
 298 0024 AFF30080 		.section	.text.gdispGDrawLine,"ax",%progbits
 298      AFF30080 
 298      AFF30080 
 299              		.align	2
 300              		.p2align 4,,15
 301              		.global	gdispGDrawLine
 302              		.thumb
 303              		.thumb_func
 304              		.type	gdispGDrawLine, %function
 305              	gdispGDrawLine:
 306              	.LFB129:
 307              		.loc 1 912 0
 308              		.cfi_startproc
 309              		@ args = 8, pretend = 0, frame = 8
 310              		@ frame_needed = 0, uses_anonymous_args = 0
 311              	.LVL11:
 312 0000 2DE9F04F 		push	{r4, r5, r6, r7, r8, r9, sl, fp, lr}
 313              	.LCFI3:
 314              		.cfi_def_cfa_offset 36
 315 0004 83B0     		sub	sp, sp, #12
 316              	.LCFI4:
 317              		.cfi_def_cfa_offset 48
 318              		.loc 1 912 0
 319 0006 0446     		mov	r4, r0
 320              		.cfi_offset 14, -4
 321              		.cfi_offset 11, -8
 322              		.cfi_offset 10, -12
 323              		.cfi_offset 9, -16
 324              		.cfi_offset 8, -20
ARM GAS  /tmp/cckLBHkD.s 			page 7


 325              		.cfi_offset 7, -24
 326              		.cfi_offset 6, -28
 327              		.cfi_offset 5, -32
 328              		.cfi_offset 4, -36
 329 0008 BDF83050 		ldrh	r5, [sp, #48]
 330 000c BDF83460 		ldrh	r6, [sp, #52]
 331              		.loc 1 914 0
 332 0010 0183     		strh	r1, [r0, #24]	@ movhi
 333              		.loc 1 912 0
 334 0012 2FB2     		sxth	r7, r5
 335              	.LBB21:
 336              	.LBB24:
 337              		.loc 1 446 0
 338 0014 BA42     		cmp	r2, r7
 339              	.LBE24:
 340              	.LBE21:
 341              		.loc 1 915 0
 342 0016 4283     		strh	r2, [r0, #26]	@ movhi
 343              		.loc 1 916 0
 344 0018 0384     		strh	r3, [r0, #32]	@ movhi
 345              		.loc 1 917 0
 346 001a 4584     		strh	r5, [r0, #34]	@ movhi
 347              		.loc 1 918 0
 348 001c 0685     		strh	r6, [r0, #40]	@ movhi
 349              	.LVL12:
 350              	.LBB55:
 351              	.LBB23:
 352              		.loc 1 446 0
 353 001e 00F05681 		beq	.L64
 354              	.LVL13:
 355              		.loc 1 452 0
 356 0022 9942     		cmp	r1, r3
 357 0024 00F05881 		beq	.L65
 358              		.loc 1 465 0
 359 0028 40F39F80 		ble	.L66
 360              		.loc 1 469 0
 361 002c C81A     		subs	r0, r1, r3
 362              	.LVL14:
 363              		.loc 1 472 0
 364 002e BA42     		cmp	r2, r7
 365              		.loc 1 469 0
 366 0030 83B2     		uxth	r3, r0
 367              	.LVL15:
 368              		.loc 1 470 0
 369 0032 4FF6FF76 		movw	r6, #65535
 370              	.LVL16:
 371              		.loc 1 472 0
 372 0036 00F39E80 		bgt	.L22
 373              	.LVL17:
 374              	.L70:
 375              		.loc 1 473 0
 376 003a AA1A     		subs	r2, r5, r2
 377              	.LVL18:
 378 003c 92B2     		uxth	r2, r2
 379              	.LVL19:
 380              		.loc 1 480 0
 381 003e 0FFA83FA 		sxth	sl, r3
ARM GAS  /tmp/cckLBHkD.s 			page 8


 382 0042 0FFA82F9 		sxth	r9, r2
 383              		.loc 1 474 0
 384 0046 0127     		movs	r7, #1
 385              	.LVL20:
 386              		.loc 1 480 0
 387 0048 CA45     		cmp	sl, r9
 388 004a C0F29F80 		blt	.L24
 389              	.LVL21:
 390              	.L71:
 391              		.loc 1 481 0
 392 004e 4FEA4909 		lsl	r9, r9, #1
 393              	.LVL22:
 394              		.loc 1 482 0
 395 0052 1FFA83FC 		uxth	ip, r3
 396 0056 1FFA89F9 		uxth	r9, r9
 397              	.LVL23:
 398 005a CCEB0908 		rsb	r8, ip, r9
 399 005e 1FFA88F8 		uxth	r8, r8
 400              	.LVL24:
 401              		.loc 1 483 0
 402 0062 CCEB080B 		rsb	fp, ip, r8
 403              		.loc 1 485 0
 404 0066 BAF1000F 		cmp	sl, #0
 405              		.loc 1 483 0
 406 006a 1FFA8BFB 		uxth	fp, fp
 407              	.LVL25:
 408              		.loc 1 485 0
 409 006e 79DB     		blt	.L17
 410              	.LBB31:
 411              	.LBB35:
 412              		.loc 1 166 0
 413 0070 0123     		movs	r3, #1
 414 0072 E383     		strh	r3, [r4, #30]	@ movhi
 415 0074 A383     		strh	r3, [r4, #28]	@ movhi
 416              		.loc 1 167 0
 417 0076 2046     		mov	r0, r4
 418 0078 FFF7FEFF 		bl	gdisp_lld_write_start
 419              	.LVL26:
 420              		.loc 1 168 0
 421 007c 2046     		mov	r0, r4
 422 007e FFF7FEFF 		bl	gdisp_lld_write_color
 423              	.LBE35:
 424              	.LBE31:
 425              		.loc 1 482 0
 426 0082 1FFA88F8 		uxth	r8, r8
 427              	.LVL27:
 428              	.LBB30:
 429              	.LBB34:
 430              		.loc 1 169 0
 431 0086 2046     		mov	r0, r4
 432 0088 0AF00105 		and	r5, sl, #1
 433 008c 0195     		str	r5, [sp, #4]
 434              	.LVL28:
 435 008e FFF7FEFF 		bl	gdisp_lld_write_stop
 436              	.LBE34:
 437              	.LBE30:
 438              		.loc 1 487 0
ARM GAS  /tmp/cckLBHkD.s 			page 9


 439 0092 18F4004F 		tst	r8, #32768
 440 0096 40F00881 		bne	.L67
 441              		.loc 1 492 0
 442 009a 238B     		ldrh	r3, [r4, #24]
 443              		.loc 1 493 0
 444 009c B4F81AE0 		ldrh	lr, [r4, #26]
 445              		.loc 1 491 0
 446 00a0 D844     		add	r8, fp, r8
 447              		.loc 1 492 0
 448 00a2 F018     		adds	r0, r6, r3
 449              		.loc 1 493 0
 450 00a4 07EB0E0C 		add	ip, r7, lr
 451              		.loc 1 491 0
 452 00a8 1FFA88F8 		uxth	r8, r8
 453              		.loc 1 492 0
 454 00ac 2083     		strh	r0, [r4, #24]	@ movhi
 455              		.loc 1 493 0
 456 00ae A4F81AC0 		strh	ip, [r4, #26]	@ movhi
 457              	.L54:
 458              		.loc 1 485 0
 459 00b2 0125     		movs	r5, #1
 460              	.LVL29:
 461 00b4 AA45     		cmp	sl, r5
 462 00b6 55DB     		blt	.L17
 463 00b8 0198     		ldr	r0, [sp, #4]
 464 00ba B0B1     		cbz	r0, .L28
 465              	.LBB29:
 466              	.LBB36:
 467              		.loc 1 166 0
 468 00bc E583     		strh	r5, [r4, #30]	@ movhi
 469 00be A583     		strh	r5, [r4, #28]	@ movhi
 470              		.loc 1 167 0
 471 00c0 2046     		mov	r0, r4
 472 00c2 35E0     		b	.L62
 473              	.L69:
 474              	.LBE36:
 475              	.LBE29:
 476              		.loc 1 492 0
 477 00c4 228B     		ldrh	r2, [r4, #24]
 478              		.loc 1 493 0
 479 00c6 638B     		ldrh	r3, [r4, #26]
 480              		.loc 1 485 0
 481 00c8 0135     		adds	r5, r5, #1
 482              		.loc 1 492 0
 483 00ca 06EB020E 		add	lr, r6, r2
 484              		.loc 1 485 0
 485 00ce ADB2     		uxth	r5, r5
 486              		.loc 1 492 0
 487 00d0 A4F818E0 		strh	lr, [r4, #24]	@ movhi
 488              		.loc 1 485 0
 489 00d4 0FFA85FE 		sxth	lr, r5
 490              		.loc 1 491 0
 491 00d8 D844     		add	r8, fp, r8
 492              		.loc 1 493 0
 493 00da 07EB030C 		add	ip, r7, r3
 494              		.loc 1 485 0
 495 00de F245     		cmp	sl, lr
ARM GAS  /tmp/cckLBHkD.s 			page 10


 496              		.loc 1 491 0
 497 00e0 1FFA88F8 		uxth	r8, r8
 498              		.loc 1 493 0
 499 00e4 A4F81AC0 		strh	ip, [r4, #26]	@ movhi
 500              		.loc 1 485 0
 501 00e8 3CDB     		blt	.L17
 502              	.L28:
 503              	.LBB28:
 504              	.LBB33:
 505              		.loc 1 166 0
 506 00ea 0120     		movs	r0, #1
 507 00ec E083     		strh	r0, [r4, #30]	@ movhi
 508 00ee A083     		strh	r0, [r4, #28]	@ movhi
 509              		.loc 1 167 0
 510 00f0 2046     		mov	r0, r4
 511 00f2 FFF7FEFF 		bl	gdisp_lld_write_start
 512              		.loc 1 168 0
 513 00f6 2046     		mov	r0, r4
 514 00f8 FFF7FEFF 		bl	gdisp_lld_write_color
 515              		.loc 1 169 0
 516 00fc 2046     		mov	r0, r4
 517 00fe FFF7FEFF 		bl	gdisp_lld_write_stop
 518              	.LBE33:
 519              	.LBE28:
 520              		.loc 1 487 0
 521 0102 18F4004F 		tst	r8, #32768
 522 0106 40F0BD80 		bne	.L68
 523              		.loc 1 492 0
 524 010a B4F818E0 		ldrh	lr, [r4, #24]
 525              		.loc 1 493 0
 526 010e 638B     		ldrh	r3, [r4, #26]
 527              		.loc 1 491 0
 528 0110 D844     		add	r8, fp, r8
 529              		.loc 1 492 0
 530 0112 06EB0E00 		add	r0, r6, lr
 531              		.loc 1 493 0
 532 0116 07EB030C 		add	ip, r7, r3
 533              		.loc 1 491 0
 534 011a 1FFA88F8 		uxth	r8, r8
 535              		.loc 1 492 0
 536 011e 2083     		strh	r0, [r4, #24]	@ movhi
 537              		.loc 1 493 0
 538 0120 A4F81AC0 		strh	ip, [r4, #26]	@ movhi
 539              	.L27:
 540              	.LBB27:
 541              	.LBB37:
 542              		.loc 1 166 0
 543 0124 0122     		movs	r2, #1
 544              	.LBE37:
 545              	.LBE27:
 546              		.loc 1 485 0
 547 0126 0135     		adds	r5, r5, #1
 548              	.LBB26:
 549              	.LBB32:
 550              		.loc 1 166 0
 551 0128 E283     		strh	r2, [r4, #30]	@ movhi
 552 012a A283     		strh	r2, [r4, #28]	@ movhi
ARM GAS  /tmp/cckLBHkD.s 			page 11


 553              		.loc 1 167 0
 554 012c 2046     		mov	r0, r4
 555              	.LBE32:
 556              	.LBE26:
 557              		.loc 1 485 0
 558 012e ADB2     		uxth	r5, r5
 559              	.L62:
 560              	.LBB25:
 561              	.LBB38:
 562              		.loc 1 167 0
 563 0130 FFF7FEFF 		bl	gdisp_lld_write_start
 564              		.loc 1 168 0
 565 0134 2046     		mov	r0, r4
 566 0136 FFF7FEFF 		bl	gdisp_lld_write_color
 567              		.loc 1 169 0
 568 013a 2046     		mov	r0, r4
 569 013c FFF7FEFF 		bl	gdisp_lld_write_stop
 570              	.LBE38:
 571              	.LBE25:
 572              		.loc 1 487 0
 573 0140 18F4004F 		tst	r8, #32768
 574 0144 BED0     		beq	.L69
 575              		.loc 1 485 0
 576 0146 0135     		adds	r5, r5, #1
 577              		.loc 1 489 0
 578 0148 B4F818C0 		ldrh	ip, [r4, #24]
 579              		.loc 1 485 0
 580 014c ADB2     		uxth	r5, r5
 581 014e 0FFA85FE 		sxth	lr, r5
 582              		.loc 1 488 0
 583 0152 09EB0800 		add	r0, r9, r8
 584              		.loc 1 489 0
 585 0156 06EB0C01 		add	r1, r6, ip
 586              		.loc 1 485 0
 587 015a F245     		cmp	sl, lr
 588              		.loc 1 488 0
 589 015c 1FFA80F8 		uxth	r8, r0
 590              		.loc 1 489 0
 591 0160 2183     		strh	r1, [r4, #24]	@ movhi
 592              		.loc 1 485 0
 593 0162 C2DA     		bge	.L28
 594              	.LVL30:
 595              	.L17:
 596              	.LBE23:
 597              	.LBE55:
 598              		.loc 1 922 0
 599 0164 03B0     		add	sp, sp, #12
 600 0166 BDE8F08F 		pop	{r4, r5, r6, r7, r8, r9, sl, fp, pc}
 601              	.LVL31:
 602              	.L66:
 603              	.LBB56:
 604              	.LBB53:
 605              		.loc 1 466 0
 606 016a 5B1A     		subs	r3, r3, r1
 607              	.LVL32:
 608              		.loc 1 467 0
 609 016c 0126     		movs	r6, #1
ARM GAS  /tmp/cckLBHkD.s 			page 12


 610              		.loc 1 472 0
 611 016e BA42     		cmp	r2, r7
 612              		.loc 1 466 0
 613 0170 9BB2     		uxth	r3, r3
 614              	.LVL33:
 615              		.loc 1 472 0
 616 0172 7FF762AF 		ble	.L70
 617              	.LVL34:
 618              	.L22:
 619              		.loc 1 476 0
 620 0176 511B     		subs	r1, r2, r5
 621              	.LVL35:
 622 0178 8AB2     		uxth	r2, r1
 623              	.LVL36:
 624              		.loc 1 480 0
 625 017a 0FFA83FA 		sxth	sl, r3
 626 017e 0FFA82F9 		sxth	r9, r2
 627 0182 CA45     		cmp	sl, r9
 628              		.loc 1 477 0
 629 0184 4FF6FF77 		movw	r7, #65535
 630              	.LVL37:
 631              		.loc 1 480 0
 632 0188 BFF661AF 		bge	.L71
 633              	.LVL38:
 634              	.L24:
 635              		.loc 1 497 0
 636 018c 4FEA4A0A 		lsl	sl, sl, #1
 637              	.LVL39:
 638              		.loc 1 498 0
 639 0190 91B2     		uxth	r1, r2
 640 0192 1FFA8AFA 		uxth	sl, sl
 641              	.LVL40:
 642 0196 C1EB0A0C 		rsb	ip, r1, sl
 643 019a 1FFA8CF8 		uxth	r8, ip
 644              	.LVL41:
 645              		.loc 1 499 0
 646 019e C1EB080B 		rsb	fp, r1, r8
 647              		.loc 1 501 0
 648 01a2 B9F1000F 		cmp	r9, #0
 649              		.loc 1 499 0
 650 01a6 1FFA8BFB 		uxth	fp, fp
 651              	.LVL42:
 652              		.loc 1 501 0
 653 01aa DBDB     		blt	.L17
 654              	.LBB39:
 655              	.LBB43:
 656              		.loc 1 166 0
 657 01ac 0120     		movs	r0, #1
 658 01ae E083     		strh	r0, [r4, #30]	@ movhi
 659 01b0 A083     		strh	r0, [r4, #28]	@ movhi
 660              		.loc 1 167 0
 661 01b2 2046     		mov	r0, r4
 662 01b4 FFF7FEFF 		bl	gdisp_lld_write_start
 663              	.LVL43:
 664              		.loc 1 168 0
 665 01b8 2046     		mov	r0, r4
 666 01ba FFF7FEFF 		bl	gdisp_lld_write_color
ARM GAS  /tmp/cckLBHkD.s 			page 13


 667              	.LBE43:
 668              	.LBE39:
 669              		.loc 1 498 0
 670 01be 1FFA88F8 		uxth	r8, r8
 671              	.LVL44:
 672 01c2 09F00103 		and	r3, r9, #1
 673              	.LBB47:
 674              	.LBB42:
 675              		.loc 1 169 0
 676 01c6 2046     		mov	r0, r4
 677 01c8 0193     		str	r3, [sp, #4]
 678              	.LVL45:
 679 01ca FFF7FEFF 		bl	gdisp_lld_write_stop
 680              	.LBE42:
 681              	.LBE47:
 682              		.loc 1 503 0
 683 01ce 18F4004F 		tst	r8, #32768
 684 01d2 72D1     		bne	.L72
 685              		.loc 1 508 0
 686 01d4 208B     		ldrh	r0, [r4, #24]
 687              		.loc 1 509 0
 688 01d6 618B     		ldrh	r1, [r4, #26]
 689              		.loc 1 507 0
 690 01d8 D844     		add	r8, fp, r8
 691              		.loc 1 508 0
 692 01da 3218     		adds	r2, r6, r0
 693              		.loc 1 509 0
 694 01dc 7B18     		adds	r3, r7, r1
 695              		.loc 1 507 0
 696 01de 1FFA88F8 		uxth	r8, r8
 697              		.loc 1 508 0
 698 01e2 2283     		strh	r2, [r4, #24]	@ movhi
 699              		.loc 1 509 0
 700 01e4 6383     		strh	r3, [r4, #26]	@ movhi
 701              	.L58:
 702              		.loc 1 501 0
 703 01e6 0125     		movs	r5, #1
 704              	.LVL46:
 705 01e8 A945     		cmp	r9, r5
 706 01ea BBDB     		blt	.L17
 707 01ec 019B     		ldr	r3, [sp, #4]
 708 01ee 9BB1     		cbz	r3, .L31
 709              	.LBB48:
 710              	.LBB44:
 711              		.loc 1 166 0
 712 01f0 E583     		strh	r5, [r4, #30]	@ movhi
 713 01f2 A583     		strh	r5, [r4, #28]	@ movhi
 714              		.loc 1 167 0
 715 01f4 2046     		mov	r0, r4
 716 01f6 30E0     		b	.L63
 717              	.L74:
 718              	.LBE44:
 719              	.LBE48:
 720              		.loc 1 508 0
 721 01f8 B4F818C0 		ldrh	ip, [r4, #24]
 722              		.loc 1 509 0
 723 01fc 608B     		ldrh	r0, [r4, #26]
ARM GAS  /tmp/cckLBHkD.s 			page 14


 724              		.loc 1 507 0
 725 01fe D844     		add	r8, fp, r8
 726              		.loc 1 508 0
 727 0200 06EB0C02 		add	r2, r6, ip
 728              		.loc 1 509 0
 729 0204 3918     		adds	r1, r7, r0
 730              		.loc 1 507 0
 731 0206 1FFA88F8 		uxth	r8, r8
 732              		.loc 1 508 0
 733 020a 2283     		strh	r2, [r4, #24]	@ movhi
 734              		.loc 1 509 0
 735 020c 6183     		strh	r1, [r4, #26]	@ movhi
 736              	.L61:
 737              		.loc 1 501 0
 738 020e 0135     		adds	r5, r5, #1
 739 0210 ADB2     		uxth	r5, r5
 740 0212 2AB2     		sxth	r2, r5
 741 0214 9145     		cmp	r9, r2
 742 0216 A5DB     		blt	.L17
 743              	.L31:
 744              	.LBB49:
 745              	.LBB41:
 746              		.loc 1 166 0
 747 0218 0122     		movs	r2, #1
 748 021a E283     		strh	r2, [r4, #30]	@ movhi
 749 021c A283     		strh	r2, [r4, #28]	@ movhi
 750              		.loc 1 167 0
 751 021e 2046     		mov	r0, r4
 752 0220 FFF7FEFF 		bl	gdisp_lld_write_start
 753              		.loc 1 168 0
 754 0224 2046     		mov	r0, r4
 755 0226 FFF7FEFF 		bl	gdisp_lld_write_color
 756              		.loc 1 169 0
 757 022a 2046     		mov	r0, r4
 758 022c FFF7FEFF 		bl	gdisp_lld_write_stop
 759              	.LBE41:
 760              	.LBE49:
 761              		.loc 1 503 0
 762 0230 18F4004F 		tst	r8, #32768
 763 0234 30D1     		bne	.L73
 764              		.loc 1 508 0
 765 0236 228B     		ldrh	r2, [r4, #24]
 766              		.loc 1 509 0
 767 0238 638B     		ldrh	r3, [r4, #26]
 768              		.loc 1 507 0
 769 023a 0BEB080E 		add	lr, fp, r8
 770              		.loc 1 508 0
 771 023e B018     		adds	r0, r6, r2
 772              		.loc 1 509 0
 773 0240 07EB030C 		add	ip, r7, r3
 774              		.loc 1 507 0
 775 0244 1FFA8EF8 		uxth	r8, lr
 776              		.loc 1 508 0
 777 0248 2083     		strh	r0, [r4, #24]	@ movhi
 778              		.loc 1 509 0
 779 024a A4F81AC0 		strh	ip, [r4, #26]	@ movhi
 780              	.L30:
ARM GAS  /tmp/cckLBHkD.s 			page 15


 781              	.LBB50:
 782              	.LBB45:
 783              		.loc 1 166 0
 784 024e 0121     		movs	r1, #1
 785              	.LBE45:
 786              	.LBE50:
 787              		.loc 1 501 0
 788 0250 0135     		adds	r5, r5, #1
 789              	.LBB51:
 790              	.LBB40:
 791              		.loc 1 166 0
 792 0252 E183     		strh	r1, [r4, #30]	@ movhi
 793 0254 A183     		strh	r1, [r4, #28]	@ movhi
 794              		.loc 1 167 0
 795 0256 2046     		mov	r0, r4
 796              	.LBE40:
 797              	.LBE51:
 798              		.loc 1 501 0
 799 0258 ADB2     		uxth	r5, r5
 800              	.L63:
 801              	.LBB52:
 802              	.LBB46:
 803              		.loc 1 167 0
 804 025a FFF7FEFF 		bl	gdisp_lld_write_start
 805              		.loc 1 168 0
 806 025e 2046     		mov	r0, r4
 807 0260 FFF7FEFF 		bl	gdisp_lld_write_color
 808              		.loc 1 169 0
 809 0264 2046     		mov	r0, r4
 810 0266 FFF7FEFF 		bl	gdisp_lld_write_stop
 811              	.LBE46:
 812              	.LBE52:
 813              		.loc 1 503 0
 814 026a 18F4004F 		tst	r8, #32768
 815 026e C3D0     		beq	.L74
 816              		.loc 1 505 0
 817 0270 638B     		ldrh	r3, [r4, #26]
 818              		.loc 1 504 0
 819 0272 0AEB0801 		add	r1, sl, r8
 820              		.loc 1 505 0
 821 0276 07EB030E 		add	lr, r7, r3
 822              		.loc 1 504 0
 823 027a 1FFA81F8 		uxth	r8, r1
 824              		.loc 1 505 0
 825 027e A4F81AE0 		strh	lr, [r4, #26]	@ movhi
 826 0282 C4E7     		b	.L61
 827              	.LVL47:
 828              	.L68:
 829              		.loc 1 489 0
 830 0284 218B     		ldrh	r1, [r4, #24]
 831              		.loc 1 488 0
 832 0286 09EB0802 		add	r2, r9, r8
 833              		.loc 1 489 0
 834 028a 06EB010E 		add	lr, r6, r1
 835              		.loc 1 488 0
 836 028e 1FFA82F8 		uxth	r8, r2
 837              		.loc 1 489 0
ARM GAS  /tmp/cckLBHkD.s 			page 16


 838 0292 A4F818E0 		strh	lr, [r4, #24]	@ movhi
 839 0296 45E7     		b	.L27
 840              	.LVL48:
 841              	.L73:
 842              		.loc 1 505 0
 843 0298 618B     		ldrh	r1, [r4, #26]
 844              		.loc 1 504 0
 845 029a D044     		add	r8, sl, r8
 846              		.loc 1 505 0
 847 029c 07EB010E 		add	lr, r7, r1
 848              		.loc 1 504 0
 849 02a0 1FFA88F8 		uxth	r8, r8
 850              		.loc 1 505 0
 851 02a4 A4F81AE0 		strh	lr, [r4, #26]	@ movhi
 852 02a8 D1E7     		b	.L30
 853              	.LVL49:
 854              	.L67:
 855              		.loc 1 489 0
 856 02aa 218B     		ldrh	r1, [r4, #24]
 857              		.loc 1 488 0
 858 02ac 09EB0805 		add	r5, r9, r8
 859              		.loc 1 489 0
 860 02b0 7218     		adds	r2, r6, r1
 861              		.loc 1 488 0
 862 02b2 1FFA85F8 		uxth	r8, r5
 863              		.loc 1 489 0
 864 02b6 2283     		strh	r2, [r4, #24]	@ movhi
 865 02b8 FBE6     		b	.L54
 866              	.LVL50:
 867              	.L72:
 868              		.loc 1 505 0
 869 02ba 658B     		ldrh	r5, [r4, #26]
 870              		.loc 1 504 0
 871 02bc 0AEB080E 		add	lr, sl, r8
 872              		.loc 1 505 0
 873 02c0 07EB050C 		add	ip, r7, r5
 874              		.loc 1 504 0
 875 02c4 1FFA8EF8 		uxth	r8, lr
 876              		.loc 1 505 0
 877 02c8 A4F81AC0 		strh	ip, [r4, #26]	@ movhi
 878 02cc 8BE7     		b	.L58
 879              	.LVL51:
 880              	.L64:
 881              	.LBE53:
 882              	.LBE56:
 883              		.loc 1 922 0
 884 02ce 03B0     		add	sp, sp, #12
 885 02d0 BDE8F04F 		pop	{r4, r5, r6, r7, r8, r9, sl, fp, lr}
 886              	.LBB57:
 887              	.LBB22:
 888              		.loc 1 447 0
 889 02d4 FFF7FEBF 		b	hline_clip
 890              	.LVL52:
 891              	.L65:
 892              	.LBE22:
 893              	.LBE57:
 894              		.loc 1 922 0
ARM GAS  /tmp/cckLBHkD.s 			page 17


 895 02d8 03B0     		add	sp, sp, #12
 896 02da BDE8F04F 		pop	{r4, r5, r6, r7, r8, r9, sl, fp, lr}
 897              	.LBB58:
 898              	.LBB54:
 899              		.loc 1 453 0
 900 02de FFF7FEBF 		b	vline_clip
 901              	.LBE54:
 902              	.LBE58:
 903              		.cfi_endproc
 904              	.LFE129:
 905              		.size	gdispGDrawLine, .-gdispGDrawLine
 906 02e2 00BFAFF3 		.section	.text.gdispGClear,"ax",%progbits
 906      0080AFF3 
 906      0080AFF3 
 906      0080
 907              		.align	2
 908              		.p2align 4,,15
 909              		.global	gdispGClear
 910              		.thumb
 911              		.thumb_func
 912              		.type	gdispGClear, %function
 913              	gdispGClear:
 914              	.LFB130:
 915              		.loc 1 924 0
 916              		.cfi_startproc
 917              		@ args = 0, pretend = 0, frame = 0
 918              		@ frame_needed = 0, uses_anonymous_args = 0
 919              	.LVL53:
 920 0000 70B5     		push	{r4, r5, r6, lr}
 921              	.LCFI5:
 922              		.cfi_def_cfa_offset 16
 923              	.LBB59:
 924              		.loc 1 969 0
 925 0002 4388     		ldrh	r3, [r0, #2]
 926              		.loc 1 968 0
 927 0004 0588     		ldrh	r5, [r0, #0]
 928              		.cfi_offset 14, -4
 929              		.cfi_offset 6, -8
 930              		.cfi_offset 5, -12
 931              		.cfi_offset 4, -16
 932              		.loc 1 969 0
 933 0006 C383     		strh	r3, [r0, #30]	@ movhi
 934              		.loc 1 967 0
 935 0008 0022     		movs	r2, #0
 936              		.loc 1 968 0
 937 000a 8583     		strh	r5, [r0, #28]	@ movhi
 938              		.loc 1 967 0
 939 000c 4283     		strh	r2, [r0, #26]	@ movhi
 940              		.loc 1 971 0
 941 000e 13FB05F5 		smulbb	r5, r3, r5
 942              	.LVL54:
 943              		.loc 1 967 0
 944 0012 0283     		strh	r2, [r0, #24]	@ movhi
 945              		.loc 1 970 0
 946 0014 0185     		strh	r1, [r0, #40]	@ movhi
 947              	.LBE59:
 948              		.loc 1 924 0
ARM GAS  /tmp/cckLBHkD.s 			page 18


 949 0016 0446     		mov	r4, r0
 950              	.LBB60:
 951              		.loc 1 973 0
 952 0018 FFF7FEFF 		bl	gdisp_lld_write_start
 953              	.LVL55:
 954              		.loc 1 980 0
 955 001c 8DB1     		cbz	r5, .L76
 956 001e 691E     		subs	r1, r5, #1
 957 0020 0E46     		mov	r6, r1
 958              		.loc 1 981 0
 959 0022 2046     		mov	r0, r4
 960 0024 01F00105 		and	r5, r1, #1
 961              	.LVL56:
 962 0028 FFF7FEFF 		bl	gdisp_lld_write_color
 963              	.LVL57:
 964              		.loc 1 980 0
 965 002c 4EB1     		cbz	r6, .L76
 966 002e 1DB9     		cbnz	r5, .L86
 967              	.L78:
 968              		.loc 1 981 0 discriminator 2
 969 0030 2046     		mov	r0, r4
 970 0032 FFF7FEFF 		bl	gdisp_lld_write_color
 971              		.loc 1 980 0 discriminator 2
 972 0036 013E     		subs	r6, r6, #1
 973              	.L86:
 974              		.loc 1 981 0 discriminator 2
 975 0038 2046     		mov	r0, r4
 976 003a FFF7FEFF 		bl	gdisp_lld_write_color
 977              		.loc 1 980 0 discriminator 2
 978 003e 013E     		subs	r6, r6, #1
 979 0040 F6D1     		bne	.L78
 980              	.L76:
 981              		.loc 1 982 0
 982 0042 2046     		mov	r0, r4
 983              	.LBE60:
 984              		.loc 1 1005 0
 985 0044 BDE87040 		pop	{r4, r5, r6, lr}
 986              	.LBB61:
 987              		.loc 1 982 0
 988 0048 FFF7FEBF 		b	gdisp_lld_write_stop
 989              	.LBE61:
 990              		.cfi_endproc
 991              	.LFE130:
 992              		.size	gdispGClear, .-gdispGClear
 993 004c AFF30080 		.section	.text.gdispGFillArea,"ax",%progbits
 994              		.align	2
 995              		.p2align 4,,15
 996              		.global	gdispGFillArea
 997              		.thumb
 998              		.thumb_func
 999              		.type	gdispGFillArea, %function
 1000              	gdispGFillArea:
 1001              	.LFB131:
 1002              		.loc 1 1007 0
 1003              		.cfi_startproc
 1004              		@ args = 8, pretend = 0, frame = 0
 1005              		@ frame_needed = 0, uses_anonymous_args = 0
ARM GAS  /tmp/cckLBHkD.s 			page 19


 1006              	.LVL58:
 1007 0000 2DE9F041 		push	{r4, r5, r6, r7, r8, lr}
 1008              	.LCFI6:
 1009              		.cfi_def_cfa_offset 24
 1010              		.loc 1 1007 0
 1011 0004 BDF81850 		ldrh	r5, [sp, #24]
 1012              		.cfi_offset 14, -4
 1013              		.cfi_offset 8, -8
 1014              		.cfi_offset 7, -12
 1015              		.cfi_offset 6, -16
 1016              		.cfi_offset 5, -20
 1017              		.cfi_offset 4, -24
 1018 0008 BDF81C70 		ldrh	r7, [sp, #28]
 1019              		.loc 1 1009 0
 1020 000c 0183     		strh	r1, [r0, #24]	@ movhi
 1021              		.loc 1 1007 0
 1022 000e 2EB2     		sxth	r6, r5
 1023              	.LBB62:
 1024              	.LBB64:
 1025              		.loc 1 226 0
 1026 0010 06FB03F6 		mul	r6, r6, r3
 1027              	.LBE64:
 1028              	.LBE62:
 1029              		.loc 1 1010 0
 1030 0014 4283     		strh	r2, [r0, #26]	@ movhi
 1031              		.loc 1 1011 0
 1032 0016 8383     		strh	r3, [r0, #28]	@ movhi
 1033              		.loc 1 1012 0
 1034 0018 C583     		strh	r5, [r0, #30]	@ movhi
 1035              		.loc 1 1013 0
 1036 001a 0785     		strh	r7, [r0, #40]	@ movhi
 1037              		.loc 1 1007 0
 1038 001c 0446     		mov	r4, r0
 1039              	.LVL59:
 1040              	.LBB66:
 1041              	.LBB63:
 1042              		.loc 1 227 0
 1043 001e FFF7FEFF 		bl	gdisp_lld_write_start
 1044              	.LVL60:
 1045              		.loc 1 234 0
 1046 0022 8EB1     		cbz	r6, .L88
 1047 0024 711E     		subs	r1, r6, #1
 1048 0026 0D46     		mov	r5, r1
 1049              		.loc 1 235 0
 1050 0028 2046     		mov	r0, r4
 1051 002a 01F00106 		and	r6, r1, #1
 1052              	.LVL61:
 1053 002e FFF7FEFF 		bl	gdisp_lld_write_color
 1054              	.LVL62:
 1055              		.loc 1 234 0
 1056 0032 4DB1     		cbz	r5, .L88
 1057 0034 1EB9     		cbnz	r6, .L98
 1058              	.LVL63:
 1059              	.L90:
 1060              		.loc 1 235 0
 1061 0036 2046     		mov	r0, r4
 1062 0038 FFF7FEFF 		bl	gdisp_lld_write_color
ARM GAS  /tmp/cckLBHkD.s 			page 20


 1063              		.loc 1 234 0
 1064 003c 013D     		subs	r5, r5, #1
 1065              	.L98:
 1066              		.loc 1 235 0
 1067 003e 2046     		mov	r0, r4
 1068 0040 FFF7FEFF 		bl	gdisp_lld_write_color
 1069              		.loc 1 234 0
 1070 0044 013D     		subs	r5, r5, #1
 1071 0046 F6D1     		bne	.L90
 1072              	.L88:
 1073              		.loc 1 236 0
 1074 0048 2046     		mov	r0, r4
 1075              	.LBE63:
 1076              	.LBE66:
 1077              		.loc 1 1019 0
 1078 004a BDE8F041 		pop	{r4, r5, r6, r7, r8, lr}
 1079              	.LBB67:
 1080              	.LBB65:
 1081              		.loc 1 236 0
 1082 004e FFF7FEBF 		b	gdisp_lld_write_stop
 1083              	.LBE65:
 1084              	.LBE67:
 1085              		.cfi_endproc
 1086              	.LFE131:
 1087              		.size	gdispGFillArea, .-gdispGFillArea
 1088 0052 00BFAFF3 		.section	.text._gdispInit,"ax",%progbits
 1088      0080AFF3 
 1088      0080AFF3 
 1088      0080
 1089              		.align	2
 1090              		.p2align 4,,15
 1091              		.global	_gdispInit
 1092              		.thumb
 1093              		.thumb_func
 1094              		.type	_gdispInit, %function
 1095              	_gdispInit:
 1096              	.LFB124:
 1097              		.loc 1 570 0
 1098              		.cfi_startproc
 1099              		@ args = 0, pretend = 0, frame = 40
 1100              		@ frame_needed = 0, uses_anonymous_args = 0
 1101              	.LVL64:
 1102 0000 2DE9F04F 		push	{r4, r5, r6, r7, r8, r9, sl, fp, lr}
 1103              	.LCFI7:
 1104              		.cfi_def_cfa_offset 36
 1105              		.loc 1 585 0
 1106 0004 40F20004 		movw	r4, #:lower16:.LANCHOR0
 1107              		.cfi_offset 14, -4
 1108              		.cfi_offset 11, -8
 1109              		.cfi_offset 10, -12
 1110              		.cfi_offset 9, -16
 1111              		.cfi_offset 8, -20
 1112              		.cfi_offset 7, -24
 1113              		.cfi_offset 6, -28
 1114              		.cfi_offset 5, -32
 1115              		.cfi_offset 4, -36
 1116 0008 C0F20004 		movt	r4, #:upper16:.LANCHOR0
ARM GAS  /tmp/cckLBHkD.s 			page 21


 1117 000c 0025     		movs	r5, #0
 1118              		.loc 1 570 0
 1119 000e 8DB0     		sub	sp, sp, #52
 1120              	.LCFI8:
 1121              		.cfi_def_cfa_offset 88
 1122              		.loc 1 591 0
 1123 0010 2046     		mov	r0, r4
 1124              		.loc 1 585 0
 1125 0012 2575     		strb	r5, [r4, #20]
 1126              		.loc 1 586 0
 1127 0014 6575     		strb	r5, [r4, #21]
 1128              		.loc 1 590 0
 1129 0016 E582     		strh	r5, [r4, #22]	@ movhi
 1130              		.loc 1 591 0
 1131 0018 FFF7FEFF 		bl	gdisp_lld_init
 1132              		.loc 1 603 0
 1133 001c 2046     		mov	r0, r4
 1134 001e 2946     		mov	r1, r5
 1135 0020 FFF7FEFF 		bl	gdispGClear
 1136              	.LVL65:
 1137              	.LBB68:
 1138              	.LBB69:
 1139              		.loc 1 544 0
 1140 0024 B4F90060 		ldrsh	r6, [r4, #0]
 1141 0028 06F13F00 		add	r0, r6, #63
 1142 002c AE42     		cmp	r6, r5
 1143 002e A8BF     		it	ge
 1144 0030 3046     		movge	r0, r6
 1145 0032 C0F38F10 		ubfx	r0, r0, #6, #16
 1146              	.LVL66:
 1147              		.loc 1 545 0
 1148 0036 4FF00108 		mov	r8, #1
 1149 003a 6FF00F01 		mvn	r1, #15
 1150 003e 6FF01F02 		mvn	r2, #31
 1151 0042 30B1     		cbz	r0, .L100
 1152 0044 03B2     		sxth	r3, r0
 1153 0046 5A01     		lsls	r2, r3, #5
 1154 0048 1901     		lsls	r1, r3, #4
 1155 004a 5242     		negs	r2, r2
 1156 004c 4942     		negs	r1, r1
 1157 004e 1FFA80F8 		uxth	r8, r0
 1158              	.L100:
 1159              	.LVL67:
 1160              		.loc 1 547 0
 1161 0052 B4F90270 		ldrsh	r7, [r4, #2]
 1162              		.loc 1 551 0
 1163 0056 4FEA480C 		lsl	ip, r8, #1
 1164              		.loc 1 547 0
 1165 005a CB19     		adds	r3, r1, r7
 1166              		.loc 1 551 0
 1167 005c 0CEB0800 		add	r0, ip, r8
 1168              		.loc 1 546 0
 1169 0060 02EB060A 		add	sl, r2, r6
 1170              		.loc 1 547 0
 1171 0064 03EBD37B 		add	fp, r3, r3, lsr #31
 1172              		.loc 1 545 0
 1173 0068 CBF34F05 		ubfx	r5, fp, #1, #16
ARM GAS  /tmp/cckLBHkD.s 			page 22


 1174              		.loc 1 546 0
 1175 006c 0AEBDA76 		add	r6, sl, sl, lsr #31
 1176              		.loc 1 551 0
 1177 0070 4FEA400B 		lsl	fp, r0, #1
 1178 0074 4FEA880A 		lsl	sl, r8, #2
 1179              		.loc 1 545 0
 1180 0078 C6F34F06 		ubfx	r6, r6, #1, #16
 1181              		.loc 1 551 0
 1182 007c 0AEB0804 		add	r4, sl, r8
 1183 0080 05EB0B09 		add	r9, r5, fp
 1184 0084 0FFA89F9 		sxth	r9, r9
 1185 0088 06EB0C02 		add	r2, r6, ip
 1186 008c 6700     		lsls	r7, r4, #1
 1187 008e 0490     		str	r0, [sp, #16]
 1188              		.loc 1 545 0
 1189 0090 0595     		str	r5, [sp, #20]
 1190              		.loc 1 551 0
 1191 0092 40F20000 		movw	r0, #:lower16:.LANCHOR0
 1192 0096 0FFA88F5 		sxth	r5, r8
 1193 009a 07EB080E 		add	lr, r7, r8
 1194 009e 0394     		str	r4, [sp, #12]
 1195 00a0 11B2     		sxth	r1, r2
 1196 00a2 1F24     		movs	r4, #31
 1197 00a4 4A46     		mov	r2, r9
 1198 00a6 2B46     		mov	r3, r5
 1199 00a8 C0F20000 		movt	r0, #:upper16:.LANCHOR0
 1200 00ac 3FB2     		sxth	r7, r7
 1201 00ae CDF820E0 		str	lr, [sp, #32]
 1202 00b2 0097     		str	r7, [sp, #0]
 1203 00b4 CDF808C0 		str	ip, [sp, #8]
 1204 00b8 0194     		str	r4, [sp, #4]
 1205 00ba FFF7FEFF 		bl	gdispGFillArea
 1206              	.LVL68:
 1207 00be 059B     		ldr	r3, [sp, #20]
 1208 00c0 0899     		ldr	r1, [sp, #32]
 1209 00c2 0498     		ldr	r0, [sp, #16]
 1210 00c4 0095     		str	r5, [sp, #0]
 1211 00c6 03EB010C 		add	ip, r3, r1
 1212 00ca 0FFA8CF7 		sxth	r7, ip
 1213 00ce 0997     		str	r7, [sp, #36]
 1214 00d0 3218     		adds	r2, r6, r0
 1215 00d2 40F20000 		movw	r0, #:lower16:.LANCHOR0
 1216 00d6 11B2     		sxth	r1, r2
 1217 00d8 0FFA8AF3 		sxth	r3, sl
 1218 00dc 099A     		ldr	r2, [sp, #36]
 1219 00de 0194     		str	r4, [sp, #4]
 1220 00e0 C0F20000 		movt	r0, #:upper16:.LANCHOR0
 1221 00e4 FFF7FEFF 		bl	gdispGFillArea
 1222              	.LVL69:
 1223 00e8 049F     		ldr	r7, [sp, #16]
 1224 00ea DDF814A0 		ldr	sl, [sp, #20]
 1225 00ee 0194     		str	r4, [sp, #4]
 1226 00f0 06EB0B03 		add	r3, r6, fp
 1227 00f4 4FEAC801 		lsl	r1, r8, #3
 1228 00f8 40F20000 		movw	r0, #:lower16:.LANCHOR0
 1229 00fc 0FFA8BFB 		sxth	fp, fp
 1230 0100 BF00     		lsls	r7, r7, #2
ARM GAS  /tmp/cckLBHkD.s 			page 23


 1231 0102 0691     		str	r1, [sp, #24]
 1232 0104 4A46     		mov	r2, r9
 1233 0106 19B2     		sxth	r1, r3
 1234 0108 C0F20000 		movt	r0, #:upper16:.LANCHOR0
 1235 010c 2B46     		mov	r3, r5
 1236 010e 0797     		str	r7, [sp, #28]
 1237 0110 CDF800B0 		str	fp, [sp, #0]
 1238 0114 FFF7FEFF 		bl	gdispGFillArea
 1239              	.LVL70:
 1240 0118 DDF818C0 		ldr	ip, [sp, #24]
 1241 011c 0194     		str	r4, [sp, #4]
 1242 011e 3AB2     		sxth	r2, r7
 1243 0120 0A92     		str	r2, [sp, #40]
 1244 0122 0FFA8AFA 		sxth	sl, sl
 1245 0126 06EB0C01 		add	r1, r6, ip
 1246 012a 0A9F     		ldr	r7, [sp, #40]
 1247 012c 40F20000 		movw	r0, #:lower16:.LANCHOR0
 1248 0130 5246     		mov	r2, sl
 1249 0132 2B46     		mov	r3, r5
 1250 0134 C0F20000 		movt	r0, #:upper16:.LANCHOR0
 1251 0138 09B2     		sxth	r1, r1
 1252 013a 0097     		str	r7, [sp, #0]
 1253 013c FFF7FEFF 		bl	gdispGFillArea
 1254              	.LVL71:
 1255 0140 DDF818E0 		ldr	lr, [sp, #24]
 1256 0144 0095     		str	r5, [sp, #0]
 1257 0146 0EEB080C 		add	ip, lr, r8
 1258 014a 06EB0C0E 		add	lr, r6, ip
 1259 014e 0FFA8EF7 		sxth	r7, lr
 1260 0152 40F20000 		movw	r0, #:lower16:.LANCHOR0
 1261 0156 3946     		mov	r1, r7
 1262 0158 5246     		mov	r2, sl
 1263 015a 5B46     		mov	r3, fp
 1264 015c C0F20000 		movt	r0, #:upper16:.LANCHOR0
 1265 0160 0194     		str	r4, [sp, #4]
 1266 0162 FFF7FEFF 		bl	gdispGFillArea
 1267              	.LVL72:
 1268 0166 069B     		ldr	r3, [sp, #24]
 1269 0168 0095     		str	r5, [sp, #0]
 1270 016a C8EB0302 		rsb	r2, r8, r3
 1271 016e 40F20000 		movw	r0, #:lower16:.LANCHOR0
 1272 0172 0692     		str	r2, [sp, #24]
 1273 0174 3946     		mov	r1, r7
 1274 0176 099A     		ldr	r2, [sp, #36]
 1275 0178 0194     		str	r4, [sp, #4]
 1276 017a 5B46     		mov	r3, fp
 1277 017c C0F20000 		movt	r0, #:upper16:.LANCHOR0
 1278 0180 FFF7FEFF 		bl	gdispGFillArea
 1279              	.LVL73:
 1280 0184 0399     		ldr	r1, [sp, #12]
 1281 0186 0698     		ldr	r0, [sp, #24]
 1282 0188 0194     		str	r4, [sp, #4]
 1283 018a 0BB2     		sxth	r3, r1
 1284 018c 0393     		str	r3, [sp, #12]
 1285 018e 06EB4002 		add	r2, r6, r0, lsl #1
 1286 0192 039F     		ldr	r7, [sp, #12]
 1287 0194 40F20000 		movw	r0, #:lower16:.LANCHOR0
ARM GAS  /tmp/cckLBHkD.s 			page 24


 1288 0198 11B2     		sxth	r1, r2
 1289 019a 2B46     		mov	r3, r5
 1290 019c 4A46     		mov	r2, r9
 1291 019e C0F20000 		movt	r0, #:upper16:.LANCHOR0
 1292 01a2 0097     		str	r7, [sp, #0]
 1293 01a4 FFF7FEFF 		bl	gdispGFillArea
 1294              	.LVL74:
 1295 01a8 DDF81CC0 		ldr	ip, [sp, #28]
 1296 01ac DDF808E0 		ldr	lr, [sp, #8]
 1297 01b0 0095     		str	r5, [sp, #0]
 1298 01b2 06EB0C01 		add	r1, r6, ip
 1299 01b6 40F20000 		movw	r0, #:lower16:.LANCHOR0
 1300 01ba 0FFA8EF3 		sxth	r3, lr
 1301 01be 4FEA0817 		lsl	r7, r8, #4
 1302 01c2 4A46     		mov	r2, r9
 1303 01c4 C0F20000 		movt	r0, #:upper16:.LANCHOR0
 1304 01c8 09B2     		sxth	r1, r1
 1305 01ca 0997     		str	r7, [sp, #36]
 1306 01cc 0194     		str	r4, [sp, #4]
 1307 01ce FFF7FEFF 		bl	gdispGFillArea
 1308              	.LVL75:
 1309 01d2 F319     		adds	r3, r6, r7
 1310 01d4 40F20000 		movw	r0, #:lower16:.LANCHOR0
 1311 01d8 0A9F     		ldr	r7, [sp, #40]
 1312 01da 0194     		str	r4, [sp, #4]
 1313 01dc 19B2     		sxth	r1, r3
 1314 01de 5246     		mov	r2, sl
 1315 01e0 2B46     		mov	r3, r5
 1316 01e2 C0F20000 		movt	r0, #:upper16:.LANCHOR0
 1317 01e6 0097     		str	r7, [sp, #0]
 1318 01e8 FFF7FEFF 		bl	gdispGFillArea
 1319              	.LVL76:
 1320 01ec DDF824C0 		ldr	ip, [sp, #36]
 1321 01f0 0095     		str	r5, [sp, #0]
 1322 01f2 0CEB0802 		add	r2, ip, r8
 1323 01f6 B118     		adds	r1, r6, r2
 1324 01f8 0FB2     		sxth	r7, r1
 1325 01fa 40F20000 		movw	r0, #:lower16:.LANCHOR0
 1326 01fe 3946     		mov	r1, r7
 1327 0200 5246     		mov	r2, sl
 1328 0202 5B46     		mov	r3, fp
 1329 0204 C0F20000 		movt	r0, #:upper16:.LANCHOR0
 1330 0208 0194     		str	r4, [sp, #4]
 1331 020a FFF7FEFF 		bl	gdispGFillArea
 1332              	.LVL77:
 1333 020e 049B     		ldr	r3, [sp, #16]
 1334 0210 0095     		str	r5, [sp, #0]
 1335 0212 40F20000 		movw	r0, #:lower16:.LANCHOR0
 1336 0216 3946     		mov	r1, r7
 1337 0218 4A46     		mov	r2, r9
 1338 021a C0F20000 		movt	r0, #:upper16:.LANCHOR0
 1339 021e 1BB2     		sxth	r3, r3
 1340 0220 0194     		str	r4, [sp, #4]
 1341 0222 FFF7FEFF 		bl	gdispGFillArea
 1342              	.LVL78:
 1343 0226 DDF820E0 		ldr	lr, [sp, #32]
 1344 022a 069F     		ldr	r7, [sp, #24]
ARM GAS  /tmp/cckLBHkD.s 			page 25


 1345 022c 0095     		str	r5, [sp, #0]
 1346 022e 06EB4E00 		add	r0, r6, lr, lsl #1
 1347 0232 0FFA80FC 		sxth	ip, r0
 1348 0236 40F20000 		movw	r0, #:lower16:.LANCHOR0
 1349 023a 6146     		mov	r1, ip
 1350 023c 4A46     		mov	r2, r9
 1351 023e 3BB2     		sxth	r3, r7
 1352 0240 C0F20000 		movt	r0, #:upper16:.LANCHOR0
 1353 0244 CDF808C0 		str	ip, [sp, #8]
 1354 0248 0194     		str	r4, [sp, #4]
 1355 024a FFF7FEFF 		bl	gdispGFillArea
 1356              	.LVL79:
 1357 024e DDF810E0 		ldr	lr, [sp, #16]
 1358 0252 CDF800B0 		str	fp, [sp, #0]
 1359 0256 06EBCE09 		add	r9, r6, lr, lsl #3
 1360 025a 40F20000 		movw	r0, #:lower16:.LANCHOR0
 1361 025e 0FFA89F1 		sxth	r1, r9
 1362 0262 5246     		mov	r2, sl
 1363 0264 2B46     		mov	r3, r5
 1364 0266 C0F20000 		movt	r0, #:upper16:.LANCHOR0
 1365 026a 0194     		str	r4, [sp, #4]
 1366 026c FFF7FEFF 		bl	gdispGFillArea
 1367              	.LVL80:
 1368 0270 059B     		ldr	r3, [sp, #20]
 1369 0272 069A     		ldr	r2, [sp, #24]
 1370 0274 DDF808C0 		ldr	ip, [sp, #8]
 1371 0278 0194     		str	r4, [sp, #4]
 1372 027a 9F18     		adds	r7, r3, r2
 1373 027c 0FFA87F9 		sxth	r9, r7
 1374 0280 40F20000 		movw	r0, #:lower16:.LANCHOR0
 1375 0284 039F     		ldr	r7, [sp, #12]
 1376 0286 6146     		mov	r1, ip
 1377 0288 4A46     		mov	r2, r9
 1378 028a 2B46     		mov	r3, r5
 1379 028c C0F20000 		movt	r0, #:upper16:.LANCHOR0
 1380 0290 0097     		str	r7, [sp, #0]
 1381 0292 FFF7FEFF 		bl	gdispGFillArea
 1382              	.LVL81:
 1383 0296 DDF818C0 		ldr	ip, [sp, #24]
 1384 029a CDF800B0 		str	fp, [sp, #0]
 1385 029e 06EB8C0E 		add	lr, r6, ip, lsl #2
 1386 02a2 40F20000 		movw	r0, #:lower16:.LANCHOR0
 1387 02a6 0FFA8EF1 		sxth	r1, lr
 1388 02aa 5246     		mov	r2, sl
 1389 02ac 2B46     		mov	r3, r5
 1390 02ae C0F20000 		movt	r0, #:upper16:.LANCHOR0
 1391 02b2 0194     		str	r4, [sp, #4]
 1392 02b4 FFF7FEFF 		bl	gdispGFillArea
 1393              	.LVL82:
 1394 02b8 0799     		ldr	r1, [sp, #28]
 1395 02ba 0097     		str	r7, [sp, #0]
 1396 02bc 01EB0800 		add	r0, r1, r8
 1397 02c0 06EB400C 		add	ip, r6, r0, lsl #1
 1398 02c4 40F20000 		movw	r0, #:lower16:.LANCHOR0
 1399 02c8 0FFA8CF1 		sxth	r1, ip
 1400 02cc 4A46     		mov	r2, r9
 1401 02ce 2B46     		mov	r3, r5
ARM GAS  /tmp/cckLBHkD.s 			page 26


 1402 02d0 C0F20000 		movt	r0, #:upper16:.LANCHOR0
 1403 02d4 0194     		str	r4, [sp, #4]
 1404 02d6 FFF7FEFF 		bl	gdispGFillArea
 1405              	.LVL83:
 1406              	.LBE69:
 1407              	.LBE68:
 1408              		.loc 1 614 0
 1409 02da 4FF47A70 		mov	r0, #1000
 1410 02de FFF7FEFF 		bl	gfxSleepMilliseconds
 1411              	.LVL84:
 1412              		.loc 1 616 0
 1413 02e2 40F20000 		movw	r0, #:lower16:.LANCHOR0
 1414 02e6 C0F20000 		movt	r0, #:upper16:.LANCHOR0
 1415 02ea 0021     		movs	r1, #0
 1416              		.loc 1 628 0
 1417 02ec 0DB0     		add	sp, sp, #52
 1418 02ee BDE8F04F 		pop	{r4, r5, r6, r7, r8, r9, sl, fp, lr}
 1419              		.loc 1 616 0
 1420 02f2 FFF7FEBF 		b	gdispGClear
 1421              		.cfi_endproc
 1422              	.LFE124:
 1423              		.size	_gdispInit, .-_gdispInit
 1424 02f6 00BFAFF3 		.section	.text.gdispGBlitArea,"ax",%progbits
 1424      0080AFF3 
 1424      0080
 1425              		.align	2
 1426              		.p2align 4,,15
 1427              		.global	gdispGBlitArea
 1428              		.thumb
 1429              		.thumb_func
 1430              		.type	gdispGBlitArea, %function
 1431              	gdispGBlitArea:
 1432              	.LFB132:
 1433              		.loc 1 1021 0
 1434              		.cfi_startproc
 1435              		@ args = 20, pretend = 0, frame = 8
 1436              		@ frame_needed = 0, uses_anonymous_args = 0
 1437              	.LVL85:
 1438 0000 2DE9F04F 		push	{r4, r5, r6, r7, r8, r9, sl, fp, lr}
 1439              	.LCFI9:
 1440              		.cfi_def_cfa_offset 36
 1441 0004 83B0     		sub	sp, sp, #12
 1442              	.LCFI10:
 1443              		.cfi_def_cfa_offset 48
 1444              		.loc 1 1068 0
 1445 0006 1FFA83FB 		uxth	fp, r3
 1446              		.cfi_offset 14, -4
 1447              		.cfi_offset 11, -8
 1448              		.cfi_offset 10, -12
 1449              		.cfi_offset 9, -16
 1450              		.cfi_offset 8, -20
 1451              		.cfi_offset 7, -24
 1452              		.cfi_offset 6, -28
 1453              		.cfi_offset 5, -32
 1454              		.cfi_offset 4, -36
 1455              		.loc 1 1021 0
 1456 000a 109C     		ldr	r4, [sp, #64]
ARM GAS  /tmp/cckLBHkD.s 			page 27


 1457 000c BDF830E0 		ldrh	lr, [sp, #48]
 1458 0010 0194     		str	r4, [sp, #4]
 1459 0012 0446     		mov	r4, r0
 1460              		.loc 1 1069 0
 1461 0014 02EB0E0A 		add	sl, r2, lr
 1462              		.loc 1 1021 0
 1463 0018 8946     		mov	r9, r1
 1464              		.loc 1 1068 0
 1465 001a 5944     		add	r1, fp, r1
 1466              	.LVL86:
 1467              		.loc 1 1021 0
 1468 001c 9046     		mov	r8, r2
 1469              		.loc 1 1073 0
 1470 001e 6283     		strh	r2, [r4, #26]	@ movhi
 1471              		.loc 1 1069 0
 1472 0020 0FFA8AFA 		sxth	sl, sl
 1473              		.loc 1 1068 0
 1474 0024 0AB2     		sxth	r2, r1
 1475              	.LVL87:
 1476              		.loc 1 1072 0
 1477 0026 A0F81890 		strh	r9, [r0, #24]	@ movhi
 1478              		.loc 1 1074 0
 1479 002a 8383     		strh	r3, [r0, #28]	@ movhi
 1480              		.loc 1 1075 0
 1481 002c A0F81EE0 		strh	lr, [r0, #30]	@ movhi
 1482              		.loc 1 1021 0
 1483 0030 BDF83860 		ldrh	r6, [sp, #56]
 1484 0034 BDF83C50 		ldrh	r5, [sp, #60]
 1485              	.LVL88:
 1486 0038 BDF93470 		ldrsh	r7, [sp, #52]
 1487              		.loc 1 1068 0
 1488 003c 0092     		str	r2, [sp, #0]
 1489              	.LVL89:
 1490              		.loc 1 1076 0
 1491 003e FFF7FEFF 		bl	gdisp_lld_write_start
 1492              	.LVL90:
 1493              		.loc 1 1083 0
 1494 0042 D045     		cmp	r8, sl
 1495 0044 A4F81A80 		strh	r8, [r4, #26]	@ movhi
 1496 0048 29DA     		bge	.L103
 1497              		.loc 1 1067 0
 1498 004a 15FB0673 		smlabb	r3, r5, r6, r7
 1499              		.loc 1 1070 0
 1500 004e CBEB050C 		rsb	ip, fp, r5
 1501              		.loc 1 1067 0
 1502 0052 019E     		ldr	r6, [sp, #4]
 1503              		.loc 1 1070 0
 1504 0054 0FFA8CF0 		sxth	r0, ip
 1505              		.loc 1 1067 0
 1506 0058 06EB4303 		add	r3, r6, r3, lsl #1
 1507              		.loc 1 1070 0
 1508 005c 4600     		lsls	r6, r0, #1
 1509              	.LVL91:
 1510              	.L106:
 1511              		.loc 1 1084 0
 1512 005e 009A     		ldr	r2, [sp, #0]
 1513 0060 A4F81890 		strh	r9, [r4, #24]	@ movhi
ARM GAS  /tmp/cckLBHkD.s 			page 28


 1514              	.LVL92:
 1515 0064 9145     		cmp	r9, r2
 1516 0066 10DA     		bge	.L104
 1517 0068 1D46     		mov	r5, r3
 1518              	.L105:
 1519              		.loc 1 1085 0 discriminator 2
 1520 006a 35F802EB 		ldrh	lr, [r5], #2
 1521              		.loc 1 1086 0 discriminator 2
 1522 006e 2046     		mov	r0, r4
 1523              		.loc 1 1085 0 discriminator 2
 1524 0070 A4F828E0 		strh	lr, [r4, #40]	@ movhi
 1525              		.loc 1 1086 0 discriminator 2
 1526 0074 FFF7FEFF 		bl	gdisp_lld_write_color
 1527              	.LVL93:
 1528              		.loc 1 1084 0 discriminator 2
 1529 0078 218B     		ldrh	r1, [r4, #24]
 1530 007a 4A1C     		adds	r2, r1, #1
 1531 007c 93B2     		uxth	r3, r2
 1532 007e 0099     		ldr	r1, [sp, #0]
 1533 0080 2383     		strh	r3, [r4, #24]	@ movhi
 1534 0082 18B2     		sxth	r0, r3
 1535 0084 8142     		cmp	r1, r0
 1536              		.loc 1 1085 0 discriminator 2
 1537 0086 2B46     		mov	r3, r5
 1538              	.LVL94:
 1539              		.loc 1 1084 0 discriminator 2
 1540 0088 EFDC     		bgt	.L105
 1541              	.LVL95:
 1542              	.L104:
 1543              		.loc 1 1083 0
 1544 008a 618B     		ldrh	r1, [r4, #26]
 1545 008c 4A1C     		adds	r2, r1, #1
 1546 008e 90B2     		uxth	r0, r2
 1547 0090 0FFA80FC 		sxth	ip, r0
 1548 0094 E245     		cmp	sl, ip
 1549 0096 6083     		strh	r0, [r4, #26]	@ movhi
 1550              	.LVL96:
 1551 0098 01DD     		ble	.L103
 1552 009a 9B19     		adds	r3, r3, r6
 1553 009c DFE7     		b	.L106
 1554              	.L103:
 1555              		.loc 1 1089 0
 1556 009e 2046     		mov	r0, r4
 1557              		.loc 1 1155 0
 1558 00a0 03B0     		add	sp, sp, #12
 1559 00a2 BDE8F04F 		pop	{r4, r5, r6, r7, r8, r9, sl, fp, lr}
 1560              		.loc 1 1089 0
 1561 00a6 FFF7FEBF 		b	gdisp_lld_write_stop
 1562              		.cfi_endproc
 1563              	.LFE132:
 1564              		.size	gdispGBlitArea, .-gdispGBlitArea
 1565 00aa 00BFAFF3 		.section	.text.gdispGDrawBox,"ax",%progbits
 1565      0080
 1566              		.align	2
 1567              		.p2align 4,,15
 1568              		.global	gdispGDrawBox
 1569              		.thumb
ARM GAS  /tmp/cckLBHkD.s 			page 29


 1570              		.thumb_func
 1571              		.type	gdispGDrawBox, %function
 1572              	gdispGDrawBox:
 1573              	.LFB133:
 1574              		.loc 1 2438 0
 1575              		.cfi_startproc
 1576              		@ args = 8, pretend = 0, frame = 0
 1577              		@ frame_needed = 0, uses_anonymous_args = 0
 1578              	.LVL97:
 1579 0000 2DE9F047 		push	{r4, r5, r6, r7, r8, r9, sl, lr}
 1580              	.LCFI11:
 1581              		.cfi_def_cfa_offset 32
 1582              		.loc 1 2438 0
 1583 0004 BDF82040 		ldrh	r4, [sp, #32]
 1584              		.cfi_offset 14, -4
 1585              		.cfi_offset 10, -8
 1586              		.cfi_offset 9, -12
 1587              		.cfi_offset 8, -16
 1588              		.cfi_offset 7, -20
 1589              		.cfi_offset 6, -24
 1590              		.cfi_offset 5, -28
 1591              		.cfi_offset 4, -32
 1592 0008 BDF82450 		ldrh	r5, [sp, #36]
 1593              		.loc 1 2439 0
 1594 000c 002B     		cmp	r3, #0
 1595 000e CCBF     		ite	gt
 1596 0010 0026     		movgt	r6, #0
 1597 0012 0126     		movle	r6, #1
 1598              		.loc 1 2438 0
 1599 0014 27B2     		sxth	r7, r4
 1600              		.loc 1 2439 0
 1601 0016 002F     		cmp	r7, #0
 1602 0018 CCBF     		ite	gt
 1603 001a 3746     		movgt	r7, r6
 1604 001c 46F00107 		orrle	r7, r6, #1
 1605              		.loc 1 2438 0
 1606 0020 8846     		mov	r8, r1
 1607 0022 0646     		mov	r6, r0
 1608 0024 9146     		mov	r9, r2
 1609              		.loc 1 2439 0
 1610 0026 002F     		cmp	r7, #0
 1611 0028 41D1     		bne	.L108
 1612              		.loc 1 2440 0
 1613 002a 01F1FF3C 		add	ip, r1, #-1
 1614 002e 0CEB0302 		add	r2, ip, r3
 1615              	.LVL98:
 1616 0032 17B2     		sxth	r7, r2
 1617              	.LVL99:
 1618 0034 09F1FF31 		add	r1, r9, #-1
 1619              	.LVL100:
 1620              		.loc 1 2446 0
 1621 0038 C8EB0703 		rsb	r3, r8, r7
 1622              		.loc 1 2440 0
 1623 003c 0C19     		adds	r4, r1, r4
 1624              		.loc 1 2446 0
 1625 003e 022B     		cmp	r3, #2
 1626              		.loc 1 2444 0
ARM GAS  /tmp/cckLBHkD.s 			page 30


 1627 0040 0585     		strh	r5, [r0, #40]	@ movhi
 1628              		.loc 1 2440 0
 1629 0042 24B2     		sxth	r4, r4
 1630              	.LVL101:
 1631              		.loc 1 2446 0
 1632 0044 2ADD     		ble	.L110
 1633              		.loc 1 2447 0
 1634 0046 A0F81880 		strh	r8, [r0, #24]	@ movhi
 1635 004a A0F81A90 		strh	r9, [r0, #26]	@ movhi
 1636 004e 3784     		strh	r7, [r6, #32]	@ movhi
 1637 0050 FFF7FEFF 		bl	hline_clip
 1638              	.LVL102:
 1639              		.loc 1 2448 0
 1640 0054 A145     		cmp	r9, r4
 1641 0056 2AD0     		beq	.L108
 1642              		.loc 1 2449 0
 1643 0058 3046     		mov	r0, r6
 1644 005a A6F81880 		strh	r8, [r6, #24]	@ movhi
 1645 005e 7483     		strh	r4, [r6, #26]	@ movhi
 1646 0060 3784     		strh	r7, [r6, #32]	@ movhi
 1647 0062 FFF7FEFF 		bl	hline_clip
 1648              		.loc 1 2450 0
 1649 0066 C9EB0400 		rsb	r0, r9, r4
 1650 006a 0228     		cmp	r0, #2
 1651 006c 1FDD     		ble	.L108
 1652              		.loc 1 2451 0
 1653 006e 09F10109 		add	r9, r9, #1
 1654 0072 013C     		subs	r4, r4, #1
 1655              	.LVL103:
 1656 0074 0FFA89F9 		sxth	r9, r9
 1657              	.LVL104:
 1658 0078 24B2     		sxth	r4, r4
 1659              	.LVL105:
 1660              		.loc 1 2452 0
 1661 007a 3046     		mov	r0, r6
 1662 007c A6F81880 		strh	r8, [r6, #24]	@ movhi
 1663 0080 A6F81A90 		strh	r9, [r6, #26]	@ movhi
 1664 0084 7484     		strh	r4, [r6, #34]	@ movhi
 1665 0086 FFF7FEFF 		bl	vline_clip
 1666              	.LVL106:
 1667              	.L111:
 1668              		.loc 1 2459 0
 1669 008a 3046     		mov	r0, r6
 1670 008c 3783     		strh	r7, [r6, #24]	@ movhi
 1671 008e A6F81A90 		strh	r9, [r6, #26]	@ movhi
 1672 0092 7484     		strh	r4, [r6, #34]	@ movhi
 1673              		.loc 1 2465 0
 1674 0094 BDE8F047 		pop	{r4, r5, r6, r7, r8, r9, sl, lr}
 1675              		.loc 1 2459 0
 1676 0098 FFF7FEBF 		b	vline_clip
 1677              	.LVL107:
 1678              	.L110:
 1679              		.loc 1 2457 0
 1680 009c A0F81880 		strh	r8, [r0, #24]	@ movhi
 1681 00a0 A0F81A90 		strh	r9, [r0, #26]	@ movhi
 1682 00a4 4484     		strh	r4, [r0, #34]	@ movhi
 1683 00a6 FFF7FEFF 		bl	vline_clip
ARM GAS  /tmp/cckLBHkD.s 			page 31


 1684              		.loc 1 2458 0
 1685 00aa B845     		cmp	r8, r7
 1686 00ac EDD1     		bne	.L111
 1687              	.LVL108:
 1688              	.L108:
 1689 00ae BDE8F087 		pop	{r4, r5, r6, r7, r8, r9, sl, pc}
 1690              		.cfi_endproc
 1691              	.LFE133:
 1692              		.size	gdispGDrawBox, .-gdispGDrawBox
 1693 00b2 00BFAFF3 		.section	.text.gdispBlendColor,"ax",%progbits
 1693      0080AFF3 
 1693      0080AFF3 
 1693      0080
 1694              		.align	2
 1695              		.p2align 4,,15
 1696              		.global	gdispBlendColor
 1697              		.thumb
 1698              		.thumb_func
 1699              		.type	gdispBlendColor, %function
 1700              	gdispBlendColor:
 1701              	.LFB134:
 1702              		.loc 1 2984 0
 1703              		.cfi_startproc
 1704              		@ args = 0, pretend = 0, frame = 0
 1705              		@ frame_needed = 0, uses_anonymous_args = 0
 1706              		@ link register save eliminated.
 1707              	.LVL109:
 1708 0000 F0B4     		push	{r4, r5, r6, r7}
 1709              	.LCFI12:
 1710              		.cfi_def_cfa_offset 16
 1711              		.loc 1 2990 0
 1712 0002 00F4FC66 		and	r6, r0, #2016
 1713              		.cfi_offset 7, -4
 1714              		.cfi_offset 6, -8
 1715              		.cfi_offset 5, -12
 1716              		.cfi_offset 4, -16
 1717              		.loc 1 2985 0
 1718 0006 541C     		adds	r4, r2, #1
 1719              	.LVL110:
 1720              		.loc 1 2989 0
 1721 0008 00F47847 		and	r7, r0, #63488
 1722              		.loc 1 2990 0
 1723 000c F310     		asrs	r3, r6, #3
 1724              		.loc 1 2989 0
 1725 000e 3D12     		asrs	r5, r7, #8
 1726              		.loc 1 2990 0
 1727 0010 03FB04F6 		mul	r6, r3, r4
 1728              		.loc 1 2991 0
 1729 0014 C700     		lsls	r7, r0, #3
 1730              		.loc 1 2994 0
 1731 0016 01F4FC63 		and	r3, r1, #2016
 1732              		.loc 1 2986 0
 1733 001a C2F58072 		rsb	r2, r2, #256
 1734              	.LVL111:
 1735 001e 92B2     		uxth	r2, r2
 1736              	.LVL112:
 1737              		.loc 1 2993 0
ARM GAS  /tmp/cckLBHkD.s 			page 32


 1738 0020 01F47840 		and	r0, r1, #63488
 1739              	.LVL113:
 1740              		.loc 1 2994 0
 1741 0024 4FEAE30C 		asr	ip, r3, #3
 1742              		.loc 1 2989 0
 1743 0028 05FB04F5 		mul	r5, r5, r4
 1744              		.loc 1 2990 0
 1745 002c B6B2     		uxth	r6, r6
 1746              		.loc 1 2991 0
 1747 002e 07F0FF07 		and	r7, r7, #255
 1748              		.loc 1 2993 0
 1749 0032 0312     		asrs	r3, r0, #8
 1750              		.loc 1 2989 0
 1751 0034 ADB2     		uxth	r5, r5
 1752              	.LVL114:
 1753              		.loc 1 2994 0
 1754 0036 0CFB0260 		mla	r0, ip, r2, r6
 1755              		.loc 1 2991 0
 1756 003a 07FB04F4 		mul	r4, r7, r4
 1757              	.LVL115:
 1758              		.loc 1 2995 0
 1759 003e C900     		lsls	r1, r1, #3
 1760              	.LVL116:
 1761              		.loc 1 2993 0
 1762 0040 03FB0253 		mla	r3, r3, r2, r5
 1763              		.loc 1 3001 0
 1764 0044 4009     		lsrs	r0, r0, #5
 1765              		.loc 1 2991 0
 1766 0046 A4B2     		uxth	r4, r4
 1767              	.LVL117:
 1768              		.loc 1 2995 0
 1769 0048 01F0FF01 		and	r1, r1, #255
 1770 004c 01FB0241 		mla	r1, r1, r2, r4
 1771              	.LVL118:
 1772              		.loc 1 3001 0
 1773 0050 00F4FC6C 		and	ip, r0, #2016
 1774 0054 03F47843 		and	r3, r3, #63488
 1775              	.LVL119:
 1776 0058 4CEA0300 		orr	r0, ip, r3
 1777 005c C1F3C422 		ubfx	r2, r1, #11, #5
 1778              	.LVL120:
 1779              		.loc 1 3002 0
 1780 0060 1043     		orrs	r0, r0, r2
 1781 0062 F0BC     		pop	{r4, r5, r6, r7}
 1782 0064 7047     		bx	lr
 1783              		.cfi_endproc
 1784              	.LFE134:
 1785              		.size	gdispBlendColor, .-gdispBlendColor
 1786              		.global	GDISP
 1787 0066 00BFAFF3 		.section	.data.GDISP,"aw",%progbits
 1787      0080AFF3 
 1787      0080
 1788              		.align	2
 1789              		.set	.LANCHOR1,. + 0
 1790              		.type	GDISP, %object
 1791              		.size	GDISP, 4
 1792              	GDISP:
ARM GAS  /tmp/cckLBHkD.s 			page 33


 1793 0000 00000000 		.word	GDisplayArray
 1794              		.section	.bss.GDisplayArray,"aw",%nobits
 1795              		.align	2
 1796              		.set	.LANCHOR0,. + 0
 1797              		.type	GDisplayArray, %object
 1798              		.size	GDisplayArray, 48
 1799              	GDisplayArray:
 1800 0000 00000000 		.space	48
 1800      00000000 
 1800      00000000 
 1800      00000000 
 1800      00000000 
 1801              		.text
 1802              	.Letext0: