ARM GAS  /tmp/cclTypRF.s 			page 1


   1              		.syntax unified
   2              		.cpu cortex-m4
   3              		.fpu softvfp
   4              		.eabi_attribute 20, 1
   5              		.eabi_attribute 21, 1
   6              		.eabi_attribute 23, 3
   7              		.eabi_attribute 24, 1
   8              		.eabi_attribute 25, 1
   9              		.eabi_attribute 26, 1
  10              		.eabi_attribute 30, 2
  11              		.eabi_attribute 18, 4
  12              		.thumb
  13              		.file	"hal.c"
  20 0000 3F020000 		.text
  20      0200CD01 
  20      00000201 
  20      FB0E0D00 
  20      01010101 
  21              	.Ltext0:
  22              		.cfi_sections	.debug_frame
  23              		.section	.text.halInit,"ax",%progbits
  24              		.align	2
  25              		.p2align 4,,15
  26              		.global	halInit
  27              		.thumb
  28              		.thumb_func
  29              		.type	halInit, %function
  30              	halInit:
  31              	.LFB118:
  32              		.file 1 "../ChibiOS_2.6.2/os/hal/src/hal.c"
  33              		.loc 1 68 0
  34              		.cfi_startproc
  35              		@ args = 0, pretend = 0, frame = 0
  36              		@ frame_needed = 0, uses_anonymous_args = 0
  37 0000 10B5     		push	{r4, lr}
  38              	.LCFI0:
  39              		.cfi_def_cfa_offset 8
  40              		.loc 1 70 0
  41              		.cfi_offset 14, -4
  42              		.cfi_offset 4, -8
  43 0002 FFF7FEFF 		bl	hal_lld_init
  44              		.loc 1 76 0
  45 0006 40F20000 		movw	r0, #:lower16:pal_default_config
  46 000a C0F20000 		movt	r0, #:upper16:pal_default_config
  47 000e FFF7FEFF 		bl	_pal_lld_init
  48              		.loc 1 79 0
  49 0012 FFF7FEFF 		bl	adcInit
  50              		.loc 1 100 0
  51 0016 FFF7FEFF 		bl	pwmInit
  52              		.loc 1 103 0
  53 001a FFF7FEFF 		bl	sdInit
ARM GAS  /tmp/cclTypRF.s 			page 2


  54              		.loc 1 109 0
  55 001e FFF7FEFF 		bl	spiInit
  56              		.loc 1 128 0
  57 0022 BDE81040 		pop	{r4, lr}
  58              		.loc 1 127 0
  59 0026 FFF7FEBF 		b	boardInit
  60              		.cfi_endproc
  61              	.LFE118:
  62              		.size	halInit, .-halInit
  63 002a 00BFAFF3 		.section	.text.halIsCounterWithin,"ax",%progbits
  63      0080
  64              		.align	2
  65              		.p2align 4,,15
  66              		.global	halIsCounterWithin
  67              		.thumb
  68              		.thumb_func
  69              		.type	halIsCounterWithin, %function
  70              	halIsCounterWithin:
  71              	.LFB119:
  72              		.loc 1 174 0
  73              		.cfi_startproc
  74              		@ args = 0, pretend = 0, frame = 0
  75              		@ frame_needed = 0, uses_anonymous_args = 0
  76              		@ link register save eliminated.
  77              	.LVL0:
  78              		.loc 1 175 0
  79 0000 4FF48053 		mov	r3, #4096
  80 0004 CEF20003 		movt	r3, 57344
  81              		.loc 1 177 0
  82 0008 8142     		cmp	r1, r0
  83              		.loc 1 175 0
  84 000a 5B68     		ldr	r3, [r3, #4]
  85              	.LVL1:
  86              		.loc 1 177 0
  87 000c 08D8     		bhi	.L6
  88              		.loc 1 178 0 discriminator 2
  89 000e 8342     		cmp	r3, r0
  90 0010 34BF     		ite	cc
  91 0012 0020     		movcc	r0, #0
  92              	.LVL2:
  93 0014 0120     		movcs	r0, #1
  94              		.loc 1 177 0 discriminator 2
  95 0016 8B42     		cmp	r3, r1
  96 0018 38BF     		it	cc
  97 001a 40F00100 		orrcc	r0, r0, #1
  98              		.loc 1 179 0 discriminator 2
  99 001e 7047     		bx	lr
 100              	.LVL3:
 101              	.L6:
 102              		.loc 1 177 0 discriminator 1
 103 0020 8342     		cmp	r3, r0
 104 0022 34BF     		ite	cc
 105 0024 0020     		movcc	r0, #0
 106              	.LVL4:
 107 0026 0120     		movcs	r0, #1
 108 0028 8B42     		cmp	r3, r1
 109 002a 2CBF     		ite	cs
ARM GAS  /tmp/cclTypRF.s 			page 3


 110 002c 0020     		movcs	r0, #0
 111 002e 00F00100 		andcc	r0, r0, #1
 112 0032 7047     		bx	lr
 113              		.cfi_endproc
 114              	.LFE119:
 115              		.size	halIsCounterWithin, .-halIsCounterWithin
 116 0034 AFF30080 		.section	.text.halPolledDelay,"ax",%progbits
 116      AFF30080 
 116      AFF30080 
 117              		.align	2
 118              		.p2align 4,,15
 119              		.global	halPolledDelay
 120              		.thumb
 121              		.thumb_func
 122              		.type	halPolledDelay, %function
 123              	halPolledDelay:
 124              	.LFB120:
 125              		.loc 1 193 0
 126              		.cfi_startproc
 127              		@ args = 0, pretend = 0, frame = 0
 128              		@ frame_needed = 0, uses_anonymous_args = 0
 129              		@ link register save eliminated.
 130              	.LVL5:
 131 0000 10B4     		push	{r4}
 132              	.LCFI1:
 133              		.cfi_def_cfa_offset 4
 134              		.loc 1 194 0
 135 0002 4FF48053 		mov	r3, #4096
 136 0006 CEF20003 		movt	r3, 57344
 137              	.LBB4:
 138              	.LBB6:
 139              		.loc 1 175 0
 140 000a 1A46     		mov	r2, r3
 141              	.LBE6:
 142              	.LBE4:
 143              		.loc 1 194 0
 144 000c 5B68     		ldr	r3, [r3, #4]
 145              	.LVL6:
 146              		.loc 1 195 0
 147 000e C018     		adds	r0, r0, r3
 148              	.LVL7:
 149              	.L10:
 150              	.LBB8:
 151              	.LBB5:
 152              		.loc 1 177 0
 153 0010 8342     		cmp	r3, r0
 154              		.loc 1 175 0
 155 0012 5168     		ldr	r1, [r2, #4]
 156              	.LVL8:
 157              		.loc 1 177 0
 158 0014 0CD2     		bcs	.L8
 159              		.cfi_offset 4, -4
 160 0016 8B42     		cmp	r3, r1
 161 0018 8CBF     		ite	hi
 162 001a 0024     		movhi	r4, #0
 163 001c 0124     		movls	r4, #1
 164 001e 8842     		cmp	r0, r1
ARM GAS  /tmp/cclTypRF.s 			page 4


 165 0020 94BF     		ite	ls
 166 0022 0021     		movls	r1, #0
 167 0024 04F00101 		andhi	r1, r4, #1
 168              	.LVL9:
 169              	.LBE5:
 170              	.LBE8:
 171              		.loc 1 196 0
 172 0028 0029     		cmp	r1, #0
 173 002a F1D1     		bne	.L10
 174              	.L12:
 175              		.loc 1 198 0
 176 002c 10BC     		pop	{r4}
 177 002e 7047     		bx	lr
 178              	.LVL10:
 179              	.L8:
 180              	.LBB9:
 181              	.LBB7:
 182              		.loc 1 178 0
 183 0030 8B42     		cmp	r3, r1
 184 0032 8CBF     		ite	hi
 185 0034 0024     		movhi	r4, #0
 186 0036 0124     		movls	r4, #1
 187              		.loc 1 177 0
 188 0038 8842     		cmp	r0, r1
 189 003a 94BF     		ite	ls
 190 003c 2146     		movls	r1, r4
 191 003e 44F00101 		orrhi	r1, r4, #1
 192              	.LVL11:
 193              	.LBE7:
 194              	.LBE9:
 195              		.loc 1 196 0
 196 0042 0029     		cmp	r1, #0
 197 0044 E4D1     		bne	.L10
 198 0046 F1E7     		b	.L12
 199              		.cfi_endproc
 200              	.LFE120:
 201              		.size	halPolledDelay, .-halPolledDelay
 202 0048 AFF30080 		.text
 202      AFF30080 
 203              	.Letext0: