ARM GAS  /tmp/ccsmfkIM.s 			page 1


   1              		.syntax unified
   2              		.cpu cortex-m4
   3              		.fpu softvfp
   4              		.eabi_attribute 20, 1
   5              		.eabi_attribute 21, 1
   6              		.eabi_attribute 23, 3
   7              		.eabi_attribute 24, 1
   8              		.eabi_attribute 25, 1
   9              		.eabi_attribute 26, 1
  10              		.eabi_attribute 30, 2
  11              		.eabi_attribute 18, 4
  12              		.thumb
  13              		.file	"pal_lld.c"
  20 0000 0F020000 		.text
  20      02005301 
  20      00000201 
  20      FB0E0D00 
  20      01010101 
  21              	.Ltext0:
  22              		.cfi_sections	.debug_frame
  23              		.section	.text._pal_lld_init,"ax",%progbits
  24              		.align	2
  25              		.p2align 4,,15
  26              		.global	_pal_lld_init
  27              		.thumb
  28              		.thumb_func
  29              		.type	_pal_lld_init, %function
  30              	_pal_lld_init:
  31              	.LFB119:
  32              		.file 1 "../ChibiOS_2.6.2/os/hal/platforms/STM32/GPIOv2/pal_lld.c"
  33              		.loc 1 113 0
  34              		.cfi_startproc
  35              		@ args = 0, pretend = 0, frame = 0
  36              		@ frame_needed = 0, uses_anonymous_args = 0
  37              		@ link register save eliminated.
  38              	.LVL0:
  39              		.loc 1 126 0
  40 0000 4FF4605C 		mov	ip, #14336
  41 0004 C4F2020C 		movt	ip, 16386
  42 0008 DCF83020 		ldr	r2, [ip, #48]
  43 000c 6FEA5223 		mvn	r3, r2, lsr #9
  44 0010 6FEA4321 		mvn	r1, r3, lsl #9
  45 0014 CCF83010 		str	r1, [ip, #48]
  46              		.loc 1 127 0
  47 0018 DCF85020 		ldr	r2, [ip, #80]
  48 001c 6FEA5223 		mvn	r3, r2, lsr #9
  49 0020 6FEA4321 		mvn	r1, r3, lsl #9
  50 0024 CCF85010 		str	r1, [ip, #80]
  51              	.LVL1:
  52              	.LBB20:
  53              	.LBB21:
ARM GAS  /tmp/ccsmfkIM.s 			page 2


  54              		.loc 1 88 0
  55 0028 0023     		movs	r3, #0
  56 002a 4268     		ldr	r2, [r0, #4]
  57 002c C4F20203 		movt	r3, 16386
  58              	.LBE21:
  59              	.LBE20:
  60              	.LBB23:
  61              	.LBB25:
  62 0030 4FF4806C 		mov	ip, #1024
  63              	.LBE25:
  64              	.LBE23:
  65              	.LBB27:
  66              	.LBB22:
  67 0034 5A60     		str	r2, [r3, #4]
  68              		.loc 1 89 0
  69 0036 8168     		ldr	r1, [r0, #8]
  70 0038 9960     		str	r1, [r3, #8]
  71              		.loc 1 90 0
  72 003a C268     		ldr	r2, [r0, #12]
  73 003c DA60     		str	r2, [r3, #12]
  74              		.loc 1 91 0
  75 003e 0169     		ldr	r1, [r0, #16]
  76 0040 5961     		str	r1, [r3, #20]
  77              		.loc 1 92 0
  78 0042 4269     		ldr	r2, [r0, #20]
  79 0044 1A62     		str	r2, [r3, #32]
  80              		.loc 1 93 0
  81 0046 8169     		ldr	r1, [r0, #24]
  82 0048 5962     		str	r1, [r3, #36]
  83              		.loc 1 94 0
  84 004a 0268     		ldr	r2, [r0, #0]
  85 004c 1A60     		str	r2, [r3, #0]
  86              	.LVL2:
  87              	.LBE22:
  88              	.LBE27:
  89              	.LBB28:
  90              	.LBB24:
  91              		.loc 1 88 0
  92 004e 016A     		ldr	r1, [r0, #32]
  93 0050 C4F2020C 		movt	ip, 16386
  94              	.LBE24:
  95              	.LBE28:
  96              	.LBB29:
  97              	.LBB31:
  98 0054 4FF40063 		mov	r3, #2048
  99              	.LBE31:
 100              	.LBE29:
 101              	.LBB33:
 102              	.LBB26:
 103 0058 CCF80410 		str	r1, [ip, #4]
 104              		.loc 1 89 0
 105 005c 426A     		ldr	r2, [r0, #36]
 106 005e CCF80820 		str	r2, [ip, #8]
 107              		.loc 1 90 0
 108 0062 816A     		ldr	r1, [r0, #40]
 109 0064 CCF80C10 		str	r1, [ip, #12]
 110              		.loc 1 91 0
ARM GAS  /tmp/ccsmfkIM.s 			page 3


 111 0068 C26A     		ldr	r2, [r0, #44]
 112 006a CCF81420 		str	r2, [ip, #20]
 113              		.loc 1 92 0
 114 006e 016B     		ldr	r1, [r0, #48]
 115 0070 CCF82010 		str	r1, [ip, #32]
 116              		.loc 1 93 0
 117 0074 426B     		ldr	r2, [r0, #52]
 118 0076 CCF82420 		str	r2, [ip, #36]
 119              		.loc 1 94 0
 120 007a C169     		ldr	r1, [r0, #28]
 121 007c CCF80010 		str	r1, [ip, #0]
 122              	.LVL3:
 123              	.LBE26:
 124              	.LBE33:
 125              	.LBB34:
 126              	.LBB30:
 127              		.loc 1 88 0
 128 0080 C4F20203 		movt	r3, 16386
 129 0084 C26B     		ldr	r2, [r0, #60]
 130 0086 5A60     		str	r2, [r3, #4]
 131              		.loc 1 89 0
 132 0088 016C     		ldr	r1, [r0, #64]
 133 008a 9960     		str	r1, [r3, #8]
 134              		.loc 1 90 0
 135 008c 426C     		ldr	r2, [r0, #68]
 136 008e DA60     		str	r2, [r3, #12]
 137              		.loc 1 91 0
 138 0090 816C     		ldr	r1, [r0, #72]
 139 0092 5961     		str	r1, [r3, #20]
 140              		.loc 1 92 0
 141 0094 C26C     		ldr	r2, [r0, #76]
 142 0096 1A62     		str	r2, [r3, #32]
 143              		.loc 1 93 0
 144 0098 016D     		ldr	r1, [r0, #80]
 145 009a 5962     		str	r1, [r3, #36]
 146              		.loc 1 94 0
 147 009c 826B     		ldr	r2, [r0, #56]
 148              	.LBE30:
 149              	.LBE34:
 150              	.LBB35:
 151              	.LBB37:
 152              		.loc 1 88 0
 153 009e 4FF4406C 		mov	ip, #3072
 154              	.LBE37:
 155              	.LBE35:
 156              	.LBB39:
 157              	.LBB32:
 158              		.loc 1 94 0
 159 00a2 1A60     		str	r2, [r3, #0]
 160              	.LVL4:
 161              	.LBE32:
 162              	.LBE39:
 163              	.LBB40:
 164              	.LBB36:
 165              		.loc 1 88 0
 166 00a4 816D     		ldr	r1, [r0, #88]
 167 00a6 C4F2020C 		movt	ip, 16386
ARM GAS  /tmp/ccsmfkIM.s 			page 4


 168              	.LBE36:
 169              	.LBE40:
 170              	.LBB41:
 171              	.LBB43:
 172 00aa 4FF48053 		mov	r3, #4096
 173              	.LBE43:
 174              	.LBE41:
 175              	.LBB45:
 176              	.LBB38:
 177 00ae CCF80410 		str	r1, [ip, #4]
 178              		.loc 1 89 0
 179 00b2 C26D     		ldr	r2, [r0, #92]
 180 00b4 CCF80820 		str	r2, [ip, #8]
 181              		.loc 1 90 0
 182 00b8 016E     		ldr	r1, [r0, #96]
 183 00ba CCF80C10 		str	r1, [ip, #12]
 184              		.loc 1 91 0
 185 00be 426E     		ldr	r2, [r0, #100]
 186 00c0 CCF81420 		str	r2, [ip, #20]
 187              		.loc 1 92 0
 188 00c4 816E     		ldr	r1, [r0, #104]
 189 00c6 CCF82010 		str	r1, [ip, #32]
 190              		.loc 1 93 0
 191 00ca C26E     		ldr	r2, [r0, #108]
 192 00cc CCF82420 		str	r2, [ip, #36]
 193              		.loc 1 94 0
 194 00d0 416D     		ldr	r1, [r0, #84]
 195 00d2 CCF80010 		str	r1, [ip, #0]
 196              	.LVL5:
 197              	.LBE38:
 198              	.LBE45:
 199              	.LBB46:
 200              	.LBB42:
 201              		.loc 1 88 0
 202 00d6 C4F20203 		movt	r3, 16386
 203 00da 426F     		ldr	r2, [r0, #116]
 204 00dc 5A60     		str	r2, [r3, #4]
 205              		.loc 1 89 0
 206 00de 816F     		ldr	r1, [r0, #120]
 207 00e0 9960     		str	r1, [r3, #8]
 208              		.loc 1 90 0
 209 00e2 C26F     		ldr	r2, [r0, #124]
 210 00e4 DA60     		str	r2, [r3, #12]
 211              		.loc 1 91 0
 212 00e6 D0F88010 		ldr	r1, [r0, #128]
 213 00ea 5961     		str	r1, [r3, #20]
 214              		.loc 1 92 0
 215 00ec D0F88420 		ldr	r2, [r0, #132]
 216 00f0 1A62     		str	r2, [r3, #32]
 217              		.loc 1 93 0
 218 00f2 D0F88810 		ldr	r1, [r0, #136]
 219 00f6 5962     		str	r1, [r3, #36]
 220              		.loc 1 94 0
 221 00f8 026F     		ldr	r2, [r0, #112]
 222              	.LBE42:
 223              	.LBE46:
 224              	.LBB47:
ARM GAS  /tmp/ccsmfkIM.s 			page 5


 225              	.LBB49:
 226              		.loc 1 88 0
 227 00fa 4FF4A05C 		mov	ip, #5120
 228              	.LBE49:
 229              	.LBE47:
 230              	.LBB51:
 231              	.LBB44:
 232              		.loc 1 94 0
 233 00fe 1A60     		str	r2, [r3, #0]
 234              	.LVL6:
 235              	.LBE44:
 236              	.LBE51:
 237              	.LBB52:
 238              	.LBB48:
 239              		.loc 1 88 0
 240 0100 D0F89010 		ldr	r1, [r0, #144]
 241 0104 C4F2020C 		movt	ip, 16386
 242              	.LBE48:
 243              	.LBE52:
 244              	.LBB53:
 245              	.LBB55:
 246 0108 4FF4C053 		mov	r3, #6144
 247              	.LBE55:
 248              	.LBE53:
 249              	.LBB58:
 250              	.LBB50:
 251 010c CCF80410 		str	r1, [ip, #4]
 252              		.loc 1 89 0
 253 0110 D0F89420 		ldr	r2, [r0, #148]
 254 0114 CCF80820 		str	r2, [ip, #8]
 255              		.loc 1 90 0
 256 0118 D0F89810 		ldr	r1, [r0, #152]
 257 011c CCF80C10 		str	r1, [ip, #12]
 258              		.loc 1 91 0
 259 0120 D0F89C20 		ldr	r2, [r0, #156]
 260 0124 CCF81420 		str	r2, [ip, #20]
 261              		.loc 1 92 0
 262 0128 D0F8A010 		ldr	r1, [r0, #160]
 263 012c CCF82010 		str	r1, [ip, #32]
 264              		.loc 1 93 0
 265 0130 D0F8A420 		ldr	r2, [r0, #164]
 266 0134 CCF82420 		str	r2, [ip, #36]
 267              		.loc 1 94 0
 268 0138 D0F88C10 		ldr	r1, [r0, #140]
 269 013c CCF80010 		str	r1, [ip, #0]
 270              	.LVL7:
 271              	.LBE50:
 272              	.LBE58:
 273              	.LBB59:
 274              	.LBB56:
 275              		.loc 1 88 0
 276 0140 D0F8AC20 		ldr	r2, [r0, #172]
 277 0144 C4F20203 		movt	r3, 16386
 278              	.LBE56:
 279              	.LBE59:
 280              	.LBB60:
 281              	.LBB62:
ARM GAS  /tmp/ccsmfkIM.s 			page 6


 282 0148 4FF4E05C 		mov	ip, #7168
 283              	.LBE62:
 284              	.LBE60:
 285              	.LBB65:
 286              	.LBB54:
 287 014c 5A60     		str	r2, [r3, #4]
 288              		.loc 1 89 0
 289 014e D0F8B010 		ldr	r1, [r0, #176]
 290 0152 9960     		str	r1, [r3, #8]
 291              		.loc 1 90 0
 292 0154 D0F8B420 		ldr	r2, [r0, #180]
 293 0158 DA60     		str	r2, [r3, #12]
 294              		.loc 1 91 0
 295 015a D0F8B810 		ldr	r1, [r0, #184]
 296 015e 5961     		str	r1, [r3, #20]
 297              		.loc 1 92 0
 298 0160 D0F8BC20 		ldr	r2, [r0, #188]
 299 0164 1A62     		str	r2, [r3, #32]
 300              		.loc 1 93 0
 301 0166 D0F8C010 		ldr	r1, [r0, #192]
 302 016a 5962     		str	r1, [r3, #36]
 303              		.loc 1 94 0
 304 016c D0F8A820 		ldr	r2, [r0, #168]
 305              	.LBE54:
 306              	.LBE65:
 307              	.LBB66:
 308              	.LBB63:
 309              		.loc 1 88 0
 310 0170 C4F2020C 		movt	ip, 16386
 311              	.LBE63:
 312              	.LBE66:
 313              	.LBB67:
 314              	.LBB57:
 315              		.loc 1 94 0
 316 0174 1A60     		str	r2, [r3, #0]
 317              	.LVL8:
 318              	.LBE57:
 319              	.LBE67:
 320              	.LBB68:
 321              	.LBB61:
 322              		.loc 1 88 0
 323 0176 D0F8C810 		ldr	r1, [r0, #200]
 324 017a CCF80410 		str	r1, [ip, #4]
 325              		.loc 1 89 0
 326 017e D0F8CC20 		ldr	r2, [r0, #204]
 327 0182 CCF80820 		str	r2, [ip, #8]
 328              		.loc 1 90 0
 329 0186 D0F8D030 		ldr	r3, [r0, #208]
 330 018a CCF80C30 		str	r3, [ip, #12]
 331              		.loc 1 91 0
 332 018e D0F8D410 		ldr	r1, [r0, #212]
 333 0192 CCF81410 		str	r1, [ip, #20]
 334              		.loc 1 92 0
 335 0196 D0F8D820 		ldr	r2, [r0, #216]
 336 019a CCF82020 		str	r2, [ip, #32]
 337              		.loc 1 93 0
 338 019e D0F8DC30 		ldr	r3, [r0, #220]
ARM GAS  /tmp/ccsmfkIM.s 			page 7


 339 01a2 CCF82430 		str	r3, [ip, #36]
 340              		.loc 1 94 0
 341 01a6 D0F8C410 		ldr	r1, [r0, #196]
 342              	.LBE61:
 343              	.LBE68:
 344              	.LBB69:
 345              	.LBB70:
 346              		.loc 1 88 0
 347 01aa 4FF40053 		mov	r3, #8192
 348              	.LBE70:
 349              	.LBE69:
 350              	.LBB72:
 351              	.LBB64:
 352              		.loc 1 94 0
 353 01ae CCF80010 		str	r1, [ip, #0]
 354              	.LVL9:
 355              	.LBE64:
 356              	.LBE72:
 357              	.LBB73:
 358              	.LBB71:
 359              		.loc 1 88 0
 360 01b2 D0F8E420 		ldr	r2, [r0, #228]
 361 01b6 C4F20203 		movt	r3, 16386
 362 01ba 5A60     		str	r2, [r3, #4]
 363              		.loc 1 89 0
 364 01bc D0F8E810 		ldr	r1, [r0, #232]
 365 01c0 9960     		str	r1, [r3, #8]
 366              		.loc 1 90 0
 367 01c2 D0F8EC20 		ldr	r2, [r0, #236]
 368 01c6 DA60     		str	r2, [r3, #12]
 369              		.loc 1 91 0
 370 01c8 D0F8F010 		ldr	r1, [r0, #240]
 371 01cc 5961     		str	r1, [r3, #20]
 372              		.loc 1 92 0
 373 01ce D0F8F420 		ldr	r2, [r0, #244]
 374 01d2 1A62     		str	r2, [r3, #32]
 375              		.loc 1 93 0
 376 01d4 D0F8F810 		ldr	r1, [r0, #248]
 377 01d8 5962     		str	r1, [r3, #36]
 378              		.loc 1 94 0
 379 01da D0F8E020 		ldr	r2, [r0, #224]
 380 01de 1A60     		str	r2, [r3, #0]
 381              	.LBE71:
 382              	.LBE73:
 383              		.loc 1 160 0
 384 01e0 7047     		bx	lr
 385              		.cfi_endproc
 386              	.LFE119:
 387              		.size	_pal_lld_init, .-_pal_lld_init
 388 01e2 00BFAFF3 		.section	.text._pal_lld_setgroupmode,"ax",%progbits
 388      0080AFF3 
 388      0080AFF3 
 388      0080
 389              		.align	2
 390              		.p2align 4,,15
 391              		.global	_pal_lld_setgroupmode
 392              		.thumb
ARM GAS  /tmp/ccsmfkIM.s 			page 8


 393              		.thumb_func
 394              		.type	_pal_lld_setgroupmode, %function
 395              	_pal_lld_setgroupmode:
 396              	.LFB120:
 397              		.loc 1 178 0
 398              		.cfi_startproc
 399              		@ args = 0, pretend = 0, frame = 0
 400              		@ frame_needed = 0, uses_anonymous_args = 0
 401              		@ link register save eliminated.
 402              	.LVL10:
 403 0000 2DE9F00F 		push	{r4, r5, r6, r7, r8, r9, sl, fp}
 404              	.LCFI0:
 405              		.cfi_def_cfa_offset 32
 406              		.loc 1 180 0
 407 0004 02F00307 		and	r7, r2, #3
 408              		.cfi_offset 11, -4
 409              		.cfi_offset 10, -8
 410              		.cfi_offset 9, -12
 411              		.cfi_offset 8, -16
 412              		.cfi_offset 7, -20
 413              		.cfi_offset 6, -24
 414              		.cfi_offset 5, -28
 415              		.cfi_offset 4, -32
 416              	.LVL11:
 417              		.loc 1 181 0
 418 0008 C2F38006 		ubfx	r6, r2, #2, #1
 419              	.LVL12:
 420              		.loc 1 182 0
 421 000c C2F3C105 		ubfx	r5, r2, #3, #2
 422              	.LVL13:
 423              		.loc 1 183 0
 424 0010 C2F34114 		ubfx	r4, r2, #5, #2
 425              	.LVL14:
 426              		.loc 1 184 0
 427 0014 C2F3C312 		ubfx	r2, r2, #7, #4
 428              	.LVL15:
 429              		.loc 1 185 0
 430 0018 0023     		movs	r3, #0
 431              	.LBB74:
 432              		.loc 1 191 0
 433 001a 4FF00F09 		mov	r9, #15
 434              		.loc 1 196 0
 435 001e 4FF0010B 		mov	fp, #1
 436              		.loc 1 198 0
 437 0022 9246     		mov	sl, r2
 438 0024 04E0     		b	.L7
 439              	.LVL16:
 440              	.L9:
 441              	.LBE74:
 442              		.loc 1 206 0
 443 0026 7600     		lsls	r6, r6, #1
 444              	.LVL17:
 445              		.loc 1 207 0
 446 0028 AD00     		lsls	r5, r5, #2
 447              	.LVL18:
 448              		.loc 1 208 0
 449 002a A400     		lsls	r4, r4, #2
ARM GAS  /tmp/ccsmfkIM.s 			page 9


 450              	.LVL19:
 451              		.loc 1 209 0
 452 002c BF00     		lsls	r7, r7, #2
 453              	.LVL20:
 454              		.loc 1 210 0
 455 002e 0133     		adds	r3, r3, #1
 456              	.LVL21:
 457              	.L7:
 458              		.loc 1 187 0
 459 0030 11F0010F 		tst	r1, #1
 460 0034 3ED0     		beq	.L3
 461              	.LBB75:
 462              		.loc 1 192 0
 463 0036 072B     		cmp	r3, #7
 464              		.loc 1 190 0
 465 0038 03F00702 		and	r2, r3, #7
 466              		.loc 1 193 0
 467 003c 94BF     		ite	ls
 468 003e D0F82080 		ldrls	r8, [r0, #32]
 469              		.loc 1 195 0
 470 0042 D0F82480 		ldrhi	r8, [r0, #36]
 471              		.loc 1 190 0
 472 0046 4FEA820C 		lsl	ip, r2, #2
 473 004a 0AFA0CF2 		lsl	r2, sl, ip
 474              	.LVL22:
 475              		.loc 1 191 0
 476 004e 09FA0CFC 		lsl	ip, r9, ip
 477              	.LVL23:
 478              		.loc 1 193 0
 479 0052 95BF     		itete	ls
 480 0054 28EA0C0C 		bicls	ip, r8, ip
 481              	.LVL24:
 482              		.loc 1 195 0
 483 0058 28EA0C0C 		bichi	ip, r8, ip
 484              		.loc 1 193 0
 485 005c 4CEA0202 		orrls	r2, ip, r2
 486              	.LVL25:
 487              		.loc 1 195 0
 488 0060 4CEA0202 		orrhi	r2, ip, r2
 489              		.loc 1 193 0
 490 0064 94BF     		ite	ls
 491 0066 0262     		strls	r2, [r0, #32]
 492              		.loc 1 195 0
 493 0068 4262     		strhi	r2, [r0, #36]
 494              	.LVL26:
 495              		.loc 1 197 0
 496 006a 4268     		ldr	r2, [r0, #4]
 497              		.loc 1 196 0
 498 006c 0BFA03FC 		lsl	ip, fp, r3
 499              		.loc 1 197 0
 500 0070 22EA0C08 		bic	r8, r2, ip
 501 0074 48EA0602 		orr	r2, r8, r6
 502 0078 4260     		str	r2, [r0, #4]
 503              	.LVL27:
 504              		.loc 1 198 0
 505 007a 4FF00308 		mov	r8, #3
 506              		.loc 1 176 0
ARM GAS  /tmp/ccsmfkIM.s 			page 10


 507 007e 5A00     		lsls	r2, r3, #1
 508              		.loc 1 199 0
 509 0080 D0F808C0 		ldr	ip, [r0, #8]
 510              		.loc 1 198 0
 511 0084 08FA02F2 		lsl	r2, r8, r2
 512              		.loc 1 199 0
 513 0088 D243     		mvns	r2, r2
 514 008a 02EA0C0C 		and	ip, r2, ip
 515 008e 4CEA050C 		orr	ip, ip, r5
 516 0092 C0F808C0 		str	ip, [r0, #8]
 517              		.loc 1 200 0
 518 0096 D0F80CC0 		ldr	ip, [r0, #12]
 519 009a 02EA0C0C 		and	ip, r2, ip
 520 009e 4CEA040C 		orr	ip, ip, r4
 521 00a2 C0F80CC0 		str	ip, [r0, #12]
 522              		.loc 1 201 0
 523 00a6 D0F800C0 		ldr	ip, [r0, #0]
 524 00aa 02EA0C0C 		and	ip, r2, ip
 525 00ae 4CEA0702 		orr	r2, ip, r7
 526 00b2 0260     		str	r2, [r0, #0]
 527              	.LVL28:
 528              	.L3:
 529              	.LBE75:
 530              		.loc 1 204 0
 531 00b4 4908     		lsrs	r1, r1, #1
 532              	.LVL29:
 533 00b6 B6D1     		bne	.L9
 534              		.loc 1 212 0
 535 00b8 BDE8F00F 		pop	{r4, r5, r6, r7, r8, r9, sl, fp}
 536 00bc 7047     		bx	lr
 537              		.cfi_endproc
 538              	.LFE120:
 539              		.size	_pal_lld_setgroupmode, .-_pal_lld_setgroupmode
 540 00be 00BF     		.text
 541              	.Letext0: