ARM GAS  /tmp/ccsmfkIM.s 			page 1


   1              		.syntax unified
   2              		.cpu cortex-m4
   3              		.fpu softvfp
   4              		.eabi_attribute 20, 1
   5              		.eabi_attribute 21, 1
   6              		.eabi_attribute 23, 3
   7              		.eabi_attribute 24, 1
   8              		.eabi_attribute 25, 1
   9              		.eabi_attribute 26, 1
  10              		.eabi_attribute 30, 2
  11              		.eabi_attribute 18, 4
  12              		.thumb
  13              		.file	"pal_lld.c"
  14              		.section	.debug_abbrev,"",%progbits
  15              	.Ldebug_abbrev0:
  16              		.section	.debug_info,"",%progbits
  17              	.Ldebug_info0:
  18              		.section	.debug_line,"",%progbits
  19              	.Ldebug_line0:
  20 0000 0F020000 		.text
  20      02005301 
  20      00000201 
  20      FB0E0D00 
  20      01010101 
  21              	.Ltext0:
  22              		.cfi_sections	.debug_frame
  23              		.section	.text._pal_lld_init,"ax",%progbits
  24              		.align	2
  25              		.p2align 4,,15
  26              		.global	_pal_lld_init
  27              		.thumb
  28              		.thumb_func
  29              		.type	_pal_lld_init, %function
  30              	_pal_lld_init:
  31              	.LFB119:
  32              		.file 1 "../ChibiOS_2.6.2/os/hal/platforms/STM32/GPIOv2/pal_lld.c"
  33              		.loc 1 113 0
  34              		.cfi_startproc
  35              		@ args = 0, pretend = 0, frame = 0
  36              		@ frame_needed = 0, uses_anonymous_args = 0
  37              		@ link register save eliminated.
  38              	.LVL0:
  39              		.loc 1 126 0
  40 0000 4FF4605C 		mov	ip, #14336
  41 0004 C4F2020C 		movt	ip, 16386
  42 0008 DCF83020 		ldr	r2, [ip, #48]
  43 000c 6FEA5223 		mvn	r3, r2, lsr #9
  44 0010 6FEA4321 		mvn	r1, r3, lsl #9
  45 0014 CCF83010 		str	r1, [ip, #48]
  46              		.loc 1 127 0
  47 0018 DCF85020 		ldr	r2, [ip, #80]
  48 001c 6FEA5223 		mvn	r3, r2, lsr #9
  49 0020 6FEA4321 		mvn	r1, r3, lsl #9
  50 0024 CCF85010 		str	r1, [ip, #80]
  51              	.LVL1:
  52              	.LBB20:
  53              	.LBB21:
ARM GAS  /tmp/ccsmfkIM.s 			page 2


  54              		.loc 1 88 0
  55 0028 0023     		movs	r3, #0
  56 002a 4268     		ldr	r2, [r0, #4]
  57 002c C4F20203 		movt	r3, 16386
  58              	.LBE21:
  59              	.LBE20:
  60              	.LBB23:
  61              	.LBB25:
  62 0030 4FF4806C 		mov	ip, #1024
  63              	.LBE25:
  64              	.LBE23:
  65              	.LBB27:
  66              	.LBB22:
  67 0034 5A60     		str	r2, [r3, #4]
  68              		.loc 1 89 0
  69 0036 8168     		ldr	r1, [r0, #8]
  70 0038 9960     		str	r1, [r3, #8]
  71              		.loc 1 90 0
  72 003a C268     		ldr	r2, [r0, #12]
  73 003c DA60     		str	r2, [r3, #12]
  74              		.loc 1 91 0
  75 003e 0169     		ldr	r1, [r0, #16]
  76 0040 5961     		str	r1, [r3, #20]
  77              		.loc 1 92 0
  78 0042 4269     		ldr	r2, [r0, #20]
  79 0044 1A62     		str	r2, [r3, #32]
  80              		.loc 1 93 0
  81 0046 8169     		ldr	r1, [r0, #24]
  82 0048 5962     		str	r1, [r3, #36]
  83              		.loc 1 94 0
  84 004a 0268     		ldr	r2, [r0, #0]
  85 004c 1A60     		str	r2, [r3, #0]
  86              	.LVL2:
  87              	.LBE22:
  88              	.LBE27:
  89              	.LBB28:
  90              	.LBB24:
  91              		.loc 1 88 0
  92 004e 016A     		ldr	r1, [r0, #32]
  93 0050 C4F2020C 		movt	ip, 16386
  94              	.LBE24:
  95              	.LBE28:
  96              	.LBB29:
  97              	.LBB31:
  98 0054 4FF40063 		mov	r3, #2048
  99              	.LBE31:
 100              	.LBE29:
 101              	.LBB33:
 102              	.LBB26:
 103 0058 CCF80410 		str	r1, [ip, #4]
 104              		.loc 1 89 0
 105 005c 426A     		ldr	r2, [r0, #36]
 106 005e CCF80820 		str	r2, [ip, #8]
 107              		.loc 1 90 0
 108 0062 816A     		ldr	r1, [r0, #40]
 109 0064 CCF80C10 		str	r1, [ip, #12]
 110              		.loc 1 91 0
ARM GAS  /tmp/ccsmfkIM.s 			page 3


 111 0068 C26A     		ldr	r2, [r0, #44]
 112 006a CCF81420 		str	r2, [ip, #20]
 113              		.loc 1 92 0
 114 006e 016B     		ldr	r1, [r0, #48]
 115 0070 CCF82010 		str	r1, [ip, #32]
 116              		.loc 1 93 0
 117 0074 426B     		ldr	r2, [r0, #52]
 118 0076 CCF82420 		str	r2, [ip, #36]
 119              		.loc 1 94 0
 120 007a C169     		ldr	r1, [r0, #28]
 121 007c CCF80010 		str	r1, [ip, #0]
 122              	.LVL3:
 123              	.LBE26:
 124              	.LBE33:
 125              	.LBB34:
 126              	.LBB30:
 127              		.loc 1 88 0
 128 0080 C4F20203 		movt	r3, 16386
 129 0084 C26B     		ldr	r2, [r0, #60]
 130 0086 5A60     		str	r2, [r3, #4]
 131              		.loc 1 89 0
 132 0088 016C     		ldr	r1, [r0, #64]
 133 008a 9960     		str	r1, [r3, #8]
 134              		.loc 1 90 0
 135 008c 426C     		ldr	r2, [r0, #68]
 136 008e DA60     		str	r2, [r3, #12]
 137              		.loc 1 91 0
 138 0090 816C     		ldr	r1, [r0, #72]
 139 0092 5961     		str	r1, [r3, #20]
 140              		.loc 1 92 0
 141 0094 C26C     		ldr	r2, [r0, #76]
 142 0096 1A62     		str	r2, [r3, #32]
 143              		.loc 1 93 0
 144 0098 016D     		ldr	r1, [r0, #80]
 145 009a 5962     		str	r1, [r3, #36]
 146              		.loc 1 94 0
 147 009c 826B     		ldr	r2, [r0, #56]
 148              	.LBE30:
 149              	.LBE34:
 150              	.LBB35:
 151              	.LBB37:
 152              		.loc 1 88 0
 153 009e 4FF4406C 		mov	ip, #3072
 154              	.LBE37:
 155              	.LBE35:
 156              	.LBB39:
 157              	.LBB32:
 158              		.loc 1 94 0
 159 00a2 1A60     		str	r2, [r3, #0]
 160              	.LVL4:
 161              	.LBE32:
 162              	.LBE39:
 163              	.LBB40:
 164              	.LBB36:
 165              		.loc 1 88 0
 166 00a4 816D     		ldr	r1, [r0, #88]
 167 00a6 C4F2020C 		movt	ip, 16386
ARM GAS  /tmp/ccsmfkIM.s 			page 4


 168              	.LBE36:
 169              	.LBE40:
 170              	.LBB41:
 171              	.LBB43:
 172 00aa 4FF48053 		mov	r3, #4096
 173              	.LBE43:
 174              	.LBE41:
 175              	.LBB45:
 176              	.LBB38:
 177 00ae CCF80410 		str	r1, [ip, #4]
 178              		.loc 1 89 0
 179 00b2 C26D     		ldr	r2, [r0, #92]
 180 00b4 CCF80820 		str	r2, [ip, #8]
 181              		.loc 1 90 0
 182 00b8 016E     		ldr	r1, [r0, #96]
 183 00ba CCF80C10 		str	r1, [ip, #12]
 184              		.loc 1 91 0
 185 00be 426E     		ldr	r2, [r0, #100]
 186 00c0 CCF81420 		str	r2, [ip, #20]
 187              		.loc 1 92 0
 188 00c4 816E     		ldr	r1, [r0, #104]
 189 00c6 CCF82010 		str	r1, [ip, #32]
 190              		.loc 1 93 0
 191 00ca C26E     		ldr	r2, [r0, #108]
 192 00cc CCF82420 		str	r2, [ip, #36]
 193              		.loc 1 94 0
 194 00d0 416D     		ldr	r1, [r0, #84]
 195 00d2 CCF80010 		str	r1, [ip, #0]
 196              	.LVL5:
 197              	.LBE38:
 198              	.LBE45:
 199              	.LBB46:
 200              	.LBB42:
 201              		.loc 1 88 0
 202 00d6 C4F20203 		movt	r3, 16386
 203 00da 426F     		ldr	r2, [r0, #116]
 204 00dc 5A60     		str	r2, [r3, #4]
 205              		.loc 1 89 0
 206 00de 816F     		ldr	r1, [r0, #120]
 207 00e0 9960     		str	r1, [r3, #8]
 208              		.loc 1 90 0
 209 00e2 C26F     		ldr	r2, [r0, #124]
 210 00e4 DA60     		str	r2, [r3, #12]
 211              		.loc 1 91 0
 212 00e6 D0F88010 		ldr	r1, [r0, #128]
 213 00ea 5961     		str	r1, [r3, #20]
 214              		.loc 1 92 0
 215 00ec D0F88420 		ldr	r2, [r0, #132]
 216 00f0 1A62     		str	r2, [r3, #32]
 217              		.loc 1 93 0
 218 00f2 D0F88810 		ldr	r1, [r0, #136]
 219 00f6 5962     		str	r1, [r3, #36]
 220              		.loc 1 94 0
 221 00f8 026F     		ldr	r2, [r0, #112]
 222              	.LBE42:
 223              	.LBE46:
 224              	.LBB47:
ARM GAS  /tmp/ccsmfkIM.s 			page 5


 225              	.LBB49:
 226              		.loc 1 88 0
 227 00fa 4FF4A05C 		mov	ip, #5120
 228              	.LBE49:
 229              	.LBE47:
 230              	.LBB51:
 231              	.LBB44:
 232              		.loc 1 94 0
 233 00fe 1A60     		str	r2, [r3, #0]
 234              	.LVL6:
 235              	.LBE44:
 236              	.LBE51:
 237              	.LBB52:
 238              	.LBB48:
 239              		.loc 1 88 0
 240 0100 D0F89010 		ldr	r1, [r0, #144]
 241 0104 C4F2020C 		movt	ip, 16386
 242              	.LBE48:
 243              	.LBE52:
 244              	.LBB53:
 245              	.LBB55:
 246 0108 4FF4C053 		mov	r3, #6144
 247              	.LBE55:
 248              	.LBE53:
 249              	.LBB58:
 250              	.LBB50:
 251 010c CCF80410 		str	r1, [ip, #4]
 252              		.loc 1 89 0
 253 0110 D0F89420 		ldr	r2, [r0, #148]
 254 0114 CCF80820 		str	r2, [ip, #8]
 255              		.loc 1 90 0
 256 0118 D0F89810 		ldr	r1, [r0, #152]
 257 011c CCF80C10 		str	r1, [ip, #12]
 258              		.loc 1 91 0
 259 0120 D0F89C20 		ldr	r2, [r0, #156]
 260 0124 CCF81420 		str	r2, [ip, #20]
 261              		.loc 1 92 0
 262 0128 D0F8A010 		ldr	r1, [r0, #160]
 263 012c CCF82010 		str	r1, [ip, #32]
 264              		.loc 1 93 0
 265 0130 D0F8A420 		ldr	r2, [r0, #164]
 266 0134 CCF82420 		str	r2, [ip, #36]
 267              		.loc 1 94 0
 268 0138 D0F88C10 		ldr	r1, [r0, #140]
 269 013c CCF80010 		str	r1, [ip, #0]
 270              	.LVL7:
 271              	.LBE50:
 272              	.LBE58:
 273              	.LBB59:
 274              	.LBB56:
 275              		.loc 1 88 0
 276 0140 D0F8AC20 		ldr	r2, [r0, #172]
 277 0144 C4F20203 		movt	r3, 16386
 278              	.LBE56:
 279              	.LBE59:
 280              	.LBB60:
 281              	.LBB62:
ARM GAS  /tmp/ccsmfkIM.s 			page 6


 282 0148 4FF4E05C 		mov	ip, #7168
 283              	.LBE62:
 284              	.LBE60:
 285              	.LBB65:
 286              	.LBB54:
 287 014c 5A60     		str	r2, [r3, #4]
 288              		.loc 1 89 0
 289 014e D0F8B010 		ldr	r1, [r0, #176]
 290 0152 9960     		str	r1, [r3, #8]
 291              		.loc 1 90 0
 292 0154 D0F8B420 		ldr	r2, [r0, #180]
 293 0158 DA60     		str	r2, [r3, #12]
 294              		.loc 1 91 0
 295 015a D0F8B810 		ldr	r1, [r0, #184]
 296 015e 5961     		str	r1, [r3, #20]
 297              		.loc 1 92 0
 298 0160 D0F8BC20 		ldr	r2, [r0, #188]
 299 0164 1A62     		str	r2, [r3, #32]
 300              		.loc 1 93 0
 301 0166 D0F8C010 		ldr	r1, [r0, #192]
 302 016a 5962     		str	r1, [r3, #36]
 303              		.loc 1 94 0
 304 016c D0F8A820 		ldr	r2, [r0, #168]
 305              	.LBE54:
 306              	.LBE65:
 307              	.LBB66:
 308              	.LBB63:
 309              		.loc 1 88 0
 310 0170 C4F2020C 		movt	ip, 16386
 311              	.LBE63:
 312              	.LBE66:
 313              	.LBB67:
 314              	.LBB57:
 315              		.loc 1 94 0
 316 0174 1A60     		str	r2, [r3, #0]
 317              	.LVL8:
 318              	.LBE57:
 319              	.LBE67:
 320              	.LBB68:
 321              	.LBB61:
 322              		.loc 1 88 0
 323 0176 D0F8C810 		ldr	r1, [r0, #200]
 324 017a CCF80410 		str	r1, [ip, #4]
 325              		.loc 1 89 0
 326 017e D0F8CC20 		ldr	r2, [r0, #204]
 327 0182 CCF80820 		str	r2, [ip, #8]
 328              		.loc 1 90 0
 329 0186 D0F8D030 		ldr	r3, [r0, #208]
 330 018a CCF80C30 		str	r3, [ip, #12]
 331              		.loc 1 91 0
 332 018e D0F8D410 		ldr	r1, [r0, #212]
 333 0192 CCF81410 		str	r1, [ip, #20]
 334              		.loc 1 92 0
 335 0196 D0F8D820 		ldr	r2, [r0, #216]
 336 019a CCF82020 		str	r2, [ip, #32]
 337              		.loc 1 93 0
 338 019e D0F8DC30 		ldr	r3, [r0, #220]
ARM GAS  /tmp/ccsmfkIM.s 			page 7


 339 01a2 CCF82430 		str	r3, [ip, #36]
 340              		.loc 1 94 0
 341 01a6 D0F8C410 		ldr	r1, [r0, #196]
 342              	.LBE61:
 343              	.LBE68:
 344              	.LBB69:
 345              	.LBB70:
 346              		.loc 1 88 0
 347 01aa 4FF40053 		mov	r3, #8192
 348              	.LBE70:
 349              	.LBE69:
 350              	.LBB72:
 351              	.LBB64:
 352              		.loc 1 94 0
 353 01ae CCF80010 		str	r1, [ip, #0]
 354              	.LVL9:
 355              	.LBE64:
 356              	.LBE72:
 357              	.LBB73:
 358              	.LBB71:
 359              		.loc 1 88 0
 360 01b2 D0F8E420 		ldr	r2, [r0, #228]
 361 01b6 C4F20203 		movt	r3, 16386
 362 01ba 5A60     		str	r2, [r3, #4]
 363              		.loc 1 89 0
 364 01bc D0F8E810 		ldr	r1, [r0, #232]
 365 01c0 9960     		str	r1, [r3, #8]
 366              		.loc 1 90 0
 367 01c2 D0F8EC20 		ldr	r2, [r0, #236]
 368 01c6 DA60     		str	r2, [r3, #12]
 369              		.loc 1 91 0
 370 01c8 D0F8F010 		ldr	r1, [r0, #240]
 371 01cc 5961     		str	r1, [r3, #20]
 372              		.loc 1 92 0
 373 01ce D0F8F420 		ldr	r2, [r0, #244]
 374 01d2 1A62     		str	r2, [r3, #32]
 375              		.loc 1 93 0
 376 01d4 D0F8F810 		ldr	r1, [r0, #248]
 377 01d8 5962     		str	r1, [r3, #36]
 378              		.loc 1 94 0
 379 01da D0F8E020 		ldr	r2, [r0, #224]
 380 01de 1A60     		str	r2, [r3, #0]
 381              	.LBE71:
 382              	.LBE73:
 383              		.loc 1 160 0
 384 01e0 7047     		bx	lr
 385              		.cfi_endproc
 386              	.LFE119:
 387              		.size	_pal_lld_init, .-_pal_lld_init
 388 01e2 00BFAFF3 		.section	.text._pal_lld_setgroupmode,"ax",%progbits
 388      0080AFF3 
 388      0080AFF3 
 388      0080
 389              		.align	2
 390              		.p2align 4,,15
 391              		.global	_pal_lld_setgroupmode
 392              		.thumb
ARM GAS  /tmp/ccsmfkIM.s 			page 8


 393              		.thumb_func
 394              		.type	_pal_lld_setgroupmode, %function
 395              	_pal_lld_setgroupmode:
 396              	.LFB120:
 397              		.loc 1 178 0
 398              		.cfi_startproc
 399              		@ args = 0, pretend = 0, frame = 0
 400              		@ frame_needed = 0, uses_anonymous_args = 0
 401              		@ link register save eliminated.
 402              	.LVL10:
 403 0000 2DE9F00F 		push	{r4, r5, r6, r7, r8, r9, sl, fp}
 404              	.LCFI0:
 405              		.cfi_def_cfa_offset 32
 406              		.loc 1 180 0
 407 0004 02F00307 		and	r7, r2, #3
 408              		.cfi_offset 11, -4
 409              		.cfi_offset 10, -8
 410              		.cfi_offset 9, -12
 411              		.cfi_offset 8, -16
 412              		.cfi_offset 7, -20
 413              		.cfi_offset 6, -24
 414              		.cfi_offset 5, -28
 415              		.cfi_offset 4, -32
 416              	.LVL11:
 417              		.loc 1 181 0
 418 0008 C2F38006 		ubfx	r6, r2, #2, #1
 419              	.LVL12:
 420              		.loc 1 182 0
 421 000c C2F3C105 		ubfx	r5, r2, #3, #2
 422              	.LVL13:
 423              		.loc 1 183 0
 424 0010 C2F34114 		ubfx	r4, r2, #5, #2
 425              	.LVL14:
 426              		.loc 1 184 0
 427 0014 C2F3C312 		ubfx	r2, r2, #7, #4
 428              	.LVL15:
 429              		.loc 1 185 0
 430 0018 0023     		movs	r3, #0
 431              	.LBB74:
 432              		.loc 1 191 0
 433 001a 4FF00F09 		mov	r9, #15
 434              		.loc 1 196 0
 435 001e 4FF0010B 		mov	fp, #1
 436              		.loc 1 198 0
 437 0022 9246     		mov	sl, r2
 438 0024 04E0     		b	.L7
 439              	.LVL16:
 440              	.L9:
 441              	.LBE74:
 442              		.loc 1 206 0
 443 0026 7600     		lsls	r6, r6, #1
 444              	.LVL17:
 445              		.loc 1 207 0
 446 0028 AD00     		lsls	r5, r5, #2
 447              	.LVL18:
 448              		.loc 1 208 0
 449 002a A400     		lsls	r4, r4, #2
ARM GAS  /tmp/ccsmfkIM.s 			page 9


 450              	.LVL19:
 451              		.loc 1 209 0
 452 002c BF00     		lsls	r7, r7, #2
 453              	.LVL20:
 454              		.loc 1 210 0
 455 002e 0133     		adds	r3, r3, #1
 456              	.LVL21:
 457              	.L7:
 458              		.loc 1 187 0
 459 0030 11F0010F 		tst	r1, #1
 460 0034 3ED0     		beq	.L3
 461              	.LBB75:
 462              		.loc 1 192 0
 463 0036 072B     		cmp	r3, #7
 464              		.loc 1 190 0
 465 0038 03F00702 		and	r2, r3, #7
 466              		.loc 1 193 0
 467 003c 94BF     		ite	ls
 468 003e D0F82080 		ldrls	r8, [r0, #32]
 469              		.loc 1 195 0
 470 0042 D0F82480 		ldrhi	r8, [r0, #36]
 471              		.loc 1 190 0
 472 0046 4FEA820C 		lsl	ip, r2, #2
 473 004a 0AFA0CF2 		lsl	r2, sl, ip
 474              	.LVL22:
 475              		.loc 1 191 0
 476 004e 09FA0CFC 		lsl	ip, r9, ip
 477              	.LVL23:
 478              		.loc 1 193 0
 479 0052 95BF     		itete	ls
 480 0054 28EA0C0C 		bicls	ip, r8, ip
 481              	.LVL24:
 482              		.loc 1 195 0
 483 0058 28EA0C0C 		bichi	ip, r8, ip
 484              		.loc 1 193 0
 485 005c 4CEA0202 		orrls	r2, ip, r2
 486              	.LVL25:
 487              		.loc 1 195 0
 488 0060 4CEA0202 		orrhi	r2, ip, r2
 489              		.loc 1 193 0
 490 0064 94BF     		ite	ls
 491 0066 0262     		strls	r2, [r0, #32]
 492              		.loc 1 195 0
 493 0068 4262     		strhi	r2, [r0, #36]
 494              	.LVL26:
 495              		.loc 1 197 0
 496 006a 4268     		ldr	r2, [r0, #4]
 497              		.loc 1 196 0
 498 006c 0BFA03FC 		lsl	ip, fp, r3
 499              		.loc 1 197 0
 500 0070 22EA0C08 		bic	r8, r2, ip
 501 0074 48EA0602 		orr	r2, r8, r6
 502 0078 4260     		str	r2, [r0, #4]
 503              	.LVL27:
 504              		.loc 1 198 0
 505 007a 4FF00308 		mov	r8, #3
 506              		.loc 1 176 0
ARM GAS  /tmp/ccsmfkIM.s 			page 10


 507 007e 5A00     		lsls	r2, r3, #1
 508              		.loc 1 199 0
 509 0080 D0F808C0 		ldr	ip, [r0, #8]
 510              		.loc 1 198 0
 511 0084 08FA02F2 		lsl	r2, r8, r2
 512              		.loc 1 199 0
 513 0088 D243     		mvns	r2, r2
 514 008a 02EA0C0C 		and	ip, r2, ip
 515 008e 4CEA050C 		orr	ip, ip, r5
 516 0092 C0F808C0 		str	ip, [r0, #8]
 517              		.loc 1 200 0
 518 0096 D0F80CC0 		ldr	ip, [r0, #12]
 519 009a 02EA0C0C 		and	ip, r2, ip
 520 009e 4CEA040C 		orr	ip, ip, r4
 521 00a2 C0F80CC0 		str	ip, [r0, #12]
 522              		.loc 1 201 0
 523 00a6 D0F800C0 		ldr	ip, [r0, #0]
 524 00aa 02EA0C0C 		and	ip, r2, ip
 525 00ae 4CEA0702 		orr	r2, ip, r7
 526 00b2 0260     		str	r2, [r0, #0]
 527              	.LVL28:
 528              	.L3:
 529              	.LBE75:
 530              		.loc 1 204 0
 531 00b4 4908     		lsrs	r1, r1, #1
 532              	.LVL29:
 533 00b6 B6D1     		bne	.L9
 534              		.loc 1 212 0
 535 00b8 BDE8F00F 		pop	{r4, r5, r6, r7, r8, r9, sl, fp}
 536 00bc 7047     		bx	lr
 537              		.cfi_endproc
 538              	.LFE120:
 539              		.size	_pal_lld_setgroupmode, .-_pal_lld_setgroupmode
 540 00be 00BF     		.text
 541              	.Letext0:
 542              		.section	.debug_loc,"",%progbits
 543              	.Ldebug_loc0:
 544              	.LLST0:
 545 0000 00000000 		.4byte	.LFB120
 546 0004 04000000 		.4byte	.LCFI0
 547 0008 0200     		.2byte	0x2
 548 000a 7D       		.byte	0x7d
 549 000b 00       		.sleb128 0
 550 000c 04000000 		.4byte	.LCFI0
 551 0010 BE000000 		.4byte	.LFE120
 552 0014 0200     		.2byte	0x2
 553 0016 7D       		.byte	0x7d
 554 0017 20       		.sleb128 32
 555 0018 00000000 		.4byte	0x0
 556 001c 00000000 		.4byte	0x0
 557              	.LLST1:
 558 0020 00000000 		.4byte	.LVL10
 559 0024 B4000000 		.4byte	.LVL28
 560 0028 0100     		.2byte	0x1
 561 002a 51       		.byte	0x51
 562 002b B4000000 		.4byte	.LVL28
 563 002f B6000000 		.4byte	.LVL29
ARM GAS  /tmp/ccsmfkIM.s 			page 11


 564 0033 0500     		.2byte	0x5
 565 0035 71       		.byte	0x71
 566 0036 00       		.sleb128 0
 567 0037 31       		.byte	0x31
 568 0038 25       		.byte	0x25
 569 0039 9F       		.byte	0x9f
 570 003a B6000000 		.4byte	.LVL29
 571 003e BE000000 		.4byte	.LFE120
 572 0042 0100     		.2byte	0x1
 573 0044 51       		.byte	0x51
 574 0045 00000000 		.4byte	0x0
 575 0049 00000000 		.4byte	0x0
 576              	.LLST2:
 577 004d 00000000 		.4byte	.LVL10
 578 0051 18000000 		.4byte	.LVL15
 579 0055 0100     		.2byte	0x1
 580 0057 52       		.byte	0x52
 581 0058 00000000 		.4byte	0x0
 582 005c 00000000 		.4byte	0x0
 583              	.LLST3:
 584 0060 08000000 		.4byte	.LVL11
 585 0064 2E000000 		.4byte	.LVL20
 586 0068 0100     		.2byte	0x1
 587 006a 57       		.byte	0x57
 588 006b 2E000000 		.4byte	.LVL20
 589 006f BE000000 		.4byte	.LFE120
 590 0073 0100     		.2byte	0x1
 591 0075 57       		.byte	0x57
 592 0076 00000000 		.4byte	0x0
 593 007a 00000000 		.4byte	0x0
 594              	.LLST4:
 595 007e 0C000000 		.4byte	.LVL12
 596 0082 28000000 		.4byte	.LVL17
 597 0086 0100     		.2byte	0x1
 598 0088 56       		.byte	0x56
 599 0089 28000000 		.4byte	.LVL17
 600 008d BE000000 		.4byte	.LFE120
 601 0091 0100     		.2byte	0x1
 602 0093 56       		.byte	0x56
 603 0094 00000000 		.4byte	0x0
 604 0098 00000000 		.4byte	0x0
 605              	.LLST5:
 606 009c 10000000 		.4byte	.LVL13
 607 00a0 2A000000 		.4byte	.LVL18
 608 00a4 0100     		.2byte	0x1
 609 00a6 55       		.byte	0x55
 610 00a7 2A000000 		.4byte	.LVL18
 611 00ab BE000000 		.4byte	.LFE120
 612 00af 0100     		.2byte	0x1
 613 00b1 55       		.byte	0x55
 614 00b2 00000000 		.4byte	0x0
 615 00b6 00000000 		.4byte	0x0
 616              	.LLST6:
 617 00ba 14000000 		.4byte	.LVL14
 618 00be 2C000000 		.4byte	.LVL19
 619 00c2 0100     		.2byte	0x1
 620 00c4 54       		.byte	0x54
ARM GAS  /tmp/ccsmfkIM.s 			page 12


 621 00c5 2C000000 		.4byte	.LVL19
 622 00c9 BE000000 		.4byte	.LFE120
 623 00cd 0100     		.2byte	0x1
 624 00cf 54       		.byte	0x54
 625 00d0 00000000 		.4byte	0x0
 626 00d4 00000000 		.4byte	0x0
 627              	.LLST7:
 628 00d8 18000000 		.4byte	.LVL15
 629 00dc 26000000 		.4byte	.LVL16
 630 00e0 0100     		.2byte	0x1
 631 00e2 52       		.byte	0x52
 632 00e3 26000000 		.4byte	.LVL16
 633 00e7 BE000000 		.4byte	.LFE120
 634 00eb 0100     		.2byte	0x1
 635 00ed 5A       		.byte	0x5a
 636 00ee 00000000 		.4byte	0x0
 637 00f2 00000000 		.4byte	0x0
 638              	.LLST8:
 639 00f6 18000000 		.4byte	.LVL15
 640 00fa 26000000 		.4byte	.LVL16
 641 00fe 0200     		.2byte	0x2
 642 0100 30       		.byte	0x30
 643 0101 9F       		.byte	0x9f
 644 0102 26000000 		.4byte	.LVL16
 645 0106 30000000 		.4byte	.LVL21
 646 010a 0100     		.2byte	0x1
 647 010c 53       		.byte	0x53
 648 010d 30000000 		.4byte	.LVL21
 649 0111 BE000000 		.4byte	.LFE120
 650 0115 0100     		.2byte	0x1
 651 0117 53       		.byte	0x53
 652 0118 00000000 		.4byte	0x0
 653 011c 00000000 		.4byte	0x0
 654              	.LLST9:
 655 0120 4E000000 		.4byte	.LVL22
 656 0124 60000000 		.4byte	.LVL25
 657 0128 0100     		.2byte	0x1
 658 012a 52       		.byte	0x52
 659 012b 00000000 		.4byte	0x0
 660 012f 00000000 		.4byte	0x0
 661              	.LLST10:
 662 0133 6A000000 		.4byte	.LVL26
 663 0137 B4000000 		.4byte	.LVL28
 664 013b 0500     		.2byte	0x5
 665 013d 31       		.byte	0x31
 666 013e 73       		.byte	0x73
 667 013f 00       		.sleb128 0
 668 0140 24       		.byte	0x24
 669 0141 9F       		.byte	0x9f
 670 0142 00000000 		.4byte	0x0
 671 0146 00000000 		.4byte	0x0
 672              	.LLST11:
 673 014a 7A000000 		.4byte	.LVL27
 674 014e B4000000 		.4byte	.LVL28
 675 0152 0700     		.2byte	0x7
 676 0154 33       		.byte	0x33
 677 0155 73       		.byte	0x73
ARM GAS  /tmp/ccsmfkIM.s 			page 13


 678 0156 00       		.sleb128 0
 679 0157 31       		.byte	0x31
 680 0158 24       		.byte	0x24
 681 0159 24       		.byte	0x24
 682 015a 9F       		.byte	0x9f
 683 015b 00000000 		.4byte	0x0
 684 015f 00000000 		.4byte	0x0
 685              	.LLST12:
 686 0163 52000000 		.4byte	.LVL23
 687 0167 58000000 		.4byte	.LVL24
 688 016b 0100     		.2byte	0x1
 689 016d 5C       		.byte	0x5c
 690 016e 00000000 		.4byte	0x0
 691 0172 00000000 		.4byte	0x0
 692              		.file 2 "/opt/sgpp-lite-arm-eabi-bin-2010.09.51/bin/../lib/gcc/arm-none-eabi/4.5.1/../../../../arm
 693              		.file 3 "../ChibiOS_2.6.2/os/hal/platforms/STM32F4xx/stm32f4xx.h"
 694              		.file 4 "../ChibiOS_2.6.2/os/hal/platforms/STM32/GPIOv2/pal_lld.h"
 695              		.file 5 "../ChibiOS_2.6.2/os/ports/common/ARMCMx/CMSIS/include/core_cm4.h"
 696              		.section	.debug_info
 697 0000 76070000 		.4byte	0x776
 698 0004 0200     		.2byte	0x2
 699 0006 00000000 		.4byte	.Ldebug_abbrev0
 700 000a 04       		.byte	0x4
 701 000b 01       		.uleb128 0x1
 702 000c AB020000 		.4byte	.LASF84
 703 0010 01       		.byte	0x1
 704 0011 38010000 		.4byte	.LASF85
 705 0015 BF020000 		.4byte	.LASF86
 706 0019 00000000 		.4byte	0x0
 707 001d 00000000 		.4byte	0x0
 708 0021 38010000 		.4byte	.Ldebug_ranges0+0x138
 709 0025 00000000 		.4byte	.Ldebug_line0
 710 0029 02       		.uleb128 0x2
 711 002a 04       		.byte	0x4
 712 002b 05       		.byte	0x5
 713 002c 696E7400 		.ascii	"int\000"
 714 0030 03       		.uleb128 0x3
 715 0031 04       		.byte	0x4
 716 0032 07       		.byte	0x7
 717 0033 2E030000 		.4byte	.LASF0
 718 0037 03       		.uleb128 0x3
 719 0038 01       		.byte	0x1
 720 0039 06       		.byte	0x6
 721 003a A0010000 		.4byte	.LASF1
 722 003e 03       		.uleb128 0x3
 723 003f 01       		.byte	0x1
 724 0040 08       		.byte	0x8
 725 0041 8A010000 		.4byte	.LASF2
 726 0045 03       		.uleb128 0x3
 727 0046 02       		.byte	0x2
 728 0047 05       		.byte	0x5
 729 0048 60000000 		.4byte	.LASF3
 730 004c 04       		.uleb128 0x4
 731 004d DC010000 		.4byte	.LASF5
 732 0051 02       		.byte	0x2
 733 0052 36       		.byte	0x36
 734 0053 57000000 		.4byte	0x57
ARM GAS  /tmp/ccsmfkIM.s 			page 14


 735 0057 03       		.uleb128 0x3
 736 0058 02       		.byte	0x2
 737 0059 07       		.byte	0x7
 738 005a 09020000 		.4byte	.LASF4
 739 005e 04       		.uleb128 0x4
 740 005f 2B020000 		.4byte	.LASF6
 741 0063 02       		.byte	0x2
 742 0064 4F       		.byte	0x4f
 743 0065 69000000 		.4byte	0x69
 744 0069 03       		.uleb128 0x3
 745 006a 04       		.byte	0x4
 746 006b 05       		.byte	0x5
 747 006c 07010000 		.4byte	.LASF7
 748 0070 04       		.uleb128 0x4
 749 0071 C3010000 		.4byte	.LASF8
 750 0075 02       		.byte	0x2
 751 0076 50       		.byte	0x50
 752 0077 7B000000 		.4byte	0x7b
 753 007b 03       		.uleb128 0x3
 754 007c 04       		.byte	0x4
 755 007d 07       		.byte	0x7
 756 007e E5010000 		.4byte	.LASF9
 757 0082 03       		.uleb128 0x3
 758 0083 08       		.byte	0x8
 759 0084 05       		.byte	0x5
 760 0085 EB000000 		.4byte	.LASF10
 761 0089 03       		.uleb128 0x3
 762 008a 08       		.byte	0x8
 763 008b 07       		.byte	0x7
 764 008c AC010000 		.4byte	.LASF11
 765 0090 03       		.uleb128 0x3
 766 0091 01       		.byte	0x1
 767 0092 02       		.byte	0x2
 768 0093 3D020000 		.4byte	.LASF12
 769 0097 05       		.uleb128 0x5
 770 0098 70000000 		.4byte	0x70
 771 009c 03       		.uleb128 0x3
 772 009d 01       		.byte	0x1
 773 009e 08       		.byte	0x8
 774 009f 26020000 		.4byte	.LASF13
 775 00a3 06       		.uleb128 0x6
 776 00a4 70000000 		.4byte	0x70
 777 00a8 B3000000 		.4byte	0xb3
 778 00ac 07       		.uleb128 0x7
 779 00ad 30000000 		.4byte	0x30
 780 00b1 01       		.byte	0x1
 781 00b2 00       		.byte	0x0
 782 00b3 05       		.uleb128 0x5
 783 00b4 5E000000 		.4byte	0x5e
 784 00b8 08       		.uleb128 0x8
 785 00b9 90       		.byte	0x90
 786 00ba 03       		.byte	0x3
 787 00bb 5804     		.2byte	0x458
 788 00bd A5020000 		.4byte	0x2a5
 789 00c1 09       		.uleb128 0x9
 790 00c2 435200   		.ascii	"CR\000"
 791 00c5 03       		.byte	0x3
ARM GAS  /tmp/ccsmfkIM.s 			page 15


 792 00c6 5A04     		.2byte	0x45a
 793 00c8 97000000 		.4byte	0x97
 794 00cc 02       		.byte	0x2
 795 00cd 23       		.byte	0x23
 796 00ce 00       		.uleb128 0x0
 797 00cf 0A       		.uleb128 0xa
 798 00d0 FC010000 		.4byte	.LASF14
 799 00d4 03       		.byte	0x3
 800 00d5 5B04     		.2byte	0x45b
 801 00d7 97000000 		.4byte	0x97
 802 00db 02       		.byte	0x2
 803 00dc 23       		.byte	0x23
 804 00dd 04       		.uleb128 0x4
 805 00de 0A       		.uleb128 0xa
 806 00df 3B030000 		.4byte	.LASF15
 807 00e3 03       		.byte	0x3
 808 00e4 5C04     		.2byte	0x45c
 809 00e6 97000000 		.4byte	0x97
 810 00ea 02       		.byte	0x2
 811 00eb 23       		.byte	0x23
 812 00ec 08       		.uleb128 0x8
 813 00ed 09       		.uleb128 0x9
 814 00ee 43495200 		.ascii	"CIR\000"
 815 00f2 03       		.byte	0x3
 816 00f3 5D04     		.2byte	0x45d
 817 00f5 97000000 		.4byte	0x97
 818 00f9 02       		.byte	0x2
 819 00fa 23       		.byte	0x23
 820 00fb 0C       		.uleb128 0xc
 821 00fc 0A       		.uleb128 0xa
 822 00fd F4020000 		.4byte	.LASF16
 823 0101 03       		.byte	0x3
 824 0102 5E04     		.2byte	0x45e
 825 0104 97000000 		.4byte	0x97
 826 0108 02       		.byte	0x2
 827 0109 23       		.byte	0x23
 828 010a 10       		.uleb128 0x10
 829 010b 0A       		.uleb128 0xa
 830 010c D3010000 		.4byte	.LASF17
 831 0110 03       		.byte	0x3
 832 0111 5F04     		.2byte	0x45f
 833 0113 97000000 		.4byte	0x97
 834 0117 02       		.byte	0x2
 835 0118 23       		.byte	0x23
 836 0119 14       		.uleb128 0x14
 837 011a 0A       		.uleb128 0xa
 838 011b 0A030000 		.4byte	.LASF18
 839 011f 03       		.byte	0x3
 840 0120 6004     		.2byte	0x460
 841 0122 97000000 		.4byte	0x97
 842 0126 02       		.byte	0x2
 843 0127 23       		.byte	0x23
 844 0128 18       		.uleb128 0x18
 845 0129 0A       		.uleb128 0xa
 846 012a 5E020000 		.4byte	.LASF19
 847 012e 03       		.byte	0x3
 848 012f 6104     		.2byte	0x461
ARM GAS  /tmp/ccsmfkIM.s 			page 16


 849 0131 70000000 		.4byte	0x70
 850 0135 02       		.byte	0x2
 851 0136 23       		.byte	0x23
 852 0137 1C       		.uleb128 0x1c
 853 0138 0A       		.uleb128 0xa
 854 0139 27000000 		.4byte	.LASF20
 855 013d 03       		.byte	0x3
 856 013e 6204     		.2byte	0x462
 857 0140 97000000 		.4byte	0x97
 858 0144 02       		.byte	0x2
 859 0145 23       		.byte	0x23
 860 0146 20       		.uleb128 0x20
 861 0147 0A       		.uleb128 0xa
 862 0148 29010000 		.4byte	.LASF21
 863 014c 03       		.byte	0x3
 864 014d 6304     		.2byte	0x463
 865 014f 97000000 		.4byte	0x97
 866 0153 02       		.byte	0x2
 867 0154 23       		.byte	0x23
 868 0155 24       		.uleb128 0x24
 869 0156 0A       		.uleb128 0xa
 870 0157 68020000 		.4byte	.LASF22
 871 015b 03       		.byte	0x3
 872 015c 6404     		.2byte	0x464
 873 015e A3000000 		.4byte	0xa3
 874 0162 02       		.byte	0x2
 875 0163 23       		.byte	0x23
 876 0164 28       		.uleb128 0x28
 877 0165 0A       		.uleb128 0xa
 878 0166 B7020000 		.4byte	.LASF23
 879 016a 03       		.byte	0x3
 880 016b 6504     		.2byte	0x465
 881 016d 97000000 		.4byte	0x97
 882 0171 02       		.byte	0x2
 883 0172 23       		.byte	0x23
 884 0173 30       		.uleb128 0x30
 885 0174 0A       		.uleb128 0xa
 886 0175 30000000 		.4byte	.LASF24
 887 0179 03       		.byte	0x3
 888 017a 6604     		.2byte	0x466
 889 017c 97000000 		.4byte	0x97
 890 0180 02       		.byte	0x2
 891 0181 23       		.byte	0x23
 892 0182 34       		.uleb128 0x34
 893 0183 0A       		.uleb128 0xa
 894 0184 DB000000 		.4byte	.LASF25
 895 0188 03       		.byte	0x3
 896 0189 6704     		.2byte	0x467
 897 018b 97000000 		.4byte	0x97
 898 018f 02       		.byte	0x2
 899 0190 23       		.byte	0x23
 900 0191 38       		.uleb128 0x38
 901 0192 0A       		.uleb128 0xa
 902 0193 72020000 		.4byte	.LASF26
 903 0197 03       		.byte	0x3
 904 0198 6804     		.2byte	0x468
 905 019a 70000000 		.4byte	0x70
ARM GAS  /tmp/ccsmfkIM.s 			page 17


 906 019e 02       		.byte	0x2
 907 019f 23       		.byte	0x23
 908 01a0 3C       		.uleb128 0x3c
 909 01a1 0A       		.uleb128 0xa
 910 01a2 B7000000 		.4byte	.LASF27
 911 01a6 03       		.byte	0x3
 912 01a7 6904     		.2byte	0x469
 913 01a9 97000000 		.4byte	0x97
 914 01ad 02       		.byte	0x2
 915 01ae 23       		.byte	0x23
 916 01af 40       		.uleb128 0x40
 917 01b0 0A       		.uleb128 0xa
 918 01b1 98010000 		.4byte	.LASF28
 919 01b5 03       		.byte	0x3
 920 01b6 6A04     		.2byte	0x46a
 921 01b8 97000000 		.4byte	0x97
 922 01bc 02       		.byte	0x2
 923 01bd 23       		.byte	0x23
 924 01be 44       		.uleb128 0x44
 925 01bf 0A       		.uleb128 0xa
 926 01c0 7C020000 		.4byte	.LASF29
 927 01c4 03       		.byte	0x3
 928 01c5 6B04     		.2byte	0x46b
 929 01c7 A3000000 		.4byte	0xa3
 930 01cb 02       		.byte	0x2
 931 01cc 23       		.byte	0x23
 932 01cd 48       		.uleb128 0x48
 933 01ce 0A       		.uleb128 0xa
 934 01cf 00000000 		.4byte	.LASF30
 935 01d3 03       		.byte	0x3
 936 01d4 6C04     		.2byte	0x46c
 937 01d6 97000000 		.4byte	0x97
 938 01da 02       		.byte	0x2
 939 01db 23       		.byte	0x23
 940 01dc 50       		.uleb128 0x50
 941 01dd 0A       		.uleb128 0xa
 942 01de 48020000 		.4byte	.LASF31
 943 01e2 03       		.byte	0x3
 944 01e3 6D04     		.2byte	0x46d
 945 01e5 97000000 		.4byte	0x97
 946 01e9 02       		.byte	0x2
 947 01ea 23       		.byte	0x23
 948 01eb 54       		.uleb128 0x54
 949 01ec 0A       		.uleb128 0xa
 950 01ed 9D000000 		.4byte	.LASF32
 951 01f1 03       		.byte	0x3
 952 01f2 6E04     		.2byte	0x46e
 953 01f4 97000000 		.4byte	0x97
 954 01f8 02       		.byte	0x2
 955 01f9 23       		.byte	0x23
 956 01fa 58       		.uleb128 0x58
 957 01fb 0A       		.uleb128 0xa
 958 01fc 86020000 		.4byte	.LASF33
 959 0200 03       		.byte	0x3
 960 0201 6F04     		.2byte	0x46f
 961 0203 70000000 		.4byte	0x70
 962 0207 02       		.byte	0x2
ARM GAS  /tmp/ccsmfkIM.s 			page 18


 963 0208 23       		.byte	0x23
 964 0209 5C       		.uleb128 0x5c
 965 020a 0A       		.uleb128 0xa
 966 020b 1C020000 		.4byte	.LASF34
 967 020f 03       		.byte	0x3
 968 0210 7004     		.2byte	0x470
 969 0212 97000000 		.4byte	0x97
 970 0216 02       		.byte	0x2
 971 0217 23       		.byte	0x23
 972 0218 60       		.uleb128 0x60
 973 0219 0A       		.uleb128 0xa
 974 021a 50030000 		.4byte	.LASF35
 975 021e 03       		.byte	0x3
 976 021f 7104     		.2byte	0x471
 977 0221 97000000 		.4byte	0x97
 978 0225 02       		.byte	0x2
 979 0226 23       		.byte	0x23
 980 0227 64       		.uleb128 0x64
 981 0228 0A       		.uleb128 0xa
 982 0229 90020000 		.4byte	.LASF36
 983 022d 03       		.byte	0x3
 984 022e 7204     		.2byte	0x472
 985 0230 A3000000 		.4byte	0xa3
 986 0234 02       		.byte	0x2
 987 0235 23       		.byte	0x23
 988 0236 68       		.uleb128 0x68
 989 0237 0A       		.uleb128 0xa
 990 0238 79000000 		.4byte	.LASF37
 991 023c 03       		.byte	0x3
 992 023d 7304     		.2byte	0x473
 993 023f 97000000 		.4byte	0x97
 994 0243 02       		.byte	0x2
 995 0244 23       		.byte	0x23
 996 0245 70       		.uleb128 0x70
 997 0246 09       		.uleb128 0x9
 998 0247 43535200 		.ascii	"CSR\000"
 999 024b 03       		.byte	0x3
 1000 024c 7404     		.2byte	0x474
 1001 024e 97000000 		.4byte	0x97
 1002 0252 02       		.byte	0x2
 1003 0253 23       		.byte	0x23
 1004 0254 74       		.uleb128 0x74
 1005 0255 0A       		.uleb128 0xa
 1006 0256 9A020000 		.4byte	.LASF38
 1007 025a 03       		.byte	0x3
 1008 025b 7504     		.2byte	0x475
 1009 025d A3000000 		.4byte	0xa3
 1010 0261 02       		.byte	0x2
 1011 0262 23       		.byte	0x23
 1012 0263 78       		.uleb128 0x78
 1013 0264 0A       		.uleb128 0xa
 1014 0265 90000000 		.4byte	.LASF39
 1015 0269 03       		.byte	0x3
 1016 026a 7604     		.2byte	0x476
 1017 026c 97000000 		.4byte	0x97
 1018 0270 03       		.byte	0x3
 1019 0271 23       		.byte	0x23
ARM GAS  /tmp/ccsmfkIM.s 			page 19


 1020 0272 8001     		.uleb128 0x80
 1021 0274 0A       		.uleb128 0xa
 1022 0275 85000000 		.4byte	.LASF40
 1023 0279 03       		.byte	0x3
 1024 027a 7704     		.2byte	0x477
 1025 027c 97000000 		.4byte	0x97
 1026 0280 03       		.byte	0x3
 1027 0281 23       		.byte	0x23
 1028 0282 8401     		.uleb128 0x84
 1029 0284 0A       		.uleb128 0xa
 1030 0285 40030000 		.4byte	.LASF41
 1031 0289 03       		.byte	0x3
 1032 028a 7804     		.2byte	0x478
 1033 028c 97000000 		.4byte	0x97
 1034 0290 03       		.byte	0x3
 1035 0291 23       		.byte	0x23
 1036 0292 8801     		.uleb128 0x88
 1037 0294 0A       		.uleb128 0xa
 1038 0295 D3000000 		.4byte	.LASF42
 1039 0299 03       		.byte	0x3
 1040 029a 7904     		.2byte	0x479
 1041 029c 97000000 		.4byte	0x97
 1042 02a0 03       		.byte	0x3
 1043 02a1 23       		.byte	0x23
 1044 02a2 8C01     		.uleb128 0x8c
 1045 02a4 00       		.byte	0x0
 1046 02a5 0B       		.uleb128 0xb
 1047 02a6 17010000 		.4byte	.LASF43
 1048 02aa 03       		.byte	0x3
 1049 02ab 7B04     		.2byte	0x47b
 1050 02ad B8000000 		.4byte	0xb8
 1051 02b1 0C       		.uleb128 0xc
 1052 02b2 04       		.byte	0x4
 1053 02b3 04       		.byte	0x4
 1054 02b4 96       		.byte	0x96
 1055 02b5 D6020000 		.4byte	0x2d6
 1056 02b9 0D       		.uleb128 0xd
 1057 02ba 73657400 		.ascii	"set\000"
 1058 02be 04       		.byte	0x4
 1059 02bf 97       		.byte	0x97
 1060 02c0 4C000000 		.4byte	0x4c
 1061 02c4 02       		.byte	0x2
 1062 02c5 23       		.byte	0x23
 1063 02c6 00       		.uleb128 0x0
 1064 02c7 0E       		.uleb128 0xe
 1065 02c8 32010000 		.4byte	.LASF44
 1066 02cc 04       		.byte	0x4
 1067 02cd 98       		.byte	0x98
 1068 02ce 4C000000 		.4byte	0x4c
 1069 02d2 02       		.byte	0x2
 1070 02d3 23       		.byte	0x23
 1071 02d4 02       		.uleb128 0x2
 1072 02d5 00       		.byte	0x0
 1073 02d6 0F       		.uleb128 0xf
 1074 02d7 04       		.byte	0x4
 1075 02d8 04       		.byte	0x4
 1076 02d9 94       		.byte	0x94
ARM GAS  /tmp/ccsmfkIM.s 			page 20


 1077 02da F1020000 		.4byte	0x2f1
 1078 02de 10       		.uleb128 0x10
 1079 02df 5700     		.ascii	"W\000"
 1080 02e1 04       		.byte	0x4
 1081 02e2 95       		.byte	0x95
 1082 02e3 70000000 		.4byte	0x70
 1083 02e7 10       		.uleb128 0x10
 1084 02e8 4800     		.ascii	"H\000"
 1085 02ea 04       		.byte	0x4
 1086 02eb 99       		.byte	0x99
 1087 02ec B1020000 		.4byte	0x2b1
 1088 02f0 00       		.byte	0x0
 1089 02f1 0C       		.uleb128 0xc
 1090 02f2 28       		.byte	0x28
 1091 02f3 04       		.byte	0x4
 1092 02f4 8C       		.byte	0x8c
 1093 02f5 86030000 		.4byte	0x386
 1094 02f9 0E       		.uleb128 0xe
 1095 02fa 23010000 		.4byte	.LASF45
 1096 02fe 04       		.byte	0x4
 1097 02ff 8E       		.byte	0x8e
 1098 0300 97000000 		.4byte	0x97
 1099 0304 02       		.byte	0x2
 1100 0305 23       		.byte	0x23
 1101 0306 00       		.uleb128 0x0
 1102 0307 0E       		.uleb128 0xe
 1103 0308 CC000000 		.4byte	.LASF46
 1104 030c 04       		.byte	0x4
 1105 030d 8F       		.byte	0x8f
 1106 030e 97000000 		.4byte	0x97
 1107 0312 02       		.byte	0x2
 1108 0313 23       		.byte	0x23
 1109 0314 04       		.uleb128 0x4
 1110 0315 0E       		.uleb128 0xe
 1111 0316 E3000000 		.4byte	.LASF47
 1112 031a 04       		.byte	0x4
 1113 031b 90       		.byte	0x90
 1114 031c 97000000 		.4byte	0x97
 1115 0320 02       		.byte	0x2
 1116 0321 23       		.byte	0x23
 1117 0322 08       		.uleb128 0x8
 1118 0323 0E       		.uleb128 0xe
 1119 0324 F9000000 		.4byte	.LASF48
 1120 0328 04       		.byte	0x4
 1121 0329 91       		.byte	0x91
 1122 032a 97000000 		.4byte	0x97
 1123 032e 02       		.byte	0x2
 1124 032f 23       		.byte	0x23
 1125 0330 0C       		.uleb128 0xc
 1126 0331 0D       		.uleb128 0xd
 1127 0332 49445200 		.ascii	"IDR\000"
 1128 0336 04       		.byte	0x4
 1129 0337 92       		.byte	0x92
 1130 0338 97000000 		.4byte	0x97
 1131 033c 02       		.byte	0x2
 1132 033d 23       		.byte	0x23
 1133 033e 10       		.uleb128 0x10
ARM GAS  /tmp/ccsmfkIM.s 			page 21


 1134 033f 0D       		.uleb128 0xd
 1135 0340 4F445200 		.ascii	"ODR\000"
 1136 0344 04       		.byte	0x4
 1137 0345 93       		.byte	0x93
 1138 0346 97000000 		.4byte	0x97
 1139 034a 02       		.byte	0x2
 1140 034b 23       		.byte	0x23
 1141 034c 14       		.uleb128 0x14
 1142 034d 0E       		.uleb128 0xe
 1143 034e 5A030000 		.4byte	.LASF49
 1144 0352 04       		.byte	0x4
 1145 0353 9A       		.byte	0x9a
 1146 0354 86030000 		.4byte	0x386
 1147 0358 02       		.byte	0x2
 1148 0359 23       		.byte	0x23
 1149 035a 18       		.uleb128 0x18
 1150 035b 0E       		.uleb128 0xe
 1151 035c 4B030000 		.4byte	.LASF50
 1152 0360 04       		.byte	0x4
 1153 0361 9B       		.byte	0x9b
 1154 0362 97000000 		.4byte	0x97
 1155 0366 02       		.byte	0x2
 1156 0367 23       		.byte	0x23
 1157 0368 1C       		.uleb128 0x1c
 1158 0369 0E       		.uleb128 0xe
 1159 036a 04020000 		.4byte	.LASF51
 1160 036e 04       		.byte	0x4
 1161 036f 9C       		.byte	0x9c
 1162 0370 97000000 		.4byte	0x97
 1163 0374 02       		.byte	0x2
 1164 0375 23       		.byte	0x23
 1165 0376 20       		.uleb128 0x20
 1166 0377 0E       		.uleb128 0xe
 1167 0378 F7010000 		.4byte	.LASF52
 1168 037c 04       		.byte	0x4
 1169 037d 9D       		.byte	0x9d
 1170 037e 97000000 		.4byte	0x97
 1171 0382 02       		.byte	0x2
 1172 0383 23       		.byte	0x23
 1173 0384 24       		.uleb128 0x24
 1174 0385 00       		.byte	0x0
 1175 0386 05       		.uleb128 0x5
 1176 0387 D6020000 		.4byte	0x2d6
 1177 038b 04       		.uleb128 0x4
 1178 038c FD020000 		.4byte	.LASF53
 1179 0390 04       		.byte	0x4
 1180 0391 9E       		.byte	0x9e
 1181 0392 F1020000 		.4byte	0x2f1
 1182 0396 0C       		.uleb128 0xc
 1183 0397 1C       		.byte	0x1c
 1184 0398 04       		.byte	0x4
 1185 0399 A3       		.byte	0xa3
 1186 039a 01040000 		.4byte	0x401
 1187 039e 0E       		.uleb128 0xe
 1188 039f EE020000 		.4byte	.LASF54
 1189 03a3 04       		.byte	0x4
 1190 03a4 A5       		.byte	0xa5
ARM GAS  /tmp/ccsmfkIM.s 			page 22


 1191 03a5 70000000 		.4byte	0x70
 1192 03a9 02       		.byte	0x2
 1193 03aa 23       		.byte	0x23
 1194 03ab 00       		.uleb128 0x0
 1195 03ac 0E       		.uleb128 0xe
 1196 03ad CC010000 		.4byte	.LASF55
 1197 03b1 04       		.byte	0x4
 1198 03b2 A7       		.byte	0xa7
 1199 03b3 70000000 		.4byte	0x70
 1200 03b7 02       		.byte	0x2
 1201 03b8 23       		.byte	0x23
 1202 03b9 04       		.uleb128 0x4
 1203 03ba 0E       		.uleb128 0xe
 1204 03bb FF000000 		.4byte	.LASF56
 1205 03bf 04       		.byte	0x4
 1206 03c0 A9       		.byte	0xa9
 1207 03c1 70000000 		.4byte	0x70
 1208 03c5 02       		.byte	0x2
 1209 03c6 23       		.byte	0x23
 1210 03c7 08       		.uleb128 0x8
 1211 03c8 0E       		.uleb128 0xe
 1212 03c9 DE020000 		.4byte	.LASF57
 1213 03cd 04       		.byte	0x4
 1214 03ce AB       		.byte	0xab
 1215 03cf 70000000 		.4byte	0x70
 1216 03d3 02       		.byte	0x2
 1217 03d4 23       		.byte	0x23
 1218 03d5 0C       		.uleb128 0xc
 1219 03d6 0D       		.uleb128 0xd
 1220 03d7 6F647200 		.ascii	"odr\000"
 1221 03db 04       		.byte	0x4
 1222 03dc AD       		.byte	0xad
 1223 03dd 70000000 		.4byte	0x70
 1224 03e1 02       		.byte	0x2
 1225 03e2 23       		.byte	0x23
 1226 03e3 10       		.uleb128 0x10
 1227 03e4 0E       		.uleb128 0xe
 1228 03e5 E9020000 		.4byte	.LASF58
 1229 03e9 04       		.byte	0x4
 1230 03ea AF       		.byte	0xaf
 1231 03eb 70000000 		.4byte	0x70
 1232 03ef 02       		.byte	0x2
 1233 03f0 23       		.byte	0x23
 1234 03f1 14       		.uleb128 0x14
 1235 03f2 0E       		.uleb128 0xe
 1236 03f3 E4020000 		.4byte	.LASF59
 1237 03f7 04       		.byte	0x4
 1238 03f8 B1       		.byte	0xb1
 1239 03f9 70000000 		.4byte	0x70
 1240 03fd 02       		.byte	0x2
 1241 03fe 23       		.byte	0x23
 1242 03ff 18       		.uleb128 0x18
 1243 0400 00       		.byte	0x0
 1244 0401 04       		.uleb128 0x4
 1245 0402 38000000 		.4byte	.LASF60
 1246 0406 04       		.byte	0x4
 1247 0407 B2       		.byte	0xb2
ARM GAS  /tmp/ccsmfkIM.s 			page 23


 1248 0408 96030000 		.4byte	0x396
 1249 040c 0C       		.uleb128 0xc
 1250 040d FC       		.byte	0xfc
 1251 040e 04       		.byte	0x4
 1252 040f BB       		.byte	0xbb
 1253 0410 97040000 		.4byte	0x497
 1254 0414 0E       		.uleb128 0xe
 1255 0415 78010000 		.4byte	.LASF61
 1256 0419 04       		.byte	0x4
 1257 041a BE       		.byte	0xbe
 1258 041b 01040000 		.4byte	0x401
 1259 041f 02       		.byte	0x2
 1260 0420 23       		.byte	0x23
 1261 0421 00       		.uleb128 0x0
 1262 0422 0E       		.uleb128 0xe
 1263 0423 96000000 		.4byte	.LASF62
 1264 0427 04       		.byte	0x4
 1265 0428 C2       		.byte	0xc2
 1266 0429 01040000 		.4byte	0x401
 1267 042d 02       		.byte	0x2
 1268 042e 23       		.byte	0x23
 1269 042f 1C       		.uleb128 0x1c
 1270 0430 0E       		.uleb128 0xe
 1271 0431 0A000000 		.4byte	.LASF63
 1272 0435 04       		.byte	0x4
 1273 0436 C6       		.byte	0xc6
 1274 0437 01040000 		.4byte	0x401
 1275 043b 02       		.byte	0x2
 1276 043c 23       		.byte	0x23
 1277 043d 38       		.uleb128 0x38
 1278 043e 0E       		.uleb128 0xe
 1279 043f 10010000 		.4byte	.LASF64
 1280 0443 04       		.byte	0x4
 1281 0444 CA       		.byte	0xca
 1282 0445 01040000 		.4byte	0x401
 1283 0449 02       		.byte	0x2
 1284 044a 23       		.byte	0x23
 1285 044b 54       		.uleb128 0x54
 1286 044c 0E       		.uleb128 0xe
 1287 044d 57020000 		.4byte	.LASF65
 1288 0451 04       		.byte	0x4
 1289 0452 CE       		.byte	0xce
 1290 0453 01040000 		.4byte	0x401
 1291 0457 02       		.byte	0x2
 1292 0458 23       		.byte	0x23
 1293 0459 70       		.uleb128 0x70
 1294 045a 0E       		.uleb128 0xe
 1295 045b 4B000000 		.4byte	.LASF66
 1296 045f 04       		.byte	0x4
 1297 0460 D2       		.byte	0xd2
 1298 0461 01040000 		.4byte	0x401
 1299 0465 03       		.byte	0x3
 1300 0466 23       		.byte	0x23
 1301 0467 8C01     		.uleb128 0x8c
 1302 0469 0E       		.uleb128 0xe
 1303 046a 71010000 		.4byte	.LASF67
 1304 046e 04       		.byte	0x4
ARM GAS  /tmp/ccsmfkIM.s 			page 24


 1305 046f D6       		.byte	0xd6
 1306 0470 01040000 		.4byte	0x401
 1307 0474 03       		.byte	0x3
 1308 0475 23       		.byte	0x23
 1309 0476 A801     		.uleb128 0xa8
 1310 0478 0E       		.uleb128 0xe
 1311 0479 A4020000 		.4byte	.LASF68
 1312 047d 04       		.byte	0x4
 1313 047e DA       		.byte	0xda
 1314 047f 01040000 		.4byte	0x401
 1315 0483 03       		.byte	0x3
 1316 0484 23       		.byte	0x23
 1317 0485 C401     		.uleb128 0xc4
 1318 0487 0E       		.uleb128 0xe
 1319 0488 7E000000 		.4byte	.LASF69
 1320 048c 04       		.byte	0x4
 1321 048d DE       		.byte	0xde
 1322 048e 01040000 		.4byte	0x401
 1323 0492 03       		.byte	0x3
 1324 0493 23       		.byte	0x23
 1325 0494 E001     		.uleb128 0xe0
 1326 0496 00       		.byte	0x0
 1327 0497 04       		.uleb128 0x4
 1328 0498 33020000 		.4byte	.LASF70
 1329 049c 04       		.byte	0x4
 1330 049d E0       		.byte	0xe0
 1331 049e 0C040000 		.4byte	0x40c
 1332 04a2 04       		.uleb128 0x4
 1333 04a3 BF000000 		.4byte	.LASF71
 1334 04a7 04       		.byte	0x4
 1335 04a8 F0       		.byte	0xf0
 1336 04a9 70000000 		.4byte	0x70
 1337 04ad 04       		.uleb128 0x4
 1338 04ae AE000000 		.4byte	.LASF72
 1339 04b2 04       		.byte	0x4
 1340 04b3 F5       		.byte	0xf5
 1341 04b4 70000000 		.4byte	0x70
 1342 04b8 04       		.uleb128 0x4
 1343 04b9 7F010000 		.4byte	.LASF73
 1344 04bd 04       		.byte	0x4
 1345 04be FD       		.byte	0xfd
 1346 04bf C3040000 		.4byte	0x4c3
 1347 04c3 11       		.uleb128 0x11
 1348 04c4 04       		.byte	0x4
 1349 04c5 8B030000 		.4byte	0x38b
 1350 04c9 12       		.uleb128 0x12
 1351 04ca 6A000000 		.4byte	.LASF87
 1352 04ce 01       		.byte	0x1
 1353 04cf 56       		.byte	0x56
 1354 04d0 01       		.byte	0x1
 1355 04d1 01       		.byte	0x1
 1356 04d2 ED040000 		.4byte	0x4ed
 1357 04d6 13       		.uleb128 0x13
 1358 04d7 73000000 		.4byte	.LASF74
 1359 04db 01       		.byte	0x1
 1360 04dc 56       		.byte	0x56
 1361 04dd C3040000 		.4byte	0x4c3
ARM GAS  /tmp/ccsmfkIM.s 			page 25


 1362 04e1 13       		.uleb128 0x13
 1363 04e2 A7000000 		.4byte	.LASF75
 1364 04e6 01       		.byte	0x1
 1365 04e7 56       		.byte	0x56
 1366 04e8 ED040000 		.4byte	0x4ed
 1367 04ec 00       		.byte	0x0
 1368 04ed 11       		.uleb128 0x11
 1369 04ee 04       		.byte	0x4
 1370 04ef F3040000 		.4byte	0x4f3
 1371 04f3 14       		.uleb128 0x14
 1372 04f4 01040000 		.4byte	0x401
 1373 04f8 15       		.uleb128 0x15
 1374 04f9 01       		.byte	0x1
 1375 04fa 52000000 		.4byte	.LASF76
 1376 04fe 01       		.byte	0x1
 1377 04ff 71       		.byte	0x71
 1378 0500 01       		.byte	0x1
 1379 0501 00000000 		.4byte	.LFB119
 1380 0505 E2010000 		.4byte	.LFE119
 1381 0509 02       		.byte	0x2
 1382 050a 7D       		.byte	0x7d
 1383 050b 00       		.sleb128 0
 1384 050c 74060000 		.4byte	0x674
 1385 0510 16       		.uleb128 0x16
 1386 0511 A7000000 		.4byte	.LASF75
 1387 0515 01       		.byte	0x1
 1388 0516 71       		.byte	0x71
 1389 0517 74060000 		.4byte	0x674
 1390 051b 01       		.byte	0x1
 1391 051c 50       		.byte	0x50
 1392 051d 17       		.uleb128 0x17
 1393 051e C9040000 		.4byte	0x4c9
 1394 0522 28000000 		.4byte	.LBB20
 1395 0526 00000000 		.4byte	.Ldebug_ranges0+0x0
 1396 052a 01       		.byte	0x1
 1397 052b 86       		.byte	0x86
 1398 052c 41050000 		.4byte	0x541
 1399 0530 18       		.uleb128 0x18
 1400 0531 E1040000 		.4byte	0x4e1
 1401 0535 01       		.byte	0x1
 1402 0536 50       		.byte	0x50
 1403 0537 19       		.uleb128 0x19
 1404 0538 D6040000 		.4byte	0x4d6
 1405 053c 00000240 		.4byte	0x40020000
 1406 0540 00       		.byte	0x0
 1407 0541 17       		.uleb128 0x17
 1408 0542 C9040000 		.4byte	0x4c9
 1409 0546 30000000 		.4byte	.LBB23
 1410 054a 18000000 		.4byte	.Ldebug_ranges0+0x18
 1411 054e 01       		.byte	0x1
 1412 054f 89       		.byte	0x89
 1413 0550 67050000 		.4byte	0x567
 1414 0554 18       		.uleb128 0x18
 1415 0555 E1040000 		.4byte	0x4e1
 1416 0559 03       		.byte	0x3
 1417 055a 70       		.byte	0x70
 1418 055b 1C       		.sleb128 28
ARM GAS  /tmp/ccsmfkIM.s 			page 26


 1419 055c 9F       		.byte	0x9f
 1420 055d 19       		.uleb128 0x19
 1421 055e D6040000 		.4byte	0x4d6
 1422 0562 00040240 		.4byte	0x40020400
 1423 0566 00       		.byte	0x0
 1424 0567 17       		.uleb128 0x17
 1425 0568 C9040000 		.4byte	0x4c9
 1426 056c 54000000 		.4byte	.LBB29
 1427 0570 38000000 		.4byte	.Ldebug_ranges0+0x38
 1428 0574 01       		.byte	0x1
 1429 0575 8C       		.byte	0x8c
 1430 0576 8D050000 		.4byte	0x58d
 1431 057a 18       		.uleb128 0x18
 1432 057b E1040000 		.4byte	0x4e1
 1433 057f 03       		.byte	0x3
 1434 0580 70       		.byte	0x70
 1435 0581 38       		.sleb128 56
 1436 0582 9F       		.byte	0x9f
 1437 0583 19       		.uleb128 0x19
 1438 0584 D6040000 		.4byte	0x4d6
 1439 0588 00080240 		.4byte	0x40020800
 1440 058c 00       		.byte	0x0
 1441 058d 17       		.uleb128 0x17
 1442 058e C9040000 		.4byte	0x4c9
 1443 0592 9E000000 		.4byte	.LBB35
 1444 0596 58000000 		.4byte	.Ldebug_ranges0+0x58
 1445 059a 01       		.byte	0x1
 1446 059b 8F       		.byte	0x8f
 1447 059c B4050000 		.4byte	0x5b4
 1448 05a0 18       		.uleb128 0x18
 1449 05a1 E1040000 		.4byte	0x4e1
 1450 05a5 04       		.byte	0x4
 1451 05a6 70       		.byte	0x70
 1452 05a7 D400     		.sleb128 84
 1453 05a9 9F       		.byte	0x9f
 1454 05aa 19       		.uleb128 0x19
 1455 05ab D6040000 		.4byte	0x4d6
 1456 05af 000C0240 		.4byte	0x40020c00
 1457 05b3 00       		.byte	0x0
 1458 05b4 17       		.uleb128 0x17
 1459 05b5 C9040000 		.4byte	0x4c9
 1460 05b9 AA000000 		.4byte	.LBB41
 1461 05bd 78000000 		.4byte	.Ldebug_ranges0+0x78
 1462 05c1 01       		.byte	0x1
 1463 05c2 92       		.byte	0x92
 1464 05c3 DB050000 		.4byte	0x5db
 1465 05c7 18       		.uleb128 0x18
 1466 05c8 E1040000 		.4byte	0x4e1
 1467 05cc 04       		.byte	0x4
 1468 05cd 70       		.byte	0x70
 1469 05ce F000     		.sleb128 112
 1470 05d0 9F       		.byte	0x9f
 1471 05d1 19       		.uleb128 0x19
 1472 05d2 D6040000 		.4byte	0x4d6
 1473 05d6 00100240 		.4byte	0x40021000
 1474 05da 00       		.byte	0x0
 1475 05db 17       		.uleb128 0x17
ARM GAS  /tmp/ccsmfkIM.s 			page 27


 1476 05dc C9040000 		.4byte	0x4c9
 1477 05e0 FA000000 		.4byte	.LBB47
 1478 05e4 98000000 		.4byte	.Ldebug_ranges0+0x98
 1479 05e8 01       		.byte	0x1
 1480 05e9 95       		.byte	0x95
 1481 05ea 02060000 		.4byte	0x602
 1482 05ee 18       		.uleb128 0x18
 1483 05ef E1040000 		.4byte	0x4e1
 1484 05f3 04       		.byte	0x4
 1485 05f4 70       		.byte	0x70
 1486 05f5 8C01     		.sleb128 140
 1487 05f7 9F       		.byte	0x9f
 1488 05f8 19       		.uleb128 0x19
 1489 05f9 D6040000 		.4byte	0x4d6
 1490 05fd 00140240 		.4byte	0x40021400
 1491 0601 00       		.byte	0x0
 1492 0602 17       		.uleb128 0x17
 1493 0603 C9040000 		.4byte	0x4c9
 1494 0607 08010000 		.4byte	.LBB53
 1495 060b B8000000 		.4byte	.Ldebug_ranges0+0xb8
 1496 060f 01       		.byte	0x1
 1497 0610 98       		.byte	0x98
 1498 0611 29060000 		.4byte	0x629
 1499 0615 18       		.uleb128 0x18
 1500 0616 E1040000 		.4byte	0x4e1
 1501 061a 04       		.byte	0x4
 1502 061b 70       		.byte	0x70
 1503 061c A801     		.sleb128 168
 1504 061e 9F       		.byte	0x9f
 1505 061f 19       		.uleb128 0x19
 1506 0620 D6040000 		.4byte	0x4d6
 1507 0624 00180240 		.4byte	0x40021800
 1508 0628 00       		.byte	0x0
 1509 0629 17       		.uleb128 0x17
 1510 062a C9040000 		.4byte	0x4c9
 1511 062e 48010000 		.4byte	.LBB60
 1512 0632 E0000000 		.4byte	.Ldebug_ranges0+0xe0
 1513 0636 01       		.byte	0x1
 1514 0637 9B       		.byte	0x9b
 1515 0638 50060000 		.4byte	0x650
 1516 063c 18       		.uleb128 0x18
 1517 063d E1040000 		.4byte	0x4e1
 1518 0641 04       		.byte	0x4
 1519 0642 70       		.byte	0x70
 1520 0643 C401     		.sleb128 196
 1521 0645 9F       		.byte	0x9f
 1522 0646 19       		.uleb128 0x19
 1523 0647 D6040000 		.4byte	0x4d6
 1524 064b 001C0240 		.4byte	0x40021c00
 1525 064f 00       		.byte	0x0
 1526 0650 1A       		.uleb128 0x1a
 1527 0651 C9040000 		.4byte	0x4c9
 1528 0655 AA010000 		.4byte	.LBB69
 1529 0659 08010000 		.4byte	.Ldebug_ranges0+0x108
 1530 065d 01       		.byte	0x1
 1531 065e 9E       		.byte	0x9e
 1532 065f 18       		.uleb128 0x18
ARM GAS  /tmp/ccsmfkIM.s 			page 28


 1533 0660 E1040000 		.4byte	0x4e1
 1534 0664 04       		.byte	0x4
 1535 0665 70       		.byte	0x70
 1536 0666 E001     		.sleb128 224
 1537 0668 9F       		.byte	0x9f
 1538 0669 19       		.uleb128 0x19
 1539 066a D6040000 		.4byte	0x4d6
 1540 066e 00200240 		.4byte	0x40022000
 1541 0672 00       		.byte	0x0
 1542 0673 00       		.byte	0x0
 1543 0674 11       		.uleb128 0x11
 1544 0675 04       		.byte	0x4
 1545 0676 7A060000 		.4byte	0x67a
 1546 067a 14       		.uleb128 0x14
 1547 067b 97040000 		.4byte	0x497
 1548 067f 1B       		.uleb128 0x1b
 1549 0680 01       		.byte	0x1
 1550 0681 11000000 		.4byte	.LASF77
 1551 0685 01       		.byte	0x1
 1552 0686 B0       		.byte	0xb0
 1553 0687 01       		.byte	0x1
 1554 0688 00000000 		.4byte	.LFB120
 1555 068c BE000000 		.4byte	.LFE120
 1556 0690 00000000 		.4byte	.LLST0
 1557 0694 5D070000 		.4byte	0x75d
 1558 0698 16       		.uleb128 0x16
 1559 0699 52020000 		.4byte	.LASF78
 1560 069d 01       		.byte	0x1
 1561 069e B0       		.byte	0xb0
 1562 069f B8040000 		.4byte	0x4b8
 1563 06a3 01       		.byte	0x1
 1564 06a4 50       		.byte	0x50
 1565 06a5 1C       		.uleb128 0x1c
 1566 06a6 D9020000 		.4byte	.LASF79
 1567 06aa 01       		.byte	0x1
 1568 06ab B1       		.byte	0xb1
 1569 06ac A2040000 		.4byte	0x4a2
 1570 06b0 20000000 		.4byte	.LLST1
 1571 06b4 1C       		.uleb128 0x1c
 1572 06b5 43020000 		.4byte	.LASF80
 1573 06b9 01       		.byte	0x1
 1574 06ba B2       		.byte	0xb2
 1575 06bb AD040000 		.4byte	0x4ad
 1576 06bf 4D000000 		.4byte	.LLST2
 1577 06c3 1D       		.uleb128 0x1d
 1578 06c4 EE020000 		.4byte	.LASF54
 1579 06c8 01       		.byte	0x1
 1580 06c9 B4       		.byte	0xb4
 1581 06ca 70000000 		.4byte	0x70
 1582 06ce 60000000 		.4byte	.LLST3
 1583 06d2 1D       		.uleb128 0x1d
 1584 06d3 CC010000 		.4byte	.LASF55
 1585 06d7 01       		.byte	0x1
 1586 06d8 B5       		.byte	0xb5
 1587 06d9 70000000 		.4byte	0x70
 1588 06dd 7E000000 		.4byte	.LLST4
 1589 06e1 1D       		.uleb128 0x1d
ARM GAS  /tmp/ccsmfkIM.s 			page 29


 1590 06e2 FF000000 		.4byte	.LASF56
 1591 06e6 01       		.byte	0x1
 1592 06e7 B6       		.byte	0xb6
 1593 06e8 70000000 		.4byte	0x70
 1594 06ec 9C000000 		.4byte	.LLST5
 1595 06f0 1D       		.uleb128 0x1d
 1596 06f1 DE020000 		.4byte	.LASF57
 1597 06f5 01       		.byte	0x1
 1598 06f6 B7       		.byte	0xb7
 1599 06f7 70000000 		.4byte	0x70
 1600 06fb BA000000 		.4byte	.LLST6
 1601 06ff 1D       		.uleb128 0x1d
 1602 0700 13030000 		.4byte	.LASF81
 1603 0704 01       		.byte	0x1
 1604 0705 B8       		.byte	0xb8
 1605 0706 70000000 		.4byte	0x70
 1606 070a D8000000 		.4byte	.LLST7
 1607 070e 1E       		.uleb128 0x1e
 1608 070f 62697400 		.ascii	"bit\000"
 1609 0713 01       		.byte	0x1
 1610 0714 B9       		.byte	0xb9
 1611 0715 70000000 		.4byte	0x70
 1612 0719 F6000000 		.4byte	.LLST8
 1613 071d 1F       		.uleb128 0x1f
 1614 071e 20010000 		.4byte	.Ldebug_ranges0+0x120
 1615 0722 1D       		.uleb128 0x1d
 1616 0723 25030000 		.4byte	.LASF82
 1617 0727 01       		.byte	0x1
 1618 0728 BC       		.byte	0xbc
 1619 0729 70000000 		.4byte	0x70
 1620 072d 20010000 		.4byte	.LLST9
 1621 0731 1E       		.uleb128 0x1e
 1622 0732 6D3100   		.ascii	"m1\000"
 1623 0735 01       		.byte	0x1
 1624 0736 BC       		.byte	0xbc
 1625 0737 70000000 		.4byte	0x70
 1626 073b 33010000 		.4byte	.LLST10
 1627 073f 1E       		.uleb128 0x1e
 1628 0740 6D3200   		.ascii	"m2\000"
 1629 0743 01       		.byte	0x1
 1630 0744 BC       		.byte	0xbc
 1631 0745 70000000 		.4byte	0x70
 1632 0749 4A010000 		.4byte	.LLST11
 1633 074d 1E       		.uleb128 0x1e
 1634 074e 6D3400   		.ascii	"m4\000"
 1635 0751 01       		.byte	0x1
 1636 0752 BC       		.byte	0xbc
 1637 0753 70000000 		.4byte	0x70
 1638 0757 63010000 		.4byte	.LLST12
 1639 075b 00       		.byte	0x0
 1640 075c 00       		.byte	0x0
 1641 075d 20       		.uleb128 0x20
 1642 075e 18030000 		.4byte	.LASF83
 1643 0762 05       		.byte	0x5
 1644 0763 9806     		.2byte	0x698
 1645 0765 B3000000 		.4byte	0xb3
 1646 0769 01       		.byte	0x1
ARM GAS  /tmp/ccsmfkIM.s 			page 30


 1647 076a 01       		.byte	0x1
 1648 076b 20       		.uleb128 0x20
 1649 076c 18030000 		.4byte	.LASF83
 1650 0770 05       		.byte	0x5
 1651 0771 9806     		.2byte	0x698
 1652 0773 B3000000 		.4byte	0xb3
 1653 0777 01       		.byte	0x1
 1654 0778 01       		.byte	0x1
 1655 0779 00       		.byte	0x0
 1656              		.section	.debug_abbrev
 1657 0000 01       		.uleb128 0x1
 1658 0001 11       		.uleb128 0x11
 1659 0002 01       		.byte	0x1
 1660 0003 25       		.uleb128 0x25
 1661 0004 0E       		.uleb128 0xe
 1662 0005 13       		.uleb128 0x13
 1663 0006 0B       		.uleb128 0xb
 1664 0007 03       		.uleb128 0x3
 1665 0008 0E       		.uleb128 0xe
 1666 0009 1B       		.uleb128 0x1b
 1667 000a 0E       		.uleb128 0xe
 1668 000b 11       		.uleb128 0x11
 1669 000c 01       		.uleb128 0x1
 1670 000d 52       		.uleb128 0x52
 1671 000e 01       		.uleb128 0x1
 1672 000f 55       		.uleb128 0x55
 1673 0010 06       		.uleb128 0x6
 1674 0011 10       		.uleb128 0x10
 1675 0012 06       		.uleb128 0x6
 1676 0013 00       		.byte	0x0
 1677 0014 00       		.byte	0x0
 1678 0015 02       		.uleb128 0x2
 1679 0016 24       		.uleb128 0x24
 1680 0017 00       		.byte	0x0
 1681 0018 0B       		.uleb128 0xb
 1682 0019 0B       		.uleb128 0xb
 1683 001a 3E       		.uleb128 0x3e
 1684 001b 0B       		.uleb128 0xb
 1685 001c 03       		.uleb128 0x3
 1686 001d 08       		.uleb128 0x8
 1687 001e 00       		.byte	0x0
 1688 001f 00       		.byte	0x0
 1689 0020 03       		.uleb128 0x3
 1690 0021 24       		.uleb128 0x24
 1691 0022 00       		.byte	0x0
 1692 0023 0B       		.uleb128 0xb
 1693 0024 0B       		.uleb128 0xb
 1694 0025 3E       		.uleb128 0x3e
 1695 0026 0B       		.uleb128 0xb
 1696 0027 03       		.uleb128 0x3
 1697 0028 0E       		.uleb128 0xe
 1698 0029 00       		.byte	0x0
 1699 002a 00       		.byte	0x0
 1700 002b 04       		.uleb128 0x4
 1701 002c 16       		.uleb128 0x16
 1702 002d 00       		.byte	0x0
 1703 002e 03       		.uleb128 0x3
ARM GAS  /tmp/ccsmfkIM.s 			page 31


 1704 002f 0E       		.uleb128 0xe
 1705 0030 3A       		.uleb128 0x3a
 1706 0031 0B       		.uleb128 0xb
 1707 0032 3B       		.uleb128 0x3b
 1708 0033 0B       		.uleb128 0xb
 1709 0034 49       		.uleb128 0x49
 1710 0035 13       		.uleb128 0x13
 1711 0036 00       		.byte	0x0
 1712 0037 00       		.byte	0x0
 1713 0038 05       		.uleb128 0x5
 1714 0039 35       		.uleb128 0x35
 1715 003a 00       		.byte	0x0
 1716 003b 49       		.uleb128 0x49
 1717 003c 13       		.uleb128 0x13
 1718 003d 00       		.byte	0x0
 1719 003e 00       		.byte	0x0
 1720 003f 06       		.uleb128 0x6
 1721 0040 01       		.uleb128 0x1
 1722 0041 01       		.byte	0x1
 1723 0042 49       		.uleb128 0x49
 1724 0043 13       		.uleb128 0x13
 1725 0044 01       		.uleb128 0x1
 1726 0045 13       		.uleb128 0x13
 1727 0046 00       		.byte	0x0
 1728 0047 00       		.byte	0x0
 1729 0048 07       		.uleb128 0x7
 1730 0049 21       		.uleb128 0x21
 1731 004a 00       		.byte	0x0
 1732 004b 49       		.uleb128 0x49
 1733 004c 13       		.uleb128 0x13
 1734 004d 2F       		.uleb128 0x2f
 1735 004e 0B       		.uleb128 0xb
 1736 004f 00       		.byte	0x0
 1737 0050 00       		.byte	0x0
 1738 0051 08       		.uleb128 0x8
 1739 0052 13       		.uleb128 0x13
 1740 0053 01       		.byte	0x1
 1741 0054 0B       		.uleb128 0xb
 1742 0055 0B       		.uleb128 0xb
 1743 0056 3A       		.uleb128 0x3a
 1744 0057 0B       		.uleb128 0xb
 1745 0058 3B       		.uleb128 0x3b
 1746 0059 05       		.uleb128 0x5
 1747 005a 01       		.uleb128 0x1
 1748 005b 13       		.uleb128 0x13
 1749 005c 00       		.byte	0x0
 1750 005d 00       		.byte	0x0
 1751 005e 09       		.uleb128 0x9
 1752 005f 0D       		.uleb128 0xd
 1753 0060 00       		.byte	0x0
 1754 0061 03       		.uleb128 0x3
 1755 0062 08       		.uleb128 0x8
 1756 0063 3A       		.uleb128 0x3a
 1757 0064 0B       		.uleb128 0xb
 1758 0065 3B       		.uleb128 0x3b
 1759 0066 05       		.uleb128 0x5
 1760 0067 49       		.uleb128 0x49
ARM GAS  /tmp/ccsmfkIM.s 			page 32


 1761 0068 13       		.uleb128 0x13
 1762 0069 38       		.uleb128 0x38
 1763 006a 0A       		.uleb128 0xa
 1764 006b 00       		.byte	0x0
 1765 006c 00       		.byte	0x0
 1766 006d 0A       		.uleb128 0xa
 1767 006e 0D       		.uleb128 0xd
 1768 006f 00       		.byte	0x0
 1769 0070 03       		.uleb128 0x3
 1770 0071 0E       		.uleb128 0xe
 1771 0072 3A       		.uleb128 0x3a
 1772 0073 0B       		.uleb128 0xb
 1773 0074 3B       		.uleb128 0x3b
 1774 0075 05       		.uleb128 0x5
 1775 0076 49       		.uleb128 0x49
 1776 0077 13       		.uleb128 0x13
 1777 0078 38       		.uleb128 0x38
 1778 0079 0A       		.uleb128 0xa
 1779 007a 00       		.byte	0x0
 1780 007b 00       		.byte	0x0
 1781 007c 0B       		.uleb128 0xb
 1782 007d 16       		.uleb128 0x16
 1783 007e 00       		.byte	0x0
 1784 007f 03       		.uleb128 0x3
 1785 0080 0E       		.uleb128 0xe
 1786 0081 3A       		.uleb128 0x3a
 1787 0082 0B       		.uleb128 0xb
 1788 0083 3B       		.uleb128 0x3b
 1789 0084 05       		.uleb128 0x5
 1790 0085 49       		.uleb128 0x49
 1791 0086 13       		.uleb128 0x13
 1792 0087 00       		.byte	0x0
 1793 0088 00       		.byte	0x0
 1794 0089 0C       		.uleb128 0xc
 1795 008a 13       		.uleb128 0x13
 1796 008b 01       		.byte	0x1
 1797 008c 0B       		.uleb128 0xb
 1798 008d 0B       		.uleb128 0xb
 1799 008e 3A       		.uleb128 0x3a
 1800 008f 0B       		.uleb128 0xb
 1801 0090 3B       		.uleb128 0x3b
 1802 0091 0B       		.uleb128 0xb
 1803 0092 01       		.uleb128 0x1
 1804 0093 13       		.uleb128 0x13
 1805 0094 00       		.byte	0x0
 1806 0095 00       		.byte	0x0
 1807 0096 0D       		.uleb128 0xd
 1808 0097 0D       		.uleb128 0xd
 1809 0098 00       		.byte	0x0
 1810 0099 03       		.uleb128 0x3
 1811 009a 08       		.uleb128 0x8
 1812 009b 3A       		.uleb128 0x3a
 1813 009c 0B       		.uleb128 0xb
 1814 009d 3B       		.uleb128 0x3b
 1815 009e 0B       		.uleb128 0xb
 1816 009f 49       		.uleb128 0x49
 1817 00a0 13       		.uleb128 0x13
ARM GAS  /tmp/ccsmfkIM.s 			page 33


 1818 00a1 38       		.uleb128 0x38
 1819 00a2 0A       		.uleb128 0xa
 1820 00a3 00       		.byte	0x0
 1821 00a4 00       		.byte	0x0
 1822 00a5 0E       		.uleb128 0xe
 1823 00a6 0D       		.uleb128 0xd
 1824 00a7 00       		.byte	0x0
 1825 00a8 03       		.uleb128 0x3
 1826 00a9 0E       		.uleb128 0xe
 1827 00aa 3A       		.uleb128 0x3a
 1828 00ab 0B       		.uleb128 0xb
 1829 00ac 3B       		.uleb128 0x3b
 1830 00ad 0B       		.uleb128 0xb
 1831 00ae 49       		.uleb128 0x49
 1832 00af 13       		.uleb128 0x13
 1833 00b0 38       		.uleb128 0x38
 1834 00b1 0A       		.uleb128 0xa
 1835 00b2 00       		.byte	0x0
 1836 00b3 00       		.byte	0x0
 1837 00b4 0F       		.uleb128 0xf
 1838 00b5 17       		.uleb128 0x17
 1839 00b6 01       		.byte	0x1
 1840 00b7 0B       		.uleb128 0xb
 1841 00b8 0B       		.uleb128 0xb
 1842 00b9 3A       		.uleb128 0x3a
 1843 00ba 0B       		.uleb128 0xb
 1844 00bb 3B       		.uleb128 0x3b
 1845 00bc 0B       		.uleb128 0xb
 1846 00bd 01       		.uleb128 0x1
 1847 00be 13       		.uleb128 0x13
 1848 00bf 00       		.byte	0x0
 1849 00c0 00       		.byte	0x0
 1850 00c1 10       		.uleb128 0x10
 1851 00c2 0D       		.uleb128 0xd
 1852 00c3 00       		.byte	0x0
 1853 00c4 03       		.uleb128 0x3
 1854 00c5 08       		.uleb128 0x8
 1855 00c6 3A       		.uleb128 0x3a
 1856 00c7 0B       		.uleb128 0xb
 1857 00c8 3B       		.uleb128 0x3b
 1858 00c9 0B       		.uleb128 0xb
 1859 00ca 49       		.uleb128 0x49
 1860 00cb 13       		.uleb128 0x13
 1861 00cc 00       		.byte	0x0
 1862 00cd 00       		.byte	0x0
 1863 00ce 11       		.uleb128 0x11
 1864 00cf 0F       		.uleb128 0xf
 1865 00d0 00       		.byte	0x0
 1866 00d1 0B       		.uleb128 0xb
 1867 00d2 0B       		.uleb128 0xb
 1868 00d3 49       		.uleb128 0x49
 1869 00d4 13       		.uleb128 0x13
 1870 00d5 00       		.byte	0x0
 1871 00d6 00       		.byte	0x0
 1872 00d7 12       		.uleb128 0x12
 1873 00d8 2E       		.uleb128 0x2e
 1874 00d9 01       		.byte	0x1
ARM GAS  /tmp/ccsmfkIM.s 			page 34


 1875 00da 03       		.uleb128 0x3
 1876 00db 0E       		.uleb128 0xe
 1877 00dc 3A       		.uleb128 0x3a
 1878 00dd 0B       		.uleb128 0xb
 1879 00de 3B       		.uleb128 0x3b
 1880 00df 0B       		.uleb128 0xb
 1881 00e0 27       		.uleb128 0x27
 1882 00e1 0C       		.uleb128 0xc
 1883 00e2 20       		.uleb128 0x20
 1884 00e3 0B       		.uleb128 0xb
 1885 00e4 01       		.uleb128 0x1
 1886 00e5 13       		.uleb128 0x13
 1887 00e6 00       		.byte	0x0
 1888 00e7 00       		.byte	0x0
 1889 00e8 13       		.uleb128 0x13
 1890 00e9 05       		.uleb128 0x5
 1891 00ea 00       		.byte	0x0
 1892 00eb 03       		.uleb128 0x3
 1893 00ec 0E       		.uleb128 0xe
 1894 00ed 3A       		.uleb128 0x3a
 1895 00ee 0B       		.uleb128 0xb
 1896 00ef 3B       		.uleb128 0x3b
 1897 00f0 0B       		.uleb128 0xb
 1898 00f1 49       		.uleb128 0x49
 1899 00f2 13       		.uleb128 0x13
 1900 00f3 00       		.byte	0x0
 1901 00f4 00       		.byte	0x0
 1902 00f5 14       		.uleb128 0x14
 1903 00f6 26       		.uleb128 0x26
 1904 00f7 00       		.byte	0x0
 1905 00f8 49       		.uleb128 0x49
 1906 00f9 13       		.uleb128 0x13
 1907 00fa 00       		.byte	0x0
 1908 00fb 00       		.byte	0x0
 1909 00fc 15       		.uleb128 0x15
 1910 00fd 2E       		.uleb128 0x2e
 1911 00fe 01       		.byte	0x1
 1912 00ff 3F       		.uleb128 0x3f
 1913 0100 0C       		.uleb128 0xc
 1914 0101 03       		.uleb128 0x3
 1915 0102 0E       		.uleb128 0xe
 1916 0103 3A       		.uleb128 0x3a
 1917 0104 0B       		.uleb128 0xb
 1918 0105 3B       		.uleb128 0x3b
 1919 0106 0B       		.uleb128 0xb
 1920 0107 27       		.uleb128 0x27
 1921 0108 0C       		.uleb128 0xc
 1922 0109 11       		.uleb128 0x11
 1923 010a 01       		.uleb128 0x1
 1924 010b 12       		.uleb128 0x12
 1925 010c 01       		.uleb128 0x1
 1926 010d 40       		.uleb128 0x40
 1927 010e 0A       		.uleb128 0xa
 1928 010f 01       		.uleb128 0x1
 1929 0110 13       		.uleb128 0x13
 1930 0111 00       		.byte	0x0
 1931 0112 00       		.byte	0x0
ARM GAS  /tmp/ccsmfkIM.s 			page 35


 1932 0113 16       		.uleb128 0x16
 1933 0114 05       		.uleb128 0x5
 1934 0115 00       		.byte	0x0
 1935 0116 03       		.uleb128 0x3
 1936 0117 0E       		.uleb128 0xe
 1937 0118 3A       		.uleb128 0x3a
 1938 0119 0B       		.uleb128 0xb
 1939 011a 3B       		.uleb128 0x3b
 1940 011b 0B       		.uleb128 0xb
 1941 011c 49       		.uleb128 0x49
 1942 011d 13       		.uleb128 0x13
 1943 011e 02       		.uleb128 0x2
 1944 011f 0A       		.uleb128 0xa
 1945 0120 00       		.byte	0x0
 1946 0121 00       		.byte	0x0
 1947 0122 17       		.uleb128 0x17
 1948 0123 1D       		.uleb128 0x1d
 1949 0124 01       		.byte	0x1
 1950 0125 31       		.uleb128 0x31
 1951 0126 13       		.uleb128 0x13
 1952 0127 52       		.uleb128 0x52
 1953 0128 01       		.uleb128 0x1
 1954 0129 55       		.uleb128 0x55
 1955 012a 06       		.uleb128 0x6
 1956 012b 58       		.uleb128 0x58
 1957 012c 0B       		.uleb128 0xb
 1958 012d 59       		.uleb128 0x59
 1959 012e 0B       		.uleb128 0xb
 1960 012f 01       		.uleb128 0x1
 1961 0130 13       		.uleb128 0x13
 1962 0131 00       		.byte	0x0
 1963 0132 00       		.byte	0x0
 1964 0133 18       		.uleb128 0x18
 1965 0134 05       		.uleb128 0x5
 1966 0135 00       		.byte	0x0
 1967 0136 31       		.uleb128 0x31
 1968 0137 13       		.uleb128 0x13
 1969 0138 02       		.uleb128 0x2
 1970 0139 0A       		.uleb128 0xa
 1971 013a 00       		.byte	0x0
 1972 013b 00       		.byte	0x0
 1973 013c 19       		.uleb128 0x19
 1974 013d 05       		.uleb128 0x5
 1975 013e 00       		.byte	0x0
 1976 013f 31       		.uleb128 0x31
 1977 0140 13       		.uleb128 0x13
 1978 0141 1C       		.uleb128 0x1c
 1979 0142 06       		.uleb128 0x6
 1980 0143 00       		.byte	0x0
 1981 0144 00       		.byte	0x0
 1982 0145 1A       		.uleb128 0x1a
 1983 0146 1D       		.uleb128 0x1d
 1984 0147 01       		.byte	0x1
 1985 0148 31       		.uleb128 0x31
 1986 0149 13       		.uleb128 0x13
 1987 014a 52       		.uleb128 0x52
 1988 014b 01       		.uleb128 0x1
ARM GAS  /tmp/ccsmfkIM.s 			page 36


 1989 014c 55       		.uleb128 0x55
 1990 014d 06       		.uleb128 0x6
 1991 014e 58       		.uleb128 0x58
 1992 014f 0B       		.uleb128 0xb
 1993 0150 59       		.uleb128 0x59
 1994 0151 0B       		.uleb128 0xb
 1995 0152 00       		.byte	0x0
 1996 0153 00       		.byte	0x0
 1997 0154 1B       		.uleb128 0x1b
 1998 0155 2E       		.uleb128 0x2e
 1999 0156 01       		.byte	0x1
 2000 0157 3F       		.uleb128 0x3f
 2001 0158 0C       		.uleb128 0xc
 2002 0159 03       		.uleb128 0x3
 2003 015a 0E       		.uleb128 0xe
 2004 015b 3A       		.uleb128 0x3a
 2005 015c 0B       		.uleb128 0xb
 2006 015d 3B       		.uleb128 0x3b
 2007 015e 0B       		.uleb128 0xb
 2008 015f 27       		.uleb128 0x27
 2009 0160 0C       		.uleb128 0xc
 2010 0161 11       		.uleb128 0x11
 2011 0162 01       		.uleb128 0x1
 2012 0163 12       		.uleb128 0x12
 2013 0164 01       		.uleb128 0x1
 2014 0165 40       		.uleb128 0x40
 2015 0166 06       		.uleb128 0x6
 2016 0167 01       		.uleb128 0x1
 2017 0168 13       		.uleb128 0x13
 2018 0169 00       		.byte	0x0
 2019 016a 00       		.byte	0x0
 2020 016b 1C       		.uleb128 0x1c
 2021 016c 05       		.uleb128 0x5
 2022 016d 00       		.byte	0x0
 2023 016e 03       		.uleb128 0x3
 2024 016f 0E       		.uleb128 0xe
 2025 0170 3A       		.uleb128 0x3a
 2026 0171 0B       		.uleb128 0xb
 2027 0172 3B       		.uleb128 0x3b
 2028 0173 0B       		.uleb128 0xb
 2029 0174 49       		.uleb128 0x49
 2030 0175 13       		.uleb128 0x13
 2031 0176 02       		.uleb128 0x2
 2032 0177 06       		.uleb128 0x6
 2033 0178 00       		.byte	0x0
 2034 0179 00       		.byte	0x0
 2035 017a 1D       		.uleb128 0x1d
 2036 017b 34       		.uleb128 0x34
 2037 017c 00       		.byte	0x0
 2038 017d 03       		.uleb128 0x3
 2039 017e 0E       		.uleb128 0xe
 2040 017f 3A       		.uleb128 0x3a
 2041 0180 0B       		.uleb128 0xb
 2042 0181 3B       		.uleb128 0x3b
 2043 0182 0B       		.uleb128 0xb
 2044 0183 49       		.uleb128 0x49
 2045 0184 13       		.uleb128 0x13
ARM GAS  /tmp/ccsmfkIM.s 			page 37


 2046 0185 02       		.uleb128 0x2
 2047 0186 06       		.uleb128 0x6
 2048 0187 00       		.byte	0x0
 2049 0188 00       		.byte	0x0
 2050 0189 1E       		.uleb128 0x1e
 2051 018a 34       		.uleb128 0x34
 2052 018b 00       		.byte	0x0
 2053 018c 03       		.uleb128 0x3
 2054 018d 08       		.uleb128 0x8
 2055 018e 3A       		.uleb128 0x3a
 2056 018f 0B       		.uleb128 0xb
 2057 0190 3B       		.uleb128 0x3b
 2058 0191 0B       		.uleb128 0xb
 2059 0192 49       		.uleb128 0x49
 2060 0193 13       		.uleb128 0x13
 2061 0194 02       		.uleb128 0x2
 2062 0195 06       		.uleb128 0x6
 2063 0196 00       		.byte	0x0
 2064 0197 00       		.byte	0x0
 2065 0198 1F       		.uleb128 0x1f
 2066 0199 0B       		.uleb128 0xb
 2067 019a 01       		.byte	0x1
 2068 019b 55       		.uleb128 0x55
 2069 019c 06       		.uleb128 0x6
 2070 019d 00       		.byte	0x0
 2071 019e 00       		.byte	0x0
 2072 019f 20       		.uleb128 0x20
 2073 01a0 34       		.uleb128 0x34
 2074 01a1 00       		.byte	0x0
 2075 01a2 03       		.uleb128 0x3
 2076 01a3 0E       		.uleb128 0xe
 2077 01a4 3A       		.uleb128 0x3a
 2078 01a5 0B       		.uleb128 0xb
 2079 01a6 3B       		.uleb128 0x3b
 2080 01a7 05       		.uleb128 0x5
 2081 01a8 49       		.uleb128 0x49
 2082 01a9 13       		.uleb128 0x13
 2083 01aa 3F       		.uleb128 0x3f
 2084 01ab 0C       		.uleb128 0xc
 2085 01ac 3C       		.uleb128 0x3c
 2086 01ad 0C       		.uleb128 0xc
 2087 01ae 00       		.byte	0x0
 2088 01af 00       		.byte	0x0
 2089 01b0 00       		.byte	0x0
 2090              		.section	.debug_pubnames,"",%progbits
 2091 0000 3A000000 		.4byte	0x3a
 2092 0004 0200     		.2byte	0x2
 2093 0006 00000000 		.4byte	.Ldebug_info0
 2094 000a 7A070000 		.4byte	0x77a
 2095 000e F8040000 		.4byte	0x4f8
 2096 0012 5F70616C 		.ascii	"_pal_lld_init\000"
 2096      5F6C6C64 
 2096      5F696E69 
 2096      7400
 2097 0020 7F060000 		.4byte	0x67f
 2098 0024 5F70616C 		.ascii	"_pal_lld_setgroupmode\000"
 2098      5F6C6C64 
ARM GAS  /tmp/ccsmfkIM.s 			page 38


 2098      5F736574 
 2098      67726F75 
 2098      706D6F64 
 2099 003a 00000000 		.4byte	0x0
 2100              		.section	.debug_pubtypes,"",%progbits
 2101 0000 A7000000 		.4byte	0xa7
 2102 0004 0200     		.2byte	0x2
 2103 0006 00000000 		.4byte	.Ldebug_info0
 2104 000a 7A070000 		.4byte	0x77a
 2105 000e 4C000000 		.4byte	0x4c
 2106 0012 75696E74 		.ascii	"uint16_t\000"
 2106      31365F74 
 2106      00
 2107 001b 5E000000 		.4byte	0x5e
 2108 001f 696E7433 		.ascii	"int32_t\000"
 2108      325F7400 
 2109 0027 70000000 		.4byte	0x70
 2110 002b 75696E74 		.ascii	"uint32_t\000"
 2110      33325F74 
 2110      00
 2111 0034 A5020000 		.4byte	0x2a5
 2112 0038 5243435F 		.ascii	"RCC_TypeDef\000"
 2112      54797065 
 2112      44656600 
 2113 0044 8B030000 		.4byte	0x38b
 2114 0048 4750494F 		.ascii	"GPIO_TypeDef\000"
 2114      5F547970 
 2114      65446566 
 2114      00
 2115 0055 01040000 		.4byte	0x401
 2116 0059 73746D33 		.ascii	"stm32_gpio_setup_t\000"
 2116      325F6770 
 2116      696F5F73 
 2116      65747570 
 2116      5F7400
 2117 006c 97040000 		.4byte	0x497
 2118 0070 50414C43 		.ascii	"PALConfig\000"
 2118      6F6E6669 
 2118      6700
 2119 007a A2040000 		.4byte	0x4a2
 2120 007e 696F706F 		.ascii	"ioportmask_t\000"
 2120      72746D61 
 2120      736B5F74 
 2120      00
 2121 008b AD040000 		.4byte	0x4ad
 2122 008f 696F6D6F 		.ascii	"iomode_t\000"
 2122      64655F74 
 2122      00
 2123 0098 B8040000 		.4byte	0x4b8
 2124 009c 696F706F 		.ascii	"ioportid_t\000"
 2124      72746964 
 2124      5F7400
 2125 00a7 00000000 		.4byte	0x0
 2126              		.section	.debug_aranges,"",%progbits
 2127 0000 24000000 		.4byte	0x24
 2128 0004 0200     		.2byte	0x2
 2129 0006 00000000 		.4byte	.Ldebug_info0
ARM GAS  /tmp/ccsmfkIM.s 			page 39


 2130 000a 04       		.byte	0x4
 2131 000b 00       		.byte	0x0
 2132 000c 0000     		.2byte	0x0
 2133 000e 0000     		.2byte	0x0
 2134 0010 00000000 		.4byte	.LFB119
 2135 0014 E2010000 		.4byte	.LFE119-.LFB119
 2136 0018 00000000 		.4byte	.LFB120
 2137 001c BE000000 		.4byte	.LFE120-.LFB120
 2138 0020 00000000 		.4byte	0x0
 2139 0024 00000000 		.4byte	0x0
 2140              		.section	.debug_ranges,"",%progbits
 2141              	.Ldebug_ranges0:
 2142 0000 28000000 		.4byte	.LBB20
 2143 0004 30000000 		.4byte	.LBE20
 2144 0008 34000000 		.4byte	.LBB27
 2145 000c 4E000000 		.4byte	.LBE27
 2146 0010 00000000 		.4byte	0x0
 2147 0014 00000000 		.4byte	0x0
 2148 0018 30000000 		.4byte	.LBB23
 2149 001c 34000000 		.4byte	.LBE23
 2150 0020 58000000 		.4byte	.LBB33
 2151 0024 80000000 		.4byte	.LBE33
 2152 0028 4E000000 		.4byte	.LBB28
 2153 002c 54000000 		.4byte	.LBE28
 2154 0030 00000000 		.4byte	0x0
 2155 0034 00000000 		.4byte	0x0
 2156 0038 54000000 		.4byte	.LBB29
 2157 003c 58000000 		.4byte	.LBE29
 2158 0040 A2000000 		.4byte	.LBB39
 2159 0044 A4000000 		.4byte	.LBE39
 2160 0048 80000000 		.4byte	.LBB34
 2161 004c 9E000000 		.4byte	.LBE34
 2162 0050 00000000 		.4byte	0x0
 2163 0054 00000000 		.4byte	0x0
 2164 0058 9E000000 		.4byte	.LBB35
 2165 005c A2000000 		.4byte	.LBE35
 2166 0060 AE000000 		.4byte	.LBB45
 2167 0064 D6000000 		.4byte	.LBE45
 2168 0068 A4000000 		.4byte	.LBB40
 2169 006c AA000000 		.4byte	.LBE40
 2170 0070 00000000 		.4byte	0x0
 2171 0074 00000000 		.4byte	0x0
 2172 0078 AA000000 		.4byte	.LBB41
 2173 007c AE000000 		.4byte	.LBE41
 2174 0080 FE000000 		.4byte	.LBB51
 2175 0084 00010000 		.4byte	.LBE51
 2176 0088 D6000000 		.4byte	.LBB46
 2177 008c FA000000 		.4byte	.LBE46
 2178 0090 00000000 		.4byte	0x0
 2179 0094 00000000 		.4byte	0x0
 2180 0098 FA000000 		.4byte	.LBB47
 2181 009c FE000000 		.4byte	.LBE47
 2182 00a0 0C010000 		.4byte	.LBB58
 2183 00a4 40010000 		.4byte	.LBE58
 2184 00a8 00010000 		.4byte	.LBB52
 2185 00ac 08010000 		.4byte	.LBE52
 2186 00b0 00000000 		.4byte	0x0
ARM GAS  /tmp/ccsmfkIM.s 			page 40


 2187 00b4 00000000 		.4byte	0x0
 2188 00b8 08010000 		.4byte	.LBB53
 2189 00bc 0C010000 		.4byte	.LBE53
 2190 00c0 74010000 		.4byte	.LBB67
 2191 00c4 76010000 		.4byte	.LBE67
 2192 00c8 4C010000 		.4byte	.LBB65
 2193 00cc 70010000 		.4byte	.LBE65
 2194 00d0 40010000 		.4byte	.LBB59
 2195 00d4 48010000 		.4byte	.LBE59
 2196 00d8 00000000 		.4byte	0x0
 2197 00dc 00000000 		.4byte	0x0
 2198 00e0 48010000 		.4byte	.LBB60
 2199 00e4 4C010000 		.4byte	.LBE60
 2200 00e8 AE010000 		.4byte	.LBB72
 2201 00ec B2010000 		.4byte	.LBE72
 2202 00f0 76010000 		.4byte	.LBB68
 2203 00f4 AA010000 		.4byte	.LBE68
 2204 00f8 70010000 		.4byte	.LBB66
 2205 00fc 74010000 		.4byte	.LBE66
 2206 0100 00000000 		.4byte	0x0
 2207 0104 00000000 		.4byte	0x0
 2208 0108 AA010000 		.4byte	.LBB69
 2209 010c AE010000 		.4byte	.LBE69
 2210 0110 B2010000 		.4byte	.LBB73
 2211 0114 E0010000 		.4byte	.LBE73
 2212 0118 00000000 		.4byte	0x0
 2213 011c 00000000 		.4byte	0x0
 2214 0120 1A000000 		.4byte	.LBB74
 2215 0124 26000000 		.4byte	.LBE74
 2216 0128 36000000 		.4byte	.LBB75
 2217 012c B4000000 		.4byte	.LBE75
 2218 0130 00000000 		.4byte	0x0
 2219 0134 00000000 		.4byte	0x0
 2220 0138 00000000 		.4byte	.LFB119
 2221 013c E2010000 		.4byte	.LFE119
 2222 0140 00000000 		.4byte	.LFB120
 2223 0144 BE000000 		.4byte	.LFE120
 2224 0148 00000000 		.4byte	0x0
 2225 014c 00000000 		.4byte	0x0
 2226              		.section	.debug_str,"MS",%progbits,1
 2227              	.LASF30:
 2228 0000 41484231 		.ascii	"AHB1LPENR\000"
 2228      4C50454E 
 2228      5200
 2229              	.LASF63:
 2230 000a 50434461 		.ascii	"PCData\000"
 2230      746100
 2231              	.LASF77:
 2232 0011 5F70616C 		.ascii	"_pal_lld_setgroupmode\000"
 2232      5F6C6C64 
 2232      5F736574 
 2232      67726F75 
 2232      706D6F64 
 2233              	.LASF20:
 2234 0027 41504231 		.ascii	"APB1RSTR\000"
 2234      52535452 
 2234      00
ARM GAS  /tmp/ccsmfkIM.s 			page 41


 2235              	.LASF24:
 2236 0030 41484232 		.ascii	"AHB2ENR\000"
 2236      454E5200 
 2237              	.LASF60:
 2238 0038 73746D33 		.ascii	"stm32_gpio_setup_t\000"
 2238      325F6770 
 2238      696F5F73 
 2238      65747570 
 2238      5F7400
 2239              	.LASF66:
 2240 004b 50464461 		.ascii	"PFData\000"
 2240      746100
 2241              	.LASF76:
 2242 0052 5F70616C 		.ascii	"_pal_lld_init\000"
 2242      5F6C6C64 
 2242      5F696E69 
 2242      7400
 2243              	.LASF3:
 2244 0060 73686F72 		.ascii	"short int\000"
 2244      7420696E 
 2244      7400
 2245              	.LASF87:
 2246 006a 696E6974 		.ascii	"initgpio\000"
 2246      6770696F 
 2246      00
 2247              	.LASF74:
 2248 0073 6770696F 		.ascii	"gpiop\000"
 2248      7000
 2249              	.LASF37:
 2250 0079 42444352 		.ascii	"BDCR\000"
 2250      00
 2251              	.LASF69:
 2252 007e 50494461 		.ascii	"PIData\000"
 2252      746100
 2253              	.LASF40:
 2254 0085 504C4C49 		.ascii	"PLLI2SCFGR\000"
 2254      32534346 
 2254      475200
 2255              	.LASF39:
 2256 0090 53534347 		.ascii	"SSCGR\000"
 2256      5200
 2257              	.LASF62:
 2258 0096 50424461 		.ascii	"PBData\000"
 2258      746100
 2259              	.LASF32:
 2260 009d 41484233 		.ascii	"AHB3LPENR\000"
 2260      4C50454E 
 2260      5200
 2261              	.LASF75:
 2262 00a7 636F6E66 		.ascii	"config\000"
 2262      696700
 2263              	.LASF72:
 2264 00ae 696F6D6F 		.ascii	"iomode_t\000"
 2264      64655F74 
 2264      00
 2265              	.LASF27:
 2266 00b7 41504231 		.ascii	"APB1ENR\000"
ARM GAS  /tmp/ccsmfkIM.s 			page 42


 2266      454E5200 
 2267              	.LASF71:
 2268 00bf 696F706F 		.ascii	"ioportmask_t\000"
 2268      72746D61 
 2268      736B5F74 
 2268      00
 2269              	.LASF46:
 2270 00cc 4F545950 		.ascii	"OTYPER\000"
 2270      455200
 2271              	.LASF42:
 2272 00d3 44434B43 		.ascii	"DCKCFGR\000"
 2272      46475200 
 2273              	.LASF25:
 2274 00db 41484233 		.ascii	"AHB3ENR\000"
 2274      454E5200 
 2275              	.LASF47:
 2276 00e3 4F535045 		.ascii	"OSPEEDR\000"
 2276      45445200 
 2277              	.LASF10:
 2278 00eb 6C6F6E67 		.ascii	"long long int\000"
 2278      206C6F6E 
 2278      6720696E 
 2278      7400
 2279              	.LASF48:
 2280 00f9 50555044 		.ascii	"PUPDR\000"
 2280      5200
 2281              	.LASF56:
 2282 00ff 6F737065 		.ascii	"ospeedr\000"
 2282      65647200 
 2283              	.LASF7:
 2284 0107 6C6F6E67 		.ascii	"long int\000"
 2284      20696E74 
 2284      00
 2285              	.LASF64:
 2286 0110 50444461 		.ascii	"PDData\000"
 2286      746100
 2287              	.LASF43:
 2288 0117 5243435F 		.ascii	"RCC_TypeDef\000"
 2288      54797065 
 2288      44656600 
 2289              	.LASF45:
 2290 0123 4D4F4445 		.ascii	"MODER\000"
 2290      5200
 2291              	.LASF21:
 2292 0129 41504232 		.ascii	"APB2RSTR\000"
 2292      52535452 
 2292      00
 2293              	.LASF44:
 2294 0132 636C6561 		.ascii	"clear\000"
 2294      7200
 2295              	.LASF85:
 2296 0138 2E2E2F43 		.ascii	"../ChibiOS_2.6.2/os/hal/platforms/STM32/GPIOv2/pal_"
 2296      68696269 
 2296      4F535F32 
 2296      2E362E32 
 2296      2F6F732F 
 2297 016b 6C6C642E 		.ascii	"lld.c\000"
ARM GAS  /tmp/ccsmfkIM.s 			page 43


 2297      6300
 2298              	.LASF67:
 2299 0171 50474461 		.ascii	"PGData\000"
 2299      746100
 2300              	.LASF61:
 2301 0178 50414461 		.ascii	"PAData\000"
 2301      746100
 2302              	.LASF73:
 2303 017f 696F706F 		.ascii	"ioportid_t\000"
 2303      72746964 
 2303      5F7400
 2304              	.LASF2:
 2305 018a 756E7369 		.ascii	"unsigned char\000"
 2305      676E6564 
 2305      20636861 
 2305      7200
 2306              	.LASF28:
 2307 0198 41504232 		.ascii	"APB2ENR\000"
 2307      454E5200 
 2308              	.LASF1:
 2309 01a0 7369676E 		.ascii	"signed char\000"
 2309      65642063 
 2309      68617200 
 2310              	.LASF11:
 2311 01ac 6C6F6E67 		.ascii	"long long unsigned int\000"
 2311      206C6F6E 
 2311      6720756E 
 2311      7369676E 
 2311      65642069 
 2312              	.LASF8:
 2313 01c3 75696E74 		.ascii	"uint32_t\000"
 2313      33325F74 
 2313      00
 2314              	.LASF55:
 2315 01cc 6F747970 		.ascii	"otyper\000"
 2315      657200
 2316              	.LASF17:
 2317 01d3 41484232 		.ascii	"AHB2RSTR\000"
 2317      52535452 
 2317      00
 2318              	.LASF5:
 2319 01dc 75696E74 		.ascii	"uint16_t\000"
 2319      31365F74 
 2319      00
 2320              	.LASF9:
 2321 01e5 6C6F6E67 		.ascii	"long unsigned int\000"
 2321      20756E73 
 2321      69676E65 
 2321      6420696E 
 2321      7400
 2322              	.LASF52:
 2323 01f7 41465248 		.ascii	"AFRH\000"
 2323      00
 2324              	.LASF14:
 2325 01fc 504C4C43 		.ascii	"PLLCFGR\000"
 2325      46475200 
 2326              	.LASF51:
ARM GAS  /tmp/ccsmfkIM.s 			page 44


 2327 0204 4146524C 		.ascii	"AFRL\000"
 2327      00
 2328              	.LASF4:
 2329 0209 73686F72 		.ascii	"short unsigned int\000"
 2329      7420756E 
 2329      7369676E 
 2329      65642069 
 2329      6E7400
 2330              	.LASF34:
 2331 021c 41504231 		.ascii	"APB1LPENR\000"
 2331      4C50454E 
 2331      5200
 2332              	.LASF13:
 2333 0226 63686172 		.ascii	"char\000"
 2333      00
 2334              	.LASF6:
 2335 022b 696E7433 		.ascii	"int32_t\000"
 2335      325F7400 
 2336              	.LASF70:
 2337 0233 50414C43 		.ascii	"PALConfig\000"
 2337      6F6E6669 
 2337      6700
 2338              	.LASF12:
 2339 023d 5F426F6F 		.ascii	"_Bool\000"
 2339      6C00
 2340              	.LASF80:
 2341 0243 6D6F6465 		.ascii	"mode\000"
 2341      00
 2342              	.LASF31:
 2343 0248 41484232 		.ascii	"AHB2LPENR\000"
 2343      4C50454E 
 2343      5200
 2344              	.LASF78:
 2345 0252 706F7274 		.ascii	"port\000"
 2345      00
 2346              	.LASF65:
 2347 0257 50454461 		.ascii	"PEData\000"
 2347      746100
 2348              	.LASF19:
 2349 025e 52455345 		.ascii	"RESERVED0\000"
 2349      52564544 
 2349      3000
 2350              	.LASF22:
 2351 0268 52455345 		.ascii	"RESERVED1\000"
 2351      52564544 
 2351      3100
 2352              	.LASF26:
 2353 0272 52455345 		.ascii	"RESERVED2\000"
 2353      52564544 
 2353      3200
 2354              	.LASF29:
 2355 027c 52455345 		.ascii	"RESERVED3\000"
 2355      52564544 
 2355      3300
 2356              	.LASF33:
 2357 0286 52455345 		.ascii	"RESERVED4\000"
 2357      52564544 
ARM GAS  /tmp/ccsmfkIM.s 			page 45


 2357      3400
 2358              	.LASF36:
 2359 0290 52455345 		.ascii	"RESERVED5\000"
 2359      52564544 
 2359      3500
 2360              	.LASF38:
 2361 029a 52455345 		.ascii	"RESERVED6\000"
 2361      52564544 
 2361      3600
 2362              	.LASF68:
 2363 02a4 50484461 		.ascii	"PHData\000"
 2363      746100
 2364              	.LASF84:
 2365 02ab 474E5520 		.ascii	"GNU C 4.5.1\000"
 2365      4320342E 
 2365      352E3100 
 2366              	.LASF23:
 2367 02b7 41484231 		.ascii	"AHB1ENR\000"
 2367      454E5200 
 2368              	.LASF86:
 2369 02bf 2F686F6D 		.ascii	"/home/nis/stm32f407d_neko\000"
 2369      652F6E69 
 2369      732F7374 
 2369      6D333266 
 2369      34303764 
 2370              	.LASF79:
 2371 02d9 6D61736B 		.ascii	"mask\000"
 2371      00
 2372              	.LASF57:
 2373 02de 70757064 		.ascii	"pupdr\000"
 2373      7200
 2374              	.LASF59:
 2375 02e4 61667268 		.ascii	"afrh\000"
 2375      00
 2376              	.LASF58:
 2377 02e9 6166726C 		.ascii	"afrl\000"
 2377      00
 2378              	.LASF54:
 2379 02ee 6D6F6465 		.ascii	"moder\000"
 2379      7200
 2380              	.LASF16:
 2381 02f4 41484231 		.ascii	"AHB1RSTR\000"
 2381      52535452 
 2381      00
 2382              	.LASF53:
 2383 02fd 4750494F 		.ascii	"GPIO_TypeDef\000"
 2383      5F547970 
 2383      65446566 
 2383      00
 2384              	.LASF18:
 2385 030a 41484233 		.ascii	"AHB3RSTR\000"
 2385      52535452 
 2385      00
 2386              	.LASF81:
 2387 0313 616C7472 		.ascii	"altr\000"
 2387      00
 2388              	.LASF83:
ARM GAS  /tmp/ccsmfkIM.s 			page 46


 2389 0318 49544D5F 		.ascii	"ITM_RxBuffer\000"
 2389      52784275 
 2389      66666572 
 2389      00
 2390              	.LASF82:
 2391 0325 616C7472 		.ascii	"altrmask\000"
 2391      6D61736B 
 2391      00
 2392              	.LASF0:
 2393 032e 756E7369 		.ascii	"unsigned int\000"
 2393      676E6564 
 2393      20696E74 
 2393      00
 2394              	.LASF15:
 2395 033b 43464752 		.ascii	"CFGR\000"
 2395      00
 2396              	.LASF41:
 2397 0340 504C4C53 		.ascii	"PLLSAICFGR\000"
 2397      41494346 
 2397      475200
 2398              	.LASF50:
 2399 034b 4C434B52 		.ascii	"LCKR\000"
 2399      00
 2400              	.LASF35:
 2401 0350 41504232 		.ascii	"APB2LPENR\000"
 2401      4C50454E 
 2401      5200
 2402              	.LASF49:
 2403 035a 42535252 		.ascii	"BSRR\000"
 2403      00
 2404              		.ident	"GCC: (Sourcery G++ Lite 2010.09-51) 4.5.1"
ARM GAS  /tmp/ccsmfkIM.s 			page 47


DEFINED SYMBOLS
                            *ABS*:00000000 pal_lld.c
     /tmp/ccsmfkIM.s:24     .text._pal_lld_init:00000000 $t
     /tmp/ccsmfkIM.s:30     .text._pal_lld_init:00000000 _pal_lld_init
     /tmp/ccsmfkIM.s:389    .text._pal_lld_setgroupmode:00000000 $t
     /tmp/ccsmfkIM.s:395    .text._pal_lld_setgroupmode:00000000 _pal_lld_setgroupmode
                     .debug_frame:00000010 $d

NO UNDEFINED SYMBOLS
