ARM GAS  /tmp/cc92cbin.s 			page 1


   1              		.syntax unified
   2              		.cpu cortex-m4
   3              		.fpu softvfp
   4              		.eabi_attribute 20, 1
   5              		.eabi_attribute 21, 1
   6              		.eabi_attribute 23, 3
   7              		.eabi_attribute 24, 1
   8              		.eabi_attribute 25, 1
   9              		.eabi_attribute 26, 1
  10              		.eabi_attribute 30, 2
  11              		.eabi_attribute 18, 4
  12              		.thumb
  13              		.file	"pwm_lld.c"
  20 0000 A1020000 		.text
  20      02008A01 
  20      00000201 
  20      FB0E0D00 
  20      01010101 
  21              	.Ltext0:
  22              		.cfi_sections	.debug_frame
  23              		.section	.text.VectorB8,"ax",%progbits
  24              		.align	2
  25              		.p2align 4,,15
  26              		.global	VectorB8
  27              		.thumb
  28              		.thumb_func
  29              		.type	VectorB8, %function
  30              	VectorB8:
  31              	.LFB119:
  32              		.file 1 "../ChibiOS_2.6.2/os/hal/platforms/STM32/TIMv1/pwm_lld.c"
  33              		.loc 1 235 0
  34              		.cfi_startproc
  35              		@ args = 0, pretend = 0, frame = 0
  36              		@ frame_needed = 0, uses_anonymous_args = 0
  37              	.LVL0:
  38 0000 70B5     		push	{r4, r5, r6, lr}
  39              	.LCFI0:
  40              		.cfi_def_cfa_offset 16
  41              	.LBB4:
  42              	.LBB5:
  43              		.loc 1 115 0
  44 0002 40F20005 		movw	r5, #:lower16:.LANCHOR0
  45              		.cfi_offset 14, -4
  46              		.cfi_offset 6, -8
  47              		.cfi_offset 5, -12
  48              		.cfi_offset 4, -16
  49 0006 C0F20005 		movt	r5, #:upper16:.LANCHOR0
  50 000a 2B69     		ldr	r3, [r5, #16]
  51 000c 1869     		ldr	r0, [r3, #16]
  52              	.LVL1:
  53              		.loc 1 116 0
ARM GAS  /tmp/cc92cbin.s 			page 2


  54 000e D968     		ldr	r1, [r3, #12]
  55 0010 00EA0104 		and	r4, r0, r1
  56 0014 E4B2     		uxtb	r4, r4
  57              	.LVL2:
  58              		.loc 1 117 0
  59 0016 E243     		mvns	r2, r4
  60              		.loc 1 118 0
  61 0018 14F0020F 		tst	r4, #2
  62              		.loc 1 117 0
  63 001c 1A61     		str	r2, [r3, #16]
  64              		.loc 1 118 0
  65 001e 2ED1     		bne	.L8
  66              	.L2:
  67              		.loc 1 120 0
  68 0020 14F0040F 		tst	r4, #4
  69 0024 23D1     		bne	.L9
  70              	.L3:
  71              		.loc 1 122 0
  72 0026 14F0080F 		tst	r4, #8
  73 002a 18D1     		bne	.L10
  74              	.L4:
  75              		.loc 1 124 0
  76 002c 14F0100F 		tst	r4, #16
  77 0030 0DD1     		bne	.L11
  78              	.L5:
  79              		.loc 1 126 0
  80 0032 14F0010F 		tst	r4, #1
  81 0036 06D0     		beq	.L6
  82              		.loc 1 127 0
  83 0038 6A68     		ldr	r2, [r5, #4]
  84 003a 40F20000 		movw	r0, #:lower16:.LANCHOR0
  85 003e 9168     		ldr	r1, [r2, #8]
  86 0040 C0F20000 		movt	r0, #:upper16:.LANCHOR0
  87 0044 8847     		blx	r1
  88              	.L6:
  89              	.LBE5:
  90              	.LBE4:
  91              		.loc 1 242 0
  92 0046 BDE87040 		pop	{r4, r5, r6, lr}
  93              		.loc 1 241 0
  94 004a FFF7FEBF 		b	_port_irq_epilogue
  95              	.L11:
  96              	.LBB7:
  97              	.LBB6:
  98              		.loc 1 125 0
  99 004e 6B68     		ldr	r3, [r5, #4]
 100 0050 40F20000 		movw	r0, #:lower16:.LANCHOR0
 101 0054 9A6A     		ldr	r2, [r3, #40]
 102 0056 C0F20000 		movt	r0, #:upper16:.LANCHOR0
 103 005a 9047     		blx	r2
 104 005c E9E7     		b	.L5
 105              	.L10:
 106              		.loc 1 123 0
 107 005e 6968     		ldr	r1, [r5, #4]
 108 0060 40F20000 		movw	r0, #:lower16:.LANCHOR0
 109 0064 0B6A     		ldr	r3, [r1, #32]
 110 0066 C0F20000 		movt	r0, #:upper16:.LANCHOR0
ARM GAS  /tmp/cc92cbin.s 			page 3


 111 006a 9847     		blx	r3
 112 006c DEE7     		b	.L4
 113              	.L9:
 114              		.loc 1 121 0
 115 006e 6A68     		ldr	r2, [r5, #4]
 116 0070 40F20000 		movw	r0, #:lower16:.LANCHOR0
 117 0074 9169     		ldr	r1, [r2, #24]
 118 0076 C0F20000 		movt	r0, #:upper16:.LANCHOR0
 119 007a 8847     		blx	r1
 120 007c D3E7     		b	.L3
 121              	.L8:
 122              		.loc 1 119 0
 123 007e 6B68     		ldr	r3, [r5, #4]
 124 0080 2846     		mov	r0, r5
 125 0082 1A69     		ldr	r2, [r3, #16]
 126 0084 9047     		blx	r2
 127 0086 CBE7     		b	.L2
 128              	.LBE6:
 129              	.LBE7:
 130              		.cfi_endproc
 131              	.LFE119:
 132              		.size	VectorB8, .-VectorB8
 133 0088 AFF30080 		.section	.text.pwm_lld_init,"ax",%progbits
 133      AFF30080 
 134              		.align	2
 135              		.p2align 4,,15
 136              		.global	pwm_lld_init
 137              		.thumb
 138              		.thumb_func
 139              		.type	pwm_lld_init, %function
 140              	pwm_lld_init:
 141              	.LFB120:
 142              		.loc 1 345 0
 143              		.cfi_startproc
 144              		@ args = 0, pretend = 0, frame = 0
 145              		@ frame_needed = 0, uses_anonymous_args = 0
 146 0000 10B5     		push	{r4, lr}
 147              	.LCFI1:
 148              		.cfi_def_cfa_offset 8
 149              		.loc 1 367 0
 150 0002 40F20004 		movw	r4, #:lower16:.LANCHOR0
 151              		.cfi_offset 14, -4
 152              		.cfi_offset 4, -8
 153 0006 C0F20004 		movt	r4, #:upper16:.LANCHOR0
 154 000a 2046     		mov	r0, r4
 155 000c FFF7FEFF 		bl	pwmObjectInit
 156              		.loc 1 368 0
 157 0010 4FF40063 		mov	r3, #2048
 158 0014 C4F20003 		movt	r3, 16384
 159 0018 2361     		str	r3, [r4, #16]
 160              		.loc 1 388 0
 161 001a 10BD     		pop	{r4, pc}
 162              		.cfi_endproc
 163              	.LFE120:
 164              		.size	pwm_lld_init, .-pwm_lld_init
 165 001c AFF30080 		.section	.text.pwm_lld_start,"ax",%progbits
 166              		.align	2
ARM GAS  /tmp/cc92cbin.s 			page 4


 167              		.p2align 4,,15
 168              		.global	pwm_lld_start
 169              		.thumb
 170              		.thumb_func
 171              		.type	pwm_lld_start, %function
 172              	pwm_lld_start:
 173              	.LFB121:
 174              		.loc 1 399 0
 175              		.cfi_startproc
 176              		@ args = 0, pretend = 0, frame = 0
 177              		@ frame_needed = 0, uses_anonymous_args = 0
 178              	.LVL3:
 179              		.loc 1 403 0
 180 0000 0378     		ldrb	r3, [r0, #0]	@ zero_extendqisi2
 181 0002 012B     		cmp	r3, #1
 182              		.loc 1 399 0
 183 0004 70B5     		push	{r4, r5, r6, lr}
 184              	.LCFI2:
 185              		.cfi_def_cfa_offset 16
 186              		.loc 1 399 0
 187 0006 0446     		mov	r4, r0
 188              		.cfi_offset 14, -4
 189              		.cfi_offset 6, -8
 190              		.cfi_offset 5, -12
 191              		.cfi_offset 4, -16
 192              		.loc 1 403 0
 193 0008 65D0     		beq	.L31
 194              		.loc 1 492 0
 195 000a 4268     		ldr	r2, [r0, #4]
 196              		.loc 1 491 0
 197 000c 0369     		ldr	r3, [r0, #16]
 198              		.loc 1 492 0
 199 000e 116B     		ldr	r1, [r2, #48]
 200              		.loc 1 491 0
 201 0010 0026     		movs	r6, #0
 202              		.loc 1 492 0
 203 0012 21F0FF00 		bic	r0, r1, #255
 204              	.LVL4:
 205              		.loc 1 491 0
 206 0016 1E60     		str	r6, [r3, #0]
 207              		.loc 1 492 0
 208 0018 D860     		str	r0, [r3, #12]
 209              		.loc 1 494 0
 210 001a 1E61     		str	r6, [r3, #16]
 211              		.loc 1 495 0
 212 001c 5E63     		str	r6, [r3, #52]
 213              		.loc 1 496 0
 214 001e 9E63     		str	r6, [r3, #56]
 215              		.loc 1 497 0
 216 0020 DE63     		str	r6, [r3, #60]
 217              		.loc 1 498 0
 218 0022 1E64     		str	r6, [r3, #64]
 219              		.loc 1 499 0
 220 0024 5E62     		str	r6, [r3, #36]
 221              	.L16:
 222              	.LVL5:
 223              		.loc 1 503 0
ARM GAS  /tmp/cc92cbin.s 			page 5


 224 0026 E668     		ldr	r6, [r4, #12]
 225 0028 1568     		ldr	r5, [r2, #0]
 226              		.loc 1 508 0
 227 002a 2489     		ldrh	r4, [r4, #8]
 228              	.LVL6:
 229              		.loc 1 513 0
 230 002c D168     		ldr	r1, [r2, #12]
 231              		.loc 1 509 0
 232 002e D06A     		ldr	r0, [r2, #44]
 233              		.loc 1 503 0
 234 0030 B6FBF5F5 		udiv	r5, r6, r5
 235 0034 013D     		subs	r5, r5, #1
 236              		.loc 1 508 0
 237 0036 013C     		subs	r4, r4, #1
 238              		.loc 1 513 0
 239 0038 01F00F01 		and	r1, r1, #15
 240              		.loc 1 507 0
 241 003c ADB2     		uxth	r5, r5
 242              		.loc 1 508 0
 243 003e A4B2     		uxth	r4, r4
 244              		.loc 1 513 0
 245 0040 0129     		cmp	r1, #1
 246              		.loc 1 507 0
 247 0042 9D62     		str	r5, [r3, #40]
 248              		.loc 1 508 0
 249 0044 DC62     		str	r4, [r3, #44]
 250              		.loc 1 509 0
 251 0046 5860     		str	r0, [r3, #4]
 252              	.LVL7:
 253              		.loc 1 513 0
 254 0048 03D0     		beq	.L17
 255              		.loc 1 512 0
 256 004a 0229     		cmp	r1, #2
 257 004c 0CBF     		ite	eq
 258 004e 0321     		moveq	r1, #3
 259 0050 0021     		movne	r1, #0
 260              	.L17:
 261              	.LVL8:
 262              		.loc 1 521 0
 263 0052 5069     		ldr	r0, [r2, #20]
 264 0054 00F00F00 		and	r0, r0, #15
 265 0058 0128     		cmp	r0, #1
 266 005a 21D0     		beq	.L21
 267 005c 0228     		cmp	r0, #2
 268 005e 1DD0     		beq	.L32
 269              		.loc 1 529 0
 270 0060 D069     		ldr	r0, [r2, #28]
 271 0062 00F00F00 		and	r0, r0, #15
 272 0066 0128     		cmp	r0, #1
 273 0068 21D0     		beq	.L24
 274              	.LVL9:
 275              	.L35:
 276 006a 0228     		cmp	r0, #2
 277 006c 2ED0     		beq	.L33
 278              	.LVL10:
 279              		.loc 1 537 0
 280 006e 506A     		ldr	r0, [r2, #36]
ARM GAS  /tmp/cc92cbin.s 			page 6


 281 0070 00F00F00 		and	r0, r0, #15
 282 0074 0128     		cmp	r0, #1
 283 0076 21D0     		beq	.L27
 284              	.LVL11:
 285              	.L36:
 286 0078 0228     		cmp	r0, #2
 287 007a 22D0     		beq	.L34
 288              	.L26:
 289              	.LVL12:
 290              		.loc 1 583 0
 291 007c 0120     		movs	r0, #1
 292              		.loc 1 582 0
 293 007e 1962     		str	r1, [r3, #32]
 294              		.loc 1 583 0
 295 0080 5861     		str	r0, [r3, #20]
 296              		.loc 1 584 0
 297 0082 D968     		ldr	r1, [r3, #12]
 298              	.LVL13:
 299 0084 9268     		ldr	r2, [r2, #8]
 300              	.LVL14:
 301 0086 002A     		cmp	r2, #0
 302 0088 0CBF     		ite	eq
 303 008a 0846     		moveq	r0, r1
 304 008c 41F00100 		orrne	r0, r1, #1
 305              		.loc 1 585 0
 306 0090 0021     		movs	r1, #0
 307              		.loc 1 594 0
 308 0092 8522     		movs	r2, #133
 309              		.loc 1 584 0
 310 0094 D860     		str	r0, [r3, #12]
 311              		.loc 1 585 0
 312 0096 1961     		str	r1, [r3, #16]
 313              		.loc 1 594 0
 314 0098 1A60     		str	r2, [r3, #0]
 315              		.loc 1 596 0
 316 009a 70BD     		pop	{r4, r5, r6, pc}
 317              	.LVL15:
 318              	.L32:
 319              		.loc 1 523 0
 320 009c 41F02001 		orr	r1, r1, #32
 321              	.LVL16:
 322              	.L21:
 323              		.loc 1 529 0
 324 00a0 D069     		ldr	r0, [r2, #28]
 325 00a2 00F00F00 		and	r0, r0, #15
 326 00a6 0128     		cmp	r0, #1
 327              		.loc 1 525 0
 328 00a8 41F01001 		orr	r1, r1, #16
 329              	.LVL17:
 330              		.loc 1 529 0
 331 00ac DDD1     		bne	.L35
 332              	.LVL18:
 333              	.L24:
 334              		.loc 1 533 0
 335 00ae 41F48071 		orr	r1, r1, #256
 336              	.LVL19:
 337              	.L37:
ARM GAS  /tmp/cc92cbin.s 			page 7


 338              		.loc 1 537 0
 339 00b2 506A     		ldr	r0, [r2, #36]
 340 00b4 00F00F00 		and	r0, r0, #15
 341 00b8 0128     		cmp	r0, #1
 342 00ba DDD1     		bne	.L36
 343              	.LVL20:
 344              	.L27:
 345              		.loc 1 541 0
 346 00bc 41F48051 		orr	r1, r1, #4096
 347              	.LVL21:
 348 00c0 DCE7     		b	.L26
 349              	.LVL22:
 350              	.L34:
 351              		.loc 1 539 0
 352 00c2 41F40051 		orr	r1, r1, #8192
 353              	.LVL23:
 354              		.loc 1 541 0
 355 00c6 41F48051 		orr	r1, r1, #4096
 356              	.LVL24:
 357 00ca D7E7     		b	.L26
 358              	.LVL25:
 359              	.L33:
 360              		.loc 1 531 0
 361 00cc 41F40071 		orr	r1, r1, #512
 362              	.LVL26:
 363              		.loc 1 533 0
 364 00d0 41F48071 		orr	r1, r1, #256
 365              	.LVL27:
 366 00d4 EDE7     		b	.L37
 367              	.LVL28:
 368              	.L31:
 369              		.loc 1 439 0
 370 00d6 40F20000 		movw	r0, #:lower16:.LANCHOR0
 371              	.LVL29:
 372 00da C0F20000 		movt	r0, #:upper16:.LANCHOR0
 373 00de 8442     		cmp	r4, r0
 374 00e0 06D0     		beq	.L38
 375              	.L15:
 376              		.loc 1 484 0
 377 00e2 2369     		ldr	r3, [r4, #16]
 378              		.loc 1 486 0
 379 00e4 6268     		ldr	r2, [r4, #4]
 380              		.loc 1 484 0
 381 00e6 46F66805 		movw	r5, #26728
 382 00ea 9D61     		str	r5, [r3, #24]
 383              		.loc 1 486 0
 384 00ec DD61     		str	r5, [r3, #28]
 385 00ee 9AE7     		b	.L16
 386              	.L38:
 387              		.loc 1 440 0
 388 00f0 4FF46055 		mov	r5, #14336
 389 00f4 C4F20205 		movt	r5, 16386
 390              		.loc 1 441 0
 391 00f8 0022     		movs	r2, #0
 392              		.loc 1 440 0
 393 00fa 296C     		ldr	r1, [r5, #64]
 394 00fc 41F00400 		orr	r0, r1, #4
ARM GAS  /tmp/cc92cbin.s 			page 8


 395 0100 2864     		str	r0, [r5, #64]
 396              		.loc 1 441 0
 397 0102 2B6A     		ldr	r3, [r5, #32]
 398 0104 43F00406 		orr	r6, r3, #4
 399 0108 2E62     		str	r6, [r5, #32]
 400              		.loc 1 442 0
 401 010a 7021     		movs	r1, #112
 402 010c 1E20     		movs	r0, #30
 403              		.loc 1 441 0
 404 010e 2A62     		str	r2, [r5, #32]
 405              		.loc 1 442 0
 406 0110 FFF7FEFF 		bl	nvicEnableVector
 407              		.loc 1 444 0
 408 0114 4FF43D41 		mov	r1, #48384
 409 0118 C0F20151 		movt	r1, 1281
 410 011c E160     		str	r1, [r4, #12]
 411 011e E0E7     		b	.L15
 412              		.cfi_endproc
 413              	.LFE121:
 414              		.size	pwm_lld_start, .-pwm_lld_start
 415              		.section	.text.pwm_lld_stop,"ax",%progbits
 416              		.align	2
 417              		.p2align 4,,15
 418              		.global	pwm_lld_stop
 419              		.thumb
 420              		.thumb_func
 421              		.type	pwm_lld_stop, %function
 422              	pwm_lld_stop:
 423              	.LFB122:
 424              		.loc 1 605 0
 425              		.cfi_startproc
 426              		@ args = 0, pretend = 0, frame = 0
 427              		@ frame_needed = 0, uses_anonymous_args = 0
 428              	.LVL30:
 429 0000 08B5     		push	{r3, lr}
 430              	.LCFI3:
 431              		.cfi_def_cfa_offset 8
 432              		.loc 1 608 0
 433 0002 0378     		ldrb	r3, [r0, #0]	@ zero_extendqisi2
 434              		.cfi_offset 14, -4
 435              		.cfi_offset 3, -8
 436 0004 022B     		cmp	r3, #2
 437 0006 00D0     		beq	.L41
 438              	.LVL31:
 439              	.L39:
 440 0008 08BD     		pop	{r3, pc}
 441              	.LVL32:
 442              	.L41:
 443              		.loc 1 636 0
 444 000a 40F2000C 		movw	ip, #:lower16:.LANCHOR0
 445              		.loc 1 609 0
 446 000e 0269     		ldr	r2, [r0, #16]
 447              		.loc 1 636 0
 448 0010 C0F2000C 		movt	ip, #:upper16:.LANCHOR0
 449              		.loc 1 609 0
 450 0014 0021     		movs	r1, #0
 451              		.loc 1 636 0
ARM GAS  /tmp/cc92cbin.s 			page 9


 452 0016 6045     		cmp	r0, ip
 453              		.loc 1 609 0
 454 0018 1160     		str	r1, [r2, #0]
 455              		.loc 1 610 0
 456 001a D160     		str	r1, [r2, #12]
 457              		.loc 1 611 0
 458 001c 1161     		str	r1, [r2, #16]
 459              		.loc 1 636 0
 460 001e F3D1     		bne	.L39
 461              		.loc 1 637 0
 462 0020 1E20     		movs	r0, #30
 463              	.LVL33:
 464 0022 FFF7FEFF 		bl	nvicDisableVector
 465              		.loc 1 638 0
 466 0026 4FF46053 		mov	r3, #14336
 467 002a C4F20203 		movt	r3, 16386
 468 002e 196C     		ldr	r1, [r3, #64]
 469 0030 21F00400 		bic	r0, r1, #4
 470 0034 1864     		str	r0, [r3, #64]
 471 0036 E7E7     		b	.L39
 472              		.cfi_endproc
 473              	.LFE122:
 474              		.size	pwm_lld_stop, .-pwm_lld_stop
 475 0038 AFF30080 		.section	.text.pwm_lld_enable_channel,"ax",%progbits
 475      AFF30080 
 476              		.align	2
 477              		.p2align 4,,15
 478              		.global	pwm_lld_enable_channel
 479              		.thumb
 480              		.thumb_func
 481              		.type	pwm_lld_enable_channel, %function
 482              	pwm_lld_enable_channel:
 483              	.LFB123:
 484              		.loc 1 677 0
 485              		.cfi_startproc
 486              		@ args = 0, pretend = 0, frame = 0
 487              		@ frame_needed = 0, uses_anonymous_args = 0
 488              		@ link register save eliminated.
 489              	.LVL34:
 490 0000 10B4     		push	{r4}
 491              	.LCFI4:
 492              		.cfi_def_cfa_offset 4
 493              		.loc 1 682 0
 494 0002 4468     		ldr	r4, [r0, #4]
 495              		.cfi_offset 4, -4
 496              		.loc 1 679 0
 497 0004 0369     		ldr	r3, [r0, #16]
 498              		.loc 1 682 0
 499 0006 04EBC10C 		add	ip, r4, r1, lsl #3
 500              		.loc 1 679 0
 501 000a 01F10C04 		add	r4, r1, #12
 502 000e 03EB8404 		add	r4, r3, r4, lsl #2
 503              		.loc 1 682 0
 504 0012 DCF81000 		ldr	r0, [ip, #16]
 505              	.LVL35:
 506              		.loc 1 679 0
 507 0016 6260     		str	r2, [r4, #4]
ARM GAS  /tmp/cc92cbin.s 			page 10


 508              		.loc 1 682 0
 509 0018 50B1     		cbz	r0, .L42
 510              	.LBB8:
 511              		.loc 1 686 0
 512 001a 0220     		movs	r0, #2
 513              		.loc 1 683 0
 514 001c DA68     		ldr	r2, [r3, #12]
 515              	.LVL36:
 516              		.loc 1 686 0
 517 001e 10FA01F1 		lsls	r1, r0, r1
 518              	.LVL37:
 519 0022 1142     		tst	r1, r2
 520 0024 04D1     		bne	.L42
 521              		.loc 1 687 0
 522 0026 41EA0202 		orr	r2, r1, r2
 523              	.LVL38:
 524              		.loc 1 688 0
 525 002a C943     		mvns	r1, r1
 526              		.loc 1 687 0
 527 002c DA60     		str	r2, [r3, #12]
 528              		.loc 1 688 0
 529 002e 1961     		str	r1, [r3, #16]
 530              	.L42:
 531              	.LBE8:
 532              		.loc 1 691 0
 533 0030 10BC     		pop	{r4}
 534 0032 7047     		bx	lr
 535              		.cfi_endproc
 536              	.LFE123:
 537              		.size	pwm_lld_enable_channel, .-pwm_lld_enable_channel
 538 0034 AFF30080 		.section	.text.pwm_lld_disable_channel,"ax",%progbits
 538      AFF30080 
 538      AFF30080 
 539              		.align	2
 540              		.p2align 4,,15
 541              		.global	pwm_lld_disable_channel
 542              		.thumb
 543              		.thumb_func
 544              		.type	pwm_lld_disable_channel, %function
 545              	pwm_lld_disable_channel:
 546              	.LFB124:
 547              		.loc 1 705 0
 548              		.cfi_startproc
 549              		@ args = 0, pretend = 0, frame = 0
 550              		@ frame_needed = 0, uses_anonymous_args = 0
 551              		@ link register save eliminated.
 552              	.LVL39:
 553              		.loc 1 707 0
 554 0000 0369     		ldr	r3, [r0, #16]
 555 0002 01F10C02 		add	r2, r1, #12
 556 0006 03EB820C 		add	ip, r3, r2, lsl #2
 557 000a 0020     		movs	r0, #0
 558              	.LVL40:
 559 000c CCF80400 		str	r0, [ip, #4]
 560              		.loc 1 708 0
 561 0010 DA68     		ldr	r2, [r3, #12]
 562 0012 0220     		movs	r0, #2
ARM GAS  /tmp/cc92cbin.s 			page 11


 563 0014 8840     		lsls	r0, r0, r1
 564 0016 22EA0001 		bic	r1, r2, r0
 565              	.LVL41:
 566 001a D960     		str	r1, [r3, #12]
 567              		.loc 1 709 0
 568 001c 7047     		bx	lr
 569              		.cfi_endproc
 570              	.LFE124:
 571              		.size	pwm_lld_disable_channel, .-pwm_lld_disable_channel
 572              		.global	PWMD4
 573 001e 00BF     		.section	.bss.PWMD4,"aw",%nobits
 574              		.align	2
 575              		.set	.LANCHOR0,. + 0
 576              		.type	PWMD4, %object
 577              		.size	PWMD4, 20
 578              	PWMD4:
 579 0000 00000000 		.space	20
 579      00000000 
 579      00000000 
 579      00000000 
 579      00000000 
 580              		.text
 581              	.Letext0: