ARM GAS  /tmp/cc5EYtpt.s 			page 1


   1              		.syntax unified
   2              		.cpu cortex-m4
   3              		.fpu softvfp
   4              		.eabi_attribute 20, 1
   5              		.eabi_attribute 21, 1
   6              		.eabi_attribute 23, 3
   7              		.eabi_attribute 24, 1
   8              		.eabi_attribute 25, 1
   9              		.eabi_attribute 26, 1
  10              		.eabi_attribute 30, 2
  11              		.eabi_attribute 18, 4
  12              		.thumb
  13              		.file	"serial_lld.c"
  20 0000 7A030000 		.text
  20      02008C02 
  20      00000201 
  20      FB0E0D00 
  20      01010101 
  21              	.Ltext0:
  22              		.cfi_sections	.debug_frame
  23              		.section	.text.notify2,"ax",%progbits
  24              		.align	2
  25              		.p2align 4,,15
  26              		.thumb
  27              		.thumb_func
  28              		.type	notify2, %function
  29              	notify2:
  30              	.LFB122:
  31              		.file 1 "../ChibiOS_2.6.2/os/hal/platforms/STM32/USARTv1/serial_lld.c"
  32              		.loc 1 211 0
  33              		.cfi_startproc
  34              		@ args = 0, pretend = 0, frame = 0
  35              		@ frame_needed = 0, uses_anonymous_args = 0
  36              		@ link register save eliminated.
  37              	.LVL0:
  38              		.loc 1 214 0
  39 0000 4FF48843 		mov	r3, #17408
  40 0004 C4F20003 		movt	r3, 16384
  41 0008 9989     		ldrh	r1, [r3, #12]
  42 000a 88B2     		uxth	r0, r1
  43              	.LVL1:
  44 000c 40F08002 		orr	r2, r0, #128
  45 0010 9A81     		strh	r2, [r3, #12]	@ movhi
  46              		.loc 1 215 0
  47 0012 7047     		bx	lr
  48              		.cfi_endproc
  49              	.LFE122:
  50              		.size	notify2, .-notify2
  51 0014 AFF30080 		.section	.text.VectorD8,"ax",%progbits
  51      AFF30080 
  51      AFF30080 
ARM GAS  /tmp/cc5EYtpt.s 			page 2


  52              		.align	2
  53              		.p2align 4,,15
  54              		.global	VectorD8
  55              		.thumb
  56              		.thumb_func
  57              		.type	VectorD8, %function
  58              	VectorD8:
  59              	.LFB123:
  60              		.loc 1 282 0
  61              		.cfi_startproc
  62              		@ args = 0, pretend = 0, frame = 0
  63              		@ frame_needed = 0, uses_anonymous_args = 0
  64              	.LVL2:
  65 0000 70B5     		push	{r4, r5, r6, lr}
  66              	.LCFI0:
  67              		.cfi_def_cfa_offset 16
  68              	.LBB52:
  69              	.LBB53:
  70              		.loc 1 155 0
  71 0002 40F20000 		movw	r0, #:lower16:.LANCHOR0
  72 0006 C0F20000 		movt	r0, #:upper16:.LANCHOR0
  73 000a 456F     		ldr	r5, [r0, #116]
  74              		.cfi_offset 14, -4
  75              		.cfi_offset 6, -8
  76              		.cfi_offset 5, -12
  77              		.cfi_offset 4, -16
  78              	.LVL3:
  79              		.loc 1 156 0
  80 000c AE89     		ldrh	r6, [r5, #12]
  81              		.loc 1 157 0
  82 000e 2C88     		ldrh	r4, [r5, #0]
  83 0010 A4B2     		uxth	r4, r4
  84              		.loc 1 160 0
  85 0012 14F4807F 		tst	r4, #256
  86              		.loc 1 156 0
  87 0016 B6B2     		uxth	r6, r6
  88              	.LVL4:
  89              		.loc 1 160 0
  90 0018 4DD1     		bne	.L19
  91              	.LVL5:
  92              	.L3:
  93              	.LBB59:
  94              		.loc 1 168 0
  95 001a 2023     		movs	r3, #32
  96              	.LVL6:
  97              	@ 168 "../ChibiOS_2.6.2/os/hal/platforms/STM32/USARTv1/serial_lld.c" 1
  98 001c 83F31188 		msr     BASEPRI, r3
  99              	@ 0 "" 2
 100              	.LVL7:
 101              		.thumb
 102              	.LBE59:
 103              		.loc 1 169 0
 104 0020 14F0200F 		tst	r4, #32
 105 0024 25D0     		beq	.L4
 106              	.L16:
 107              		.loc 1 171 0
 108 0026 14F00F0F 		tst	r4, #15
ARM GAS  /tmp/cc5EYtpt.s 			page 3


 109 002a 15D0     		beq	.L5
 110              	.LVL8:
 111              	.LBB57:
 112              	.LBB58:
 113              		.loc 1 139 0
 114 002c 14F00801 		ands	r1, r4, #8
 115 0030 18BF     		it	ne
 116 0032 8021     		movne	r1, #128
 117              	.LVL9:
 118              		.loc 1 140 0
 119 0034 14F0010F 		tst	r4, #1
 120              		.loc 1 141 0
 121 0038 18BF     		it	ne
 122 003a 41F02001 		orrne	r1, r1, #32
 123              	.LVL10:
 124              		.loc 1 142 0
 125 003e 14F0020F 		tst	r4, #2
 126              		.loc 1 143 0
 127 0042 18BF     		it	ne
 128 0044 41F04001 		orrne	r1, r1, #64
 129              	.LVL11:
 130              		.loc 1 144 0
 131 0048 14F0040F 		tst	r4, #4
 132              		.loc 1 145 0
 133 004c 18BF     		it	ne
 134 004e 41F48071 		orrne	r1, r1, #256
 135              	.LVL12:
 136              		.loc 1 146 0
 137 0052 2D48     		ldr	r0, .L22
 138 0054 FFF7FEFF 		bl	chEvtBroadcastFlagsI
 139              	.LVL13:
 140              	.L5:
 141              	.LBE58:
 142              	.LBE57:
 143              		.loc 1 173 0
 144 0058 A988     		ldrh	r1, [r5, #4]
 145 005a 40F20000 		movw	r0, #:lower16:.LANCHOR0
 146 005e C0F20000 		movt	r0, #:upper16:.LANCHOR0
 147 0062 C9B2     		uxtb	r1, r1
 148 0064 FFF7FEFF 		bl	sdIncomingDataI
 149              	.LVL14:
 150              		.loc 1 174 0
 151 0068 2888     		ldrh	r0, [r5, #0]
 152 006a 84B2     		uxth	r4, r0
 153              		.loc 1 169 0
 154 006c 14F0200F 		tst	r4, #32
 155 0070 D9D1     		bne	.L16
 156              	.LVL15:
 157              	.L4:
 158              	.LBB56:
 159              		.loc 1 176 0
 160 0072 0023     		movs	r3, #0
 161              	.LVL16:
 162              	@ 176 "../ChibiOS_2.6.2/os/hal/platforms/STM32/USARTv1/serial_lld.c" 1
 163 0074 83F31188 		msr     BASEPRI, r3
 164              	@ 0 "" 2
 165              	.LVL17:
ARM GAS  /tmp/cc5EYtpt.s 			page 4


 166              		.thumb
 167              	.LBE56:
 168              		.loc 1 179 0
 169 0078 16F0800F 		tst	r6, #128
 170 007c 02D0     		beq	.L11
 171 007e 14F0800F 		tst	r4, #128
 172 0082 27D1     		bne	.L20
 173              	.LVL18:
 174              	.L11:
 175              		.loc 1 193 0
 176 0084 14F0400F 		tst	r4, #64
 177 0088 11D0     		beq	.L14
 178              	.LBB55:
 179              		.loc 1 194 0
 180 008a 2023     		movs	r3, #32
 181              	.LVL19:
 182              	@ 194 "../ChibiOS_2.6.2/os/hal/platforms/STM32/USARTv1/serial_lld.c" 1
 183 008c 83F31188 		msr     BASEPRI, r3
 184              	@ 0 "" 2
 185              	.LVL20:
 186              		.thumb
 187              	.LBE55:
 188              		.loc 1 195 0
 189 0090 1D48     		ldr	r0, .L22
 190 0092 1021     		movs	r1, #16
 191 0094 FFF7FEFF 		bl	chEvtBroadcastFlagsI
 192              	.LVL21:
 193              	.LBB54:
 194              		.loc 1 196 0
 195 0098 0023     		movs	r3, #0
 196              	.LVL22:
 197              	@ 196 "../ChibiOS_2.6.2/os/hal/platforms/STM32/USARTv1/serial_lld.c" 1
 198 009a 83F31188 		msr     BASEPRI, r3
 199              	@ 0 "" 2
 200              	.LVL23:
 201              		.thumb
 202              	.LBE54:
 203              		.loc 1 197 0
 204 009e 4FF63F71 		movw	r1, #65343
 205 00a2 06EA0100 		and	r0, r6, r1
 206              		.loc 1 198 0
 207 00a6 4FF6BF73 		movw	r3, 65471	@ movhi
 208              	.LVL24:
 209              		.loc 1 197 0
 210 00aa A881     		strh	r0, [r5, #12]	@ movhi
 211              		.loc 1 198 0
 212 00ac 2B80     		strh	r3, [r5, #0]	@ movhi
 213              	.LVL25:
 214              	.L14:
 215              	.LBE53:
 216              	.LBE52:
 217              		.loc 1 289 0
 218 00ae BDE87040 		pop	{r4, r5, r6, lr}
 219              		.loc 1 288 0
 220 00b2 FFF7FEBF 		b	_port_irq_epilogue
 221              	.LVL26:
 222              	.L19:
ARM GAS  /tmp/cc5EYtpt.s 			page 5


 223              	.LBB66:
 224              	.LBB65:
 225              	.LBB60:
 226              		.loc 1 161 0
 227 00b6 2023     		movs	r3, #32
 228              	.LVL27:
 229              	@ 161 "../ChibiOS_2.6.2/os/hal/platforms/STM32/USARTv1/serial_lld.c" 1
 230 00b8 83F31188 		msr     BASEPRI, r3
 231              	@ 0 "" 2
 232              	.LVL28:
 233              		.thumb
 234              	.LBE60:
 235              		.loc 1 162 0
 236 00bc 4FF40071 		mov	r1, #512
 237 00c0 0430     		adds	r0, r0, #4
 238 00c2 FFF7FEFF 		bl	chEvtBroadcastFlagsI
 239              	.LVL29:
 240              	.LBB61:
 241              		.loc 1 163 0
 242 00c6 0023     		movs	r3, #0
 243              	.LVL30:
 244              	@ 163 "../ChibiOS_2.6.2/os/hal/platforms/STM32/USARTv1/serial_lld.c" 1
 245 00c8 83F31188 		msr     BASEPRI, r3
 246              	@ 0 "" 2
 247              	.LVL31:
 248              		.thumb
 249              	.LBE61:
 250              		.loc 1 164 0
 251 00cc 4FF6FF63 		movw	r3, 65279	@ movhi
 252              	.LVL32:
 253 00d0 2B80     		strh	r3, [r5, #0]	@ movhi
 254 00d2 A2E7     		b	.L3
 255              	.LVL33:
 256              	.L20:
 257              	.LBB62:
 258              	.LBB63:
 259              		.loc 1 181 0
 260 00d4 2023     		movs	r3, #32
 261              	.LVL34:
 262              	@ 181 "../ChibiOS_2.6.2/os/hal/platforms/STM32/USARTv1/serial_lld.c" 1
 263 00d6 83F31188 		msr     BASEPRI, r3
 264              	@ 0 "" 2
 265              	.LVL35:
 266              		.thumb
 267              	.LBE63:
 268              		.loc 1 182 0
 269 00da 0C48     		ldr	r0, .L22+4
 270 00dc FFF7FEFF 		bl	chOQGetI
 271              	.LVL36:
 272              		.loc 1 183 0
 273 00e0 0028     		cmp	r0, #0
 274              		.loc 1 188 0
 275 00e2 A4BF     		itt	ge
 276 00e4 80B2     		uxthge	r0, r0
 277              	.LVL37:
 278 00e6 A880     		strhge	r0, [r5, #4]	@ movhi
 279              		.loc 1 183 0
ARM GAS  /tmp/cc5EYtpt.s 			page 6


 280 00e8 03DB     		blt	.L21
 281              	.L13:
 282              	.LBB64:
 283              		.loc 1 189 0
 284 00ea 0023     		movs	r3, #0
 285              	@ 189 "../ChibiOS_2.6.2/os/hal/platforms/STM32/USARTv1/serial_lld.c" 1
 286 00ec 83F31188 		msr     BASEPRI, r3
 287              	@ 0 "" 2
 288              	.LVL38:
 289              		.thumb
 290 00f0 C8E7     		b	.L11
 291              	.LVL39:
 292              	.L21:
 293              	.LBE64:
 294              		.loc 1 184 0
 295 00f2 0548     		ldr	r0, .L22
 296 00f4 0821     		movs	r1, #8
 297 00f6 FFF7FEFF 		bl	chEvtBroadcastFlagsI
 298              		.loc 1 185 0
 299 00fa 26F0C00C 		bic	ip, r6, #192
 300 00fe 4CF04002 		orr	r2, ip, #64
 301 0102 AA81     		strh	r2, [r5, #12]	@ movhi
 302 0104 F1E7     		b	.L13
 303              	.L23:
 304 0106 00BF     		.align	2
 305              	.L22:
 306 0108 04000000 		.word	.LANCHOR0+4
 307 010c 30000000 		.word	.LANCHOR0+48
 308              	.LBE62:
 309              	.LBE65:
 310              	.LBE66:
 311              		.cfi_endproc
 312              	.LFE123:
 313              		.size	VectorD8, .-VectorD8
 314              		.section	.text.sd_lld_init,"ax",%progbits
 315              		.align	2
 316              		.p2align 4,,15
 317              		.global	sd_lld_init
 318              		.thumb
 319              		.thumb_func
 320              		.type	sd_lld_init, %function
 321              	sd_lld_init:
 322              	.LFB124:
 323              		.loc 1 377 0
 324              		.cfi_startproc
 325              		@ args = 0, pretend = 0, frame = 0
 326              		@ frame_needed = 0, uses_anonymous_args = 0
 327 0000 10B5     		push	{r4, lr}
 328              	.LCFI1:
 329              		.cfi_def_cfa_offset 8
 330              		.loc 1 385 0
 331 0002 40F20004 		movw	r4, #:lower16:.LANCHOR0
 332              		.cfi_offset 14, -4
 333              		.cfi_offset 4, -8
 334 0006 C0F20004 		movt	r4, #:upper16:.LANCHOR0
 335 000a 40F20002 		movw	r2, #:lower16:notify2
 336 000e 2046     		mov	r0, r4
ARM GAS  /tmp/cc5EYtpt.s 			page 7


 337 0010 0021     		movs	r1, #0
 338 0012 C0F20002 		movt	r2, #:upper16:notify2
 339 0016 FFF7FEFF 		bl	sdObjectInit
 340              		.loc 1 386 0
 341 001a 4FF48843 		mov	r3, #17408
 342 001e C4F20003 		movt	r3, 16384
 343 0022 6367     		str	r3, [r4, #116]
 344              		.loc 1 408 0
 345 0024 10BD     		pop	{r4, pc}
 346              		.cfi_endproc
 347              	.LFE124:
 348              		.size	sd_lld_init, .-sd_lld_init
 349 0026 00BFAFF3 		.section	.text.sd_lld_start,"ax",%progbits
 349      0080AFF3 
 349      0080
 350              		.align	2
 351              		.p2align 4,,15
 352              		.global	sd_lld_start
 353              		.thumb
 354              		.thumb_func
 355              		.type	sd_lld_start, %function
 356              	sd_lld_start:
 357              	.LFB125:
 358              		.loc 1 420 0
 359              		.cfi_startproc
 360              		@ args = 0, pretend = 0, frame = 0
 361              		@ frame_needed = 0, uses_anonymous_args = 0
 362              	.LVL40:
 363 0000 38B5     		push	{r3, r4, r5, lr}
 364              	.LCFI2:
 365              		.cfi_def_cfa_offset 16
 366              		.loc 1 423 0
 367 0002 40F20004 		movw	r4, #:lower16:.LANCHOR1
 368              		.cfi_offset 14, -4
 369              		.cfi_offset 5, -8
 370              		.cfi_offset 4, -12
 371              		.cfi_offset 3, -16
 372              		.loc 1 425 0
 373 0006 037A     		ldrb	r3, [r0, #8]	@ zero_extendqisi2
 374              		.loc 1 423 0
 375 0008 C0F20004 		movt	r4, #:upper16:.LANCHOR1
 376 000c 0029     		cmp	r1, #0
 377 000e 18BF     		it	ne
 378 0010 0C46     		movne	r4, r1
 379              	.LVL41:
 380              		.loc 1 425 0
 381 0012 012B     		cmp	r3, #1
 382              		.loc 1 420 0
 383 0014 0546     		mov	r5, r0
 384              		.loc 1 425 0
 385 0016 43D0     		beq	.L31
 386              	.LVL42:
 387              	.L27:
 388              		.loc 1 528 0
 389 0018 6B6F     		ldr	r3, [r5, #116]
 390              	.LVL43:
 391              	.LBB67:
ARM GAS  /tmp/cc5EYtpt.s 			page 8


 392              	.LBB68:
 393              		.loc 1 97 0
 394 001a 4FF48052 		mov	r2, #4096
 395 001e C4F20102 		movt	r2, 16385
 396 0022 981A     		subs	r0, r3, r2
 397 0024 4142     		rsbs	r1, r0, #0
 398 0026 4FF4A05C 		mov	ip, #5120
 399 002a C4F2010C 		movt	ip, 16385
 400 002e 41EB0002 		adc	r2, r1, r0
 401 0032 6345     		cmp	r3, ip
 402 0034 14BF     		ite	ne
 403 0036 1046     		movne	r0, r2
 404 0038 42F00100 		orreq	r0, r2, #1
 405 003c 20BB     		cbnz	r0, .L32
 406              		.loc 1 103 0
 407 003e 2268     		ldr	r2, [r4, #0]
 408 0040 4DF68060 		movw	r0, #56960
 409 0044 C0F28020 		movt	r0, 640
 410 0048 B0FBF2F1 		udiv	r1, r0, r2
 411 004c 1FFA81FC 		uxth	ip, r1
 412 0050 A3F808C0 		strh	ip, [r3, #8]	@ movhi
 413              	.L29:
 414              		.loc 1 108 0
 415 0054 A088     		ldrh	r0, [r4, #4]
 416              		.loc 1 106 0
 417 0056 B4F806C0 		ldrh	ip, [r4, #6]
 418              		.loc 1 107 0
 419 005a 2189     		ldrh	r1, [r4, #8]
 420              		.loc 1 108 0
 421 005c 40F40452 		orr	r2, r0, #8448
 422              		.loc 1 106 0
 423 0060 4CF04000 		orr	r0, ip, #64
 424              		.loc 1 107 0
 425 0064 41F0010C 		orr	ip, r1, #1
 426 0068 1FFA8CF1 		uxth	r1, ip
 427              		.loc 1 108 0
 428 006c 42F02C02 		orr	r2, r2, #44
 429              		.loc 1 106 0
 430 0070 80B2     		uxth	r0, r0
 431 0072 1882     		strh	r0, [r3, #16]	@ movhi
 432              		.loc 1 108 0
 433 0074 1FFA82FC 		uxth	ip, r2
 434              		.loc 1 107 0
 435 0078 9982     		strh	r1, [r3, #20]	@ movhi
 436              		.loc 1 111 0
 437 007a 0021     		movs	r1, #0
 438              		.loc 1 108 0
 439 007c A3F80CC0 		strh	ip, [r3, #12]	@ movhi
 440              		.loc 1 111 0
 441 0080 1980     		strh	r1, [r3, #0]	@ movhi
 442              		.loc 1 112 0
 443 0082 1A88     		ldrh	r2, [r3, #0]
 444              		.loc 1 113 0
 445 0084 9B88     		ldrh	r3, [r3, #4]
 446              	.LBE68:
 447              	.LBE67:
 448              		.loc 1 470 0
ARM GAS  /tmp/cc5EYtpt.s 			page 9


 449 0086 38BD     		pop	{r3, r4, r5, pc}
 450              	.L32:
 451              	.LBB70:
 452              	.LBB69:
 453              		.loc 1 101 0
 454 0088 2268     		ldr	r2, [r4, #0]
 455 008a 4FF43D40 		mov	r0, #48384
 456 008e C0F20150 		movt	r0, 1281
 457 0092 B0FBF2F1 		udiv	r1, r0, r2
 458 0096 1FFA81FC 		uxth	ip, r1
 459 009a A3F808C0 		strh	ip, [r3, #8]	@ movhi
 460 009e D9E7     		b	.L29
 461              	.LVL44:
 462              	.L31:
 463              	.LBE69:
 464              	.LBE70:
 465              		.loc 1 434 0
 466 00a0 40F20000 		movw	r0, #:lower16:.LANCHOR0
 467 00a4 C0F20000 		movt	r0, #:upper16:.LANCHOR0
 468 00a8 8542     		cmp	r5, r0
 469 00aa B5D1     		bne	.L27
 470              		.loc 1 435 0
 471 00ac 4FF46051 		mov	r1, #14336
 472 00b0 C4F20201 		movt	r1, 16386
 473              		.loc 1 436 0
 474 00b4 2620     		movs	r0, #38
 475              		.loc 1 435 0
 476 00b6 0B6C     		ldr	r3, [r1, #64]
 477 00b8 43F40032 		orr	r2, r3, #131072
 478 00bc 0A64     		str	r2, [r1, #64]
 479              		.loc 1 436 0
 480 00be C021     		movs	r1, #192
 481 00c0 FFF7FEFF 		bl	nvicEnableVector
 482 00c4 A8E7     		b	.L27
 483              		.cfi_endproc
 484              	.LFE125:
 485              		.size	sd_lld_start, .-sd_lld_start
 486 00c6 00BFAFF3 		.section	.text.sd_lld_stop,"ax",%progbits
 486      0080AFF3 
 486      0080
 487              		.align	2
 488              		.p2align 4,,15
 489              		.global	sd_lld_stop
 490              		.thumb
 491              		.thumb_func
 492              		.type	sd_lld_stop, %function
 493              	sd_lld_stop:
 494              	.LFB126:
 495              		.loc 1 481 0
 496              		.cfi_startproc
 497              		@ args = 0, pretend = 0, frame = 0
 498              		@ frame_needed = 0, uses_anonymous_args = 0
 499              		@ link register save eliminated.
 500              	.LVL45:
 501              		.loc 1 483 0
 502 0000 037A     		ldrb	r3, [r0, #8]	@ zero_extendqisi2
 503 0002 022B     		cmp	r3, #2
ARM GAS  /tmp/cc5EYtpt.s 			page 10


 504 0004 00D0     		beq	.L35
 505              	.L33:
 506 0006 7047     		bx	lr
 507              	.LVL46:
 508              	.L35:
 509              		.loc 1 493 0
 510 0008 40F2000C 		movw	ip, #:lower16:.LANCHOR0
 511              	.LVL47:
 512              		.loc 1 484 0
 513 000c 426F     		ldr	r2, [r0, #116]
 514              	.LVL48:
 515              		.loc 1 493 0
 516 000e C0F2000C 		movt	ip, #:upper16:.LANCHOR0
 517              	.LBB71:
 518              	.LBB72:
 519              		.loc 1 124 0
 520 0012 0021     		movs	r1, #0
 521              	.LBE72:
 522              	.LBE71:
 523              		.loc 1 493 0
 524 0014 6045     		cmp	r0, ip
 525              	.LBB74:
 526              	.LBB73:
 527              		.loc 1 124 0
 528 0016 9181     		strh	r1, [r2, #12]	@ movhi
 529              		.loc 1 125 0
 530 0018 1182     		strh	r1, [r2, #16]	@ movhi
 531              		.loc 1 126 0
 532 001a 9182     		strh	r1, [r2, #20]	@ movhi
 533              	.LBE73:
 534              	.LBE74:
 535              		.loc 1 493 0
 536 001c F3D1     		bne	.L33
 537              		.loc 1 494 0
 538 001e 4FF46053 		mov	r3, #14336
 539 0022 C4F20203 		movt	r3, 16386
 540              		.loc 1 495 0
 541 0026 2620     		movs	r0, #38
 542              	.LVL49:
 543              		.loc 1 494 0
 544 0028 1A6C     		ldr	r2, [r3, #64]
 545              	.LVL50:
 546 002a 22F40031 		bic	r1, r2, #131072
 547 002e 1964     		str	r1, [r3, #64]
 548              		.loc 1 528 0
 549              		.loc 1 495 0
 550 0030 FFF7FEBF 		b	nvicDisableVector
 551              		.cfi_endproc
 552              	.LFE126:
 553              		.size	sd_lld_stop, .-sd_lld_stop
 554              		.global	SD2
 555 0034 AFF30080 		.section	.rodata.default_config,"a",%progbits
 555      AFF30080 
 555      AFF30080 
 556              		.align	2
 557              		.set	.LANCHOR1,. + 0
 558              		.type	default_config, %object
ARM GAS  /tmp/cc5EYtpt.s 			page 11


 559              		.size	default_config, 12
 560              	default_config:
 561 0000 00C20100 		.word	115200
 562 0004 0000     		.short	0
 563 0006 0040     		.short	16384
 564 0008 0000     		.short	0
 565 000a 0000     		.space	2
 566              		.section	.bss.SD2,"aw",%nobits
 567              		.align	2
 568              		.set	.LANCHOR0,. + 0
 569              		.type	SD2, %object
 570              		.size	SD2, 120
 571              	SD2:
 572 0000 00000000 		.space	120
 572      00000000 
 572      00000000 
 572      00000000 
 572      00000000 
 573              		.text
 574              	.Letext0: