ARM GAS  /tmp/cc5EYtpt.s 			page 1


   1              		.syntax unified
   2              		.cpu cortex-m4
   3              		.fpu softvfp
   4              		.eabi_attribute 20, 1
   5              		.eabi_attribute 21, 1
   6              		.eabi_attribute 23, 3
   7              		.eabi_attribute 24, 1
   8              		.eabi_attribute 25, 1
   9              		.eabi_attribute 26, 1
  10              		.eabi_attribute 30, 2
  11              		.eabi_attribute 18, 4
  12              		.thumb
  13              		.file	"serial_lld.c"
  14              		.section	.debug_abbrev,"",%progbits
  15              	.Ldebug_abbrev0:
  16              		.section	.debug_info,"",%progbits
  17              	.Ldebug_info0:
  18              		.section	.debug_line,"",%progbits
  19              	.Ldebug_line0:
  20 0000 7A030000 		.text
  20      02008C02 
  20      00000201 
  20      FB0E0D00 
  20      01010101 
  21              	.Ltext0:
  22              		.cfi_sections	.debug_frame
  23              		.section	.text.notify2,"ax",%progbits
  24              		.align	2
  25              		.p2align 4,,15
  26              		.thumb
  27              		.thumb_func
  28              		.type	notify2, %function
  29              	notify2:
  30              	.LFB122:
  31              		.file 1 "../ChibiOS_2.6.2/os/hal/platforms/STM32/USARTv1/serial_lld.c"
  32              		.loc 1 211 0
  33              		.cfi_startproc
  34              		@ args = 0, pretend = 0, frame = 0
  35              		@ frame_needed = 0, uses_anonymous_args = 0
  36              		@ link register save eliminated.
  37              	.LVL0:
  38              		.loc 1 214 0
  39 0000 4FF48843 		mov	r3, #17408
  40 0004 C4F20003 		movt	r3, 16384
  41 0008 9989     		ldrh	r1, [r3, #12]
  42 000a 88B2     		uxth	r0, r1
  43              	.LVL1:
  44 000c 40F08002 		orr	r2, r0, #128
  45 0010 9A81     		strh	r2, [r3, #12]	@ movhi
  46              		.loc 1 215 0
  47 0012 7047     		bx	lr
  48              		.cfi_endproc
  49              	.LFE122:
  50              		.size	notify2, .-notify2
  51 0014 AFF30080 		.section	.text.VectorD8,"ax",%progbits
  51      AFF30080 
  51      AFF30080 
ARM GAS  /tmp/cc5EYtpt.s 			page 2


  52              		.align	2
  53              		.p2align 4,,15
  54              		.global	VectorD8
  55              		.thumb
  56              		.thumb_func
  57              		.type	VectorD8, %function
  58              	VectorD8:
  59              	.LFB123:
  60              		.loc 1 282 0
  61              		.cfi_startproc
  62              		@ args = 0, pretend = 0, frame = 0
  63              		@ frame_needed = 0, uses_anonymous_args = 0
  64              	.LVL2:
  65 0000 70B5     		push	{r4, r5, r6, lr}
  66              	.LCFI0:
  67              		.cfi_def_cfa_offset 16
  68              	.LBB52:
  69              	.LBB53:
  70              		.loc 1 155 0
  71 0002 40F20000 		movw	r0, #:lower16:.LANCHOR0
  72 0006 C0F20000 		movt	r0, #:upper16:.LANCHOR0
  73 000a 456F     		ldr	r5, [r0, #116]
  74              		.cfi_offset 14, -4
  75              		.cfi_offset 6, -8
  76              		.cfi_offset 5, -12
  77              		.cfi_offset 4, -16
  78              	.LVL3:
  79              		.loc 1 156 0
  80 000c AE89     		ldrh	r6, [r5, #12]
  81              		.loc 1 157 0
  82 000e 2C88     		ldrh	r4, [r5, #0]
  83 0010 A4B2     		uxth	r4, r4
  84              		.loc 1 160 0
  85 0012 14F4807F 		tst	r4, #256
  86              		.loc 1 156 0
  87 0016 B6B2     		uxth	r6, r6
  88              	.LVL4:
  89              		.loc 1 160 0
  90 0018 4DD1     		bne	.L19
  91              	.LVL5:
  92              	.L3:
  93              	.LBB59:
  94              		.loc 1 168 0
  95 001a 2023     		movs	r3, #32
  96              	.LVL6:
  97              	@ 168 "../ChibiOS_2.6.2/os/hal/platforms/STM32/USARTv1/serial_lld.c" 1
  98 001c 83F31188 		msr     BASEPRI, r3
  99              	@ 0 "" 2
 100              	.LVL7:
 101              		.thumb
 102              	.LBE59:
 103              		.loc 1 169 0
 104 0020 14F0200F 		tst	r4, #32
 105 0024 25D0     		beq	.L4
 106              	.L16:
 107              		.loc 1 171 0
 108 0026 14F00F0F 		tst	r4, #15
ARM GAS  /tmp/cc5EYtpt.s 			page 3


 109 002a 15D0     		beq	.L5
 110              	.LVL8:
 111              	.LBB57:
 112              	.LBB58:
 113              		.loc 1 139 0
 114 002c 14F00801 		ands	r1, r4, #8
 115 0030 18BF     		it	ne
 116 0032 8021     		movne	r1, #128
 117              	.LVL9:
 118              		.loc 1 140 0
 119 0034 14F0010F 		tst	r4, #1
 120              		.loc 1 141 0
 121 0038 18BF     		it	ne
 122 003a 41F02001 		orrne	r1, r1, #32
 123              	.LVL10:
 124              		.loc 1 142 0
 125 003e 14F0020F 		tst	r4, #2
 126              		.loc 1 143 0
 127 0042 18BF     		it	ne
 128 0044 41F04001 		orrne	r1, r1, #64
 129              	.LVL11:
 130              		.loc 1 144 0
 131 0048 14F0040F 		tst	r4, #4
 132              		.loc 1 145 0
 133 004c 18BF     		it	ne
 134 004e 41F48071 		orrne	r1, r1, #256
 135              	.LVL12:
 136              		.loc 1 146 0
 137 0052 2D48     		ldr	r0, .L22
 138 0054 FFF7FEFF 		bl	chEvtBroadcastFlagsI
 139              	.LVL13:
 140              	.L5:
 141              	.LBE58:
 142              	.LBE57:
 143              		.loc 1 173 0
 144 0058 A988     		ldrh	r1, [r5, #4]
 145 005a 40F20000 		movw	r0, #:lower16:.LANCHOR0
 146 005e C0F20000 		movt	r0, #:upper16:.LANCHOR0
 147 0062 C9B2     		uxtb	r1, r1
 148 0064 FFF7FEFF 		bl	sdIncomingDataI
 149              	.LVL14:
 150              		.loc 1 174 0
 151 0068 2888     		ldrh	r0, [r5, #0]
 152 006a 84B2     		uxth	r4, r0
 153              		.loc 1 169 0
 154 006c 14F0200F 		tst	r4, #32
 155 0070 D9D1     		bne	.L16
 156              	.LVL15:
 157              	.L4:
 158              	.LBB56:
 159              		.loc 1 176 0
 160 0072 0023     		movs	r3, #0
 161              	.LVL16:
 162              	@ 176 "../ChibiOS_2.6.2/os/hal/platforms/STM32/USARTv1/serial_lld.c" 1
 163 0074 83F31188 		msr     BASEPRI, r3
 164              	@ 0 "" 2
 165              	.LVL17:
ARM GAS  /tmp/cc5EYtpt.s 			page 4


 166              		.thumb
 167              	.LBE56:
 168              		.loc 1 179 0
 169 0078 16F0800F 		tst	r6, #128
 170 007c 02D0     		beq	.L11
 171 007e 14F0800F 		tst	r4, #128
 172 0082 27D1     		bne	.L20
 173              	.LVL18:
 174              	.L11:
 175              		.loc 1 193 0
 176 0084 14F0400F 		tst	r4, #64
 177 0088 11D0     		beq	.L14
 178              	.LBB55:
 179              		.loc 1 194 0
 180 008a 2023     		movs	r3, #32
 181              	.LVL19:
 182              	@ 194 "../ChibiOS_2.6.2/os/hal/platforms/STM32/USARTv1/serial_lld.c" 1
 183 008c 83F31188 		msr     BASEPRI, r3
 184              	@ 0 "" 2
 185              	.LVL20:
 186              		.thumb
 187              	.LBE55:
 188              		.loc 1 195 0
 189 0090 1D48     		ldr	r0, .L22
 190 0092 1021     		movs	r1, #16
 191 0094 FFF7FEFF 		bl	chEvtBroadcastFlagsI
 192              	.LVL21:
 193              	.LBB54:
 194              		.loc 1 196 0
 195 0098 0023     		movs	r3, #0
 196              	.LVL22:
 197              	@ 196 "../ChibiOS_2.6.2/os/hal/platforms/STM32/USARTv1/serial_lld.c" 1
 198 009a 83F31188 		msr     BASEPRI, r3
 199              	@ 0 "" 2
 200              	.LVL23:
 201              		.thumb
 202              	.LBE54:
 203              		.loc 1 197 0
 204 009e 4FF63F71 		movw	r1, #65343
 205 00a2 06EA0100 		and	r0, r6, r1
 206              		.loc 1 198 0
 207 00a6 4FF6BF73 		movw	r3, 65471	@ movhi
 208              	.LVL24:
 209              		.loc 1 197 0
 210 00aa A881     		strh	r0, [r5, #12]	@ movhi
 211              		.loc 1 198 0
 212 00ac 2B80     		strh	r3, [r5, #0]	@ movhi
 213              	.LVL25:
 214              	.L14:
 215              	.LBE53:
 216              	.LBE52:
 217              		.loc 1 289 0
 218 00ae BDE87040 		pop	{r4, r5, r6, lr}
 219              		.loc 1 288 0
 220 00b2 FFF7FEBF 		b	_port_irq_epilogue
 221              	.LVL26:
 222              	.L19:
ARM GAS  /tmp/cc5EYtpt.s 			page 5


 223              	.LBB66:
 224              	.LBB65:
 225              	.LBB60:
 226              		.loc 1 161 0
 227 00b6 2023     		movs	r3, #32
 228              	.LVL27:
 229              	@ 161 "../ChibiOS_2.6.2/os/hal/platforms/STM32/USARTv1/serial_lld.c" 1
 230 00b8 83F31188 		msr     BASEPRI, r3
 231              	@ 0 "" 2
 232              	.LVL28:
 233              		.thumb
 234              	.LBE60:
 235              		.loc 1 162 0
 236 00bc 4FF40071 		mov	r1, #512
 237 00c0 0430     		adds	r0, r0, #4
 238 00c2 FFF7FEFF 		bl	chEvtBroadcastFlagsI
 239              	.LVL29:
 240              	.LBB61:
 241              		.loc 1 163 0
 242 00c6 0023     		movs	r3, #0
 243              	.LVL30:
 244              	@ 163 "../ChibiOS_2.6.2/os/hal/platforms/STM32/USARTv1/serial_lld.c" 1
 245 00c8 83F31188 		msr     BASEPRI, r3
 246              	@ 0 "" 2
 247              	.LVL31:
 248              		.thumb
 249              	.LBE61:
 250              		.loc 1 164 0
 251 00cc 4FF6FF63 		movw	r3, 65279	@ movhi
 252              	.LVL32:
 253 00d0 2B80     		strh	r3, [r5, #0]	@ movhi
 254 00d2 A2E7     		b	.L3
 255              	.LVL33:
 256              	.L20:
 257              	.LBB62:
 258              	.LBB63:
 259              		.loc 1 181 0
 260 00d4 2023     		movs	r3, #32
 261              	.LVL34:
 262              	@ 181 "../ChibiOS_2.6.2/os/hal/platforms/STM32/USARTv1/serial_lld.c" 1
 263 00d6 83F31188 		msr     BASEPRI, r3
 264              	@ 0 "" 2
 265              	.LVL35:
 266              		.thumb
 267              	.LBE63:
 268              		.loc 1 182 0
 269 00da 0C48     		ldr	r0, .L22+4
 270 00dc FFF7FEFF 		bl	chOQGetI
 271              	.LVL36:
 272              		.loc 1 183 0
 273 00e0 0028     		cmp	r0, #0
 274              		.loc 1 188 0
 275 00e2 A4BF     		itt	ge
 276 00e4 80B2     		uxthge	r0, r0
 277              	.LVL37:
 278 00e6 A880     		strhge	r0, [r5, #4]	@ movhi
 279              		.loc 1 183 0
ARM GAS  /tmp/cc5EYtpt.s 			page 6


 280 00e8 03DB     		blt	.L21
 281              	.L13:
 282              	.LBB64:
 283              		.loc 1 189 0
 284 00ea 0023     		movs	r3, #0
 285              	@ 189 "../ChibiOS_2.6.2/os/hal/platforms/STM32/USARTv1/serial_lld.c" 1
 286 00ec 83F31188 		msr     BASEPRI, r3
 287              	@ 0 "" 2
 288              	.LVL38:
 289              		.thumb
 290 00f0 C8E7     		b	.L11
 291              	.LVL39:
 292              	.L21:
 293              	.LBE64:
 294              		.loc 1 184 0
 295 00f2 0548     		ldr	r0, .L22
 296 00f4 0821     		movs	r1, #8
 297 00f6 FFF7FEFF 		bl	chEvtBroadcastFlagsI
 298              		.loc 1 185 0
 299 00fa 26F0C00C 		bic	ip, r6, #192
 300 00fe 4CF04002 		orr	r2, ip, #64
 301 0102 AA81     		strh	r2, [r5, #12]	@ movhi
 302 0104 F1E7     		b	.L13
 303              	.L23:
 304 0106 00BF     		.align	2
 305              	.L22:
 306 0108 04000000 		.word	.LANCHOR0+4
 307 010c 30000000 		.word	.LANCHOR0+48
 308              	.LBE62:
 309              	.LBE65:
 310              	.LBE66:
 311              		.cfi_endproc
 312              	.LFE123:
 313              		.size	VectorD8, .-VectorD8
 314              		.section	.text.sd_lld_init,"ax",%progbits
 315              		.align	2
 316              		.p2align 4,,15
 317              		.global	sd_lld_init
 318              		.thumb
 319              		.thumb_func
 320              		.type	sd_lld_init, %function
 321              	sd_lld_init:
 322              	.LFB124:
 323              		.loc 1 377 0
 324              		.cfi_startproc
 325              		@ args = 0, pretend = 0, frame = 0
 326              		@ frame_needed = 0, uses_anonymous_args = 0
 327 0000 10B5     		push	{r4, lr}
 328              	.LCFI1:
 329              		.cfi_def_cfa_offset 8
 330              		.loc 1 385 0
 331 0002 40F20004 		movw	r4, #:lower16:.LANCHOR0
 332              		.cfi_offset 14, -4
 333              		.cfi_offset 4, -8
 334 0006 C0F20004 		movt	r4, #:upper16:.LANCHOR0
 335 000a 40F20002 		movw	r2, #:lower16:notify2
 336 000e 2046     		mov	r0, r4
ARM GAS  /tmp/cc5EYtpt.s 			page 7


 337 0010 0021     		movs	r1, #0
 338 0012 C0F20002 		movt	r2, #:upper16:notify2
 339 0016 FFF7FEFF 		bl	sdObjectInit
 340              		.loc 1 386 0
 341 001a 4FF48843 		mov	r3, #17408
 342 001e C4F20003 		movt	r3, 16384
 343 0022 6367     		str	r3, [r4, #116]
 344              		.loc 1 408 0
 345 0024 10BD     		pop	{r4, pc}
 346              		.cfi_endproc
 347              	.LFE124:
 348              		.size	sd_lld_init, .-sd_lld_init
 349 0026 00BFAFF3 		.section	.text.sd_lld_start,"ax",%progbits
 349      0080AFF3 
 349      0080
 350              		.align	2
 351              		.p2align 4,,15
 352              		.global	sd_lld_start
 353              		.thumb
 354              		.thumb_func
 355              		.type	sd_lld_start, %function
 356              	sd_lld_start:
 357              	.LFB125:
 358              		.loc 1 420 0
 359              		.cfi_startproc
 360              		@ args = 0, pretend = 0, frame = 0
 361              		@ frame_needed = 0, uses_anonymous_args = 0
 362              	.LVL40:
 363 0000 38B5     		push	{r3, r4, r5, lr}
 364              	.LCFI2:
 365              		.cfi_def_cfa_offset 16
 366              		.loc 1 423 0
 367 0002 40F20004 		movw	r4, #:lower16:.LANCHOR1
 368              		.cfi_offset 14, -4
 369              		.cfi_offset 5, -8
 370              		.cfi_offset 4, -12
 371              		.cfi_offset 3, -16
 372              		.loc 1 425 0
 373 0006 037A     		ldrb	r3, [r0, #8]	@ zero_extendqisi2
 374              		.loc 1 423 0
 375 0008 C0F20004 		movt	r4, #:upper16:.LANCHOR1
 376 000c 0029     		cmp	r1, #0
 377 000e 18BF     		it	ne
 378 0010 0C46     		movne	r4, r1
 379              	.LVL41:
 380              		.loc 1 425 0
 381 0012 012B     		cmp	r3, #1
 382              		.loc 1 420 0
 383 0014 0546     		mov	r5, r0
 384              		.loc 1 425 0
 385 0016 43D0     		beq	.L31
 386              	.LVL42:
 387              	.L27:
 388              		.loc 1 528 0
 389 0018 6B6F     		ldr	r3, [r5, #116]
 390              	.LVL43:
 391              	.LBB67:
ARM GAS  /tmp/cc5EYtpt.s 			page 8


 392              	.LBB68:
 393              		.loc 1 97 0
 394 001a 4FF48052 		mov	r2, #4096
 395 001e C4F20102 		movt	r2, 16385
 396 0022 981A     		subs	r0, r3, r2
 397 0024 4142     		rsbs	r1, r0, #0
 398 0026 4FF4A05C 		mov	ip, #5120
 399 002a C4F2010C 		movt	ip, 16385
 400 002e 41EB0002 		adc	r2, r1, r0
 401 0032 6345     		cmp	r3, ip
 402 0034 14BF     		ite	ne
 403 0036 1046     		movne	r0, r2
 404 0038 42F00100 		orreq	r0, r2, #1
 405 003c 20BB     		cbnz	r0, .L32
 406              		.loc 1 103 0
 407 003e 2268     		ldr	r2, [r4, #0]
 408 0040 4DF68060 		movw	r0, #56960
 409 0044 C0F28020 		movt	r0, 640
 410 0048 B0FBF2F1 		udiv	r1, r0, r2
 411 004c 1FFA81FC 		uxth	ip, r1
 412 0050 A3F808C0 		strh	ip, [r3, #8]	@ movhi
 413              	.L29:
 414              		.loc 1 108 0
 415 0054 A088     		ldrh	r0, [r4, #4]
 416              		.loc 1 106 0
 417 0056 B4F806C0 		ldrh	ip, [r4, #6]
 418              		.loc 1 107 0
 419 005a 2189     		ldrh	r1, [r4, #8]
 420              		.loc 1 108 0
 421 005c 40F40452 		orr	r2, r0, #8448
 422              		.loc 1 106 0
 423 0060 4CF04000 		orr	r0, ip, #64
 424              		.loc 1 107 0
 425 0064 41F0010C 		orr	ip, r1, #1
 426 0068 1FFA8CF1 		uxth	r1, ip
 427              		.loc 1 108 0
 428 006c 42F02C02 		orr	r2, r2, #44
 429              		.loc 1 106 0
 430 0070 80B2     		uxth	r0, r0
 431 0072 1882     		strh	r0, [r3, #16]	@ movhi
 432              		.loc 1 108 0
 433 0074 1FFA82FC 		uxth	ip, r2
 434              		.loc 1 107 0
 435 0078 9982     		strh	r1, [r3, #20]	@ movhi
 436              		.loc 1 111 0
 437 007a 0021     		movs	r1, #0
 438              		.loc 1 108 0
 439 007c A3F80CC0 		strh	ip, [r3, #12]	@ movhi
 440              		.loc 1 111 0
 441 0080 1980     		strh	r1, [r3, #0]	@ movhi
 442              		.loc 1 112 0
 443 0082 1A88     		ldrh	r2, [r3, #0]
 444              		.loc 1 113 0
 445 0084 9B88     		ldrh	r3, [r3, #4]
 446              	.LBE68:
 447              	.LBE67:
 448              		.loc 1 470 0
ARM GAS  /tmp/cc5EYtpt.s 			page 9


 449 0086 38BD     		pop	{r3, r4, r5, pc}
 450              	.L32:
 451              	.LBB70:
 452              	.LBB69:
 453              		.loc 1 101 0
 454 0088 2268     		ldr	r2, [r4, #0]
 455 008a 4FF43D40 		mov	r0, #48384
 456 008e C0F20150 		movt	r0, 1281
 457 0092 B0FBF2F1 		udiv	r1, r0, r2
 458 0096 1FFA81FC 		uxth	ip, r1
 459 009a A3F808C0 		strh	ip, [r3, #8]	@ movhi
 460 009e D9E7     		b	.L29
 461              	.LVL44:
 462              	.L31:
 463              	.LBE69:
 464              	.LBE70:
 465              		.loc 1 434 0
 466 00a0 40F20000 		movw	r0, #:lower16:.LANCHOR0
 467 00a4 C0F20000 		movt	r0, #:upper16:.LANCHOR0
 468 00a8 8542     		cmp	r5, r0
 469 00aa B5D1     		bne	.L27
 470              		.loc 1 435 0
 471 00ac 4FF46051 		mov	r1, #14336
 472 00b0 C4F20201 		movt	r1, 16386
 473              		.loc 1 436 0
 474 00b4 2620     		movs	r0, #38
 475              		.loc 1 435 0
 476 00b6 0B6C     		ldr	r3, [r1, #64]
 477 00b8 43F40032 		orr	r2, r3, #131072
 478 00bc 0A64     		str	r2, [r1, #64]
 479              		.loc 1 436 0
 480 00be C021     		movs	r1, #192
 481 00c0 FFF7FEFF 		bl	nvicEnableVector
 482 00c4 A8E7     		b	.L27
 483              		.cfi_endproc
 484              	.LFE125:
 485              		.size	sd_lld_start, .-sd_lld_start
 486 00c6 00BFAFF3 		.section	.text.sd_lld_stop,"ax",%progbits
 486      0080AFF3 
 486      0080
 487              		.align	2
 488              		.p2align 4,,15
 489              		.global	sd_lld_stop
 490              		.thumb
 491              		.thumb_func
 492              		.type	sd_lld_stop, %function
 493              	sd_lld_stop:
 494              	.LFB126:
 495              		.loc 1 481 0
 496              		.cfi_startproc
 497              		@ args = 0, pretend = 0, frame = 0
 498              		@ frame_needed = 0, uses_anonymous_args = 0
 499              		@ link register save eliminated.
 500              	.LVL45:
 501              		.loc 1 483 0
 502 0000 037A     		ldrb	r3, [r0, #8]	@ zero_extendqisi2
 503 0002 022B     		cmp	r3, #2
ARM GAS  /tmp/cc5EYtpt.s 			page 10


 504 0004 00D0     		beq	.L35
 505              	.L33:
 506 0006 7047     		bx	lr
 507              	.LVL46:
 508              	.L35:
 509              		.loc 1 493 0
 510 0008 40F2000C 		movw	ip, #:lower16:.LANCHOR0
 511              	.LVL47:
 512              		.loc 1 484 0
 513 000c 426F     		ldr	r2, [r0, #116]
 514              	.LVL48:
 515              		.loc 1 493 0
 516 000e C0F2000C 		movt	ip, #:upper16:.LANCHOR0
 517              	.LBB71:
 518              	.LBB72:
 519              		.loc 1 124 0
 520 0012 0021     		movs	r1, #0
 521              	.LBE72:
 522              	.LBE71:
 523              		.loc 1 493 0
 524 0014 6045     		cmp	r0, ip
 525              	.LBB74:
 526              	.LBB73:
 527              		.loc 1 124 0
 528 0016 9181     		strh	r1, [r2, #12]	@ movhi
 529              		.loc 1 125 0
 530 0018 1182     		strh	r1, [r2, #16]	@ movhi
 531              		.loc 1 126 0
 532 001a 9182     		strh	r1, [r2, #20]	@ movhi
 533              	.LBE73:
 534              	.LBE74:
 535              		.loc 1 493 0
 536 001c F3D1     		bne	.L33
 537              		.loc 1 494 0
 538 001e 4FF46053 		mov	r3, #14336
 539 0022 C4F20203 		movt	r3, 16386
 540              		.loc 1 495 0
 541 0026 2620     		movs	r0, #38
 542              	.LVL49:
 543              		.loc 1 494 0
 544 0028 1A6C     		ldr	r2, [r3, #64]
 545              	.LVL50:
 546 002a 22F40031 		bic	r1, r2, #131072
 547 002e 1964     		str	r1, [r3, #64]
 548              		.loc 1 528 0
 549              		.loc 1 495 0
 550 0030 FFF7FEBF 		b	nvicDisableVector
 551              		.cfi_endproc
 552              	.LFE126:
 553              		.size	sd_lld_stop, .-sd_lld_stop
 554              		.global	SD2
 555 0034 AFF30080 		.section	.rodata.default_config,"a",%progbits
 555      AFF30080 
 555      AFF30080 
 556              		.align	2
 557              		.set	.LANCHOR1,. + 0
 558              		.type	default_config, %object
ARM GAS  /tmp/cc5EYtpt.s 			page 11


 559              		.size	default_config, 12
 560              	default_config:
 561 0000 00C20100 		.word	115200
 562 0004 0000     		.short	0
 563 0006 0040     		.short	16384
 564 0008 0000     		.short	0
 565 000a 0000     		.space	2
 566              		.section	.bss.SD2,"aw",%nobits
 567              		.align	2
 568              		.set	.LANCHOR0,. + 0
 569              		.type	SD2, %object
 570              		.size	SD2, 120
 571              	SD2:
 572 0000 00000000 		.space	120
 572      00000000 
 572      00000000 
 572      00000000 
 572      00000000 
 573              		.text
 574              	.Letext0:
 575              		.section	.debug_loc,"",%progbits
 576              	.Ldebug_loc0:
 577              	.LLST0:
 578 0000 00000000 		.4byte	.LVL0
 579 0004 0C000000 		.4byte	.LVL1
 580 0008 0100     		.2byte	0x1
 581 000a 50       		.byte	0x50
 582 000b 00000000 		.4byte	0x0
 583 000f 00000000 		.4byte	0x0
 584              	.LLST1:
 585 0013 00000000 		.4byte	.LFB123
 586 0017 02000000 		.4byte	.LCFI0
 587 001b 0200     		.2byte	0x2
 588 001d 7D       		.byte	0x7d
 589 001e 00       		.sleb128 0
 590 001f 02000000 		.4byte	.LCFI0
 591 0023 10010000 		.4byte	.LFE123
 592 0027 0200     		.2byte	0x2
 593 0029 7D       		.byte	0x7d
 594 002a 10       		.sleb128 16
 595 002b 00000000 		.4byte	0x0
 596 002f 00000000 		.4byte	0x0
 597              	.LLST2:
 598 0033 0C000000 		.4byte	.LVL3
 599 0037 1A000000 		.4byte	.LVL5
 600 003b 0500     		.2byte	0x5
 601 003d 03       		.byte	0x3
 602 003e 74000000 		.4byte	SD2+116
 603 0042 1A000000 		.4byte	.LVL5
 604 0046 10010000 		.4byte	.LFE123
 605 004a 0100     		.2byte	0x1
 606 004c 55       		.byte	0x55
 607 004d 00000000 		.4byte	0x0
 608 0051 00000000 		.4byte	0x0
 609              	.LLST3:
 610 0055 9E000000 		.4byte	.LVL23
 611 0059 AA000000 		.4byte	.LVL24
ARM GAS  /tmp/cc5EYtpt.s 			page 12


 612 005d 0100     		.2byte	0x1
 613 005f 53       		.byte	0x53
 614 0060 00000000 		.4byte	0x0
 615 0064 00000000 		.4byte	0x0
 616              	.LLST4:
 617 0068 90000000 		.4byte	.LVL20
 618 006c 97000000 		.4byte	.LVL21-1
 619 0070 0100     		.2byte	0x1
 620 0072 53       		.byte	0x53
 621 0073 00000000 		.4byte	0x0
 622 0077 00000000 		.4byte	0x0
 623              	.LLST5:
 624 007b 78000000 		.4byte	.LVL17
 625 007f 8C000000 		.4byte	.LVL19
 626 0083 0100     		.2byte	0x1
 627 0085 53       		.byte	0x53
 628 0086 AE000000 		.4byte	.LVL25
 629 008a B5000000 		.4byte	.LVL26-1
 630 008e 0100     		.2byte	0x1
 631 0090 53       		.byte	0x53
 632 0091 D4000000 		.4byte	.LVL33
 633 0095 D6000000 		.4byte	.LVL34
 634 0099 0100     		.2byte	0x1
 635 009b 53       		.byte	0x53
 636 009c 00000000 		.4byte	0x0
 637 00a0 00000000 		.4byte	0x0
 638              	.LLST6:
 639 00a4 2C000000 		.4byte	.LVL8
 640 00a8 58000000 		.4byte	.LVL13
 641 00ac 0600     		.2byte	0x6
 642 00ae 03       		.byte	0x3
 643 00af 00000000 		.4byte	SD2
 644 00b3 9F       		.byte	0x9f
 645 00b4 00000000 		.4byte	0x0
 646 00b8 00000000 		.4byte	0x0
 647              	.LLST7:
 648 00bc 2C000000 		.4byte	.LVL8
 649 00c0 34000000 		.4byte	.LVL9
 650 00c4 0200     		.2byte	0x2
 651 00c6 30       		.byte	0x30
 652 00c7 9F       		.byte	0x9f
 653 00c8 34000000 		.4byte	.LVL9
 654 00cc 3E000000 		.4byte	.LVL10
 655 00d0 0100     		.2byte	0x1
 656 00d2 51       		.byte	0x51
 657 00d3 3E000000 		.4byte	.LVL10
 658 00d7 48000000 		.4byte	.LVL11
 659 00db 0100     		.2byte	0x1
 660 00dd 51       		.byte	0x51
 661 00de 48000000 		.4byte	.LVL11
 662 00e2 52000000 		.4byte	.LVL12
 663 00e6 0100     		.2byte	0x1
 664 00e8 51       		.byte	0x51
 665 00e9 52000000 		.4byte	.LVL12
 666 00ed 57000000 		.4byte	.LVL13-1
 667 00f1 0100     		.2byte	0x1
 668 00f3 51       		.byte	0x51
ARM GAS  /tmp/cc5EYtpt.s 			page 13


 669 00f4 00000000 		.4byte	0x0
 670 00f8 00000000 		.4byte	0x0
 671              	.LLST8:
 672 00fc 20000000 		.4byte	.LVL7
 673 0100 57000000 		.4byte	.LVL13-1
 674 0104 0100     		.2byte	0x1
 675 0106 53       		.byte	0x53
 676 0107 58000000 		.4byte	.LVL13
 677 010b 67000000 		.4byte	.LVL14-1
 678 010f 0100     		.2byte	0x1
 679 0111 53       		.byte	0x53
 680 0112 72000000 		.4byte	.LVL15
 681 0116 74000000 		.4byte	.LVL16
 682 011a 0100     		.2byte	0x1
 683 011c 53       		.byte	0x53
 684 011d 00000000 		.4byte	0x0
 685 0121 00000000 		.4byte	0x0
 686              	.LLST9:
 687 0125 BC000000 		.4byte	.LVL28
 688 0129 C5000000 		.4byte	.LVL29-1
 689 012d 0100     		.2byte	0x1
 690 012f 53       		.byte	0x53
 691 0130 00000000 		.4byte	0x0
 692 0134 00000000 		.4byte	0x0
 693              	.LLST10:
 694 0138 CC000000 		.4byte	.LVL31
 695 013c D0000000 		.4byte	.LVL32
 696 0140 0100     		.2byte	0x1
 697 0142 53       		.byte	0x53
 698 0143 00000000 		.4byte	0x0
 699 0147 00000000 		.4byte	0x0
 700              	.LLST11:
 701 014b E0000000 		.4byte	.LVL36
 702 014f E6000000 		.4byte	.LVL37
 703 0153 0100     		.2byte	0x1
 704 0155 50       		.byte	0x50
 705 0156 00000000 		.4byte	0x0
 706 015a 00000000 		.4byte	0x0
 707              	.LLST12:
 708 015e DA000000 		.4byte	.LVL35
 709 0162 DF000000 		.4byte	.LVL36-1
 710 0166 0100     		.2byte	0x1
 711 0168 53       		.byte	0x53
 712 0169 00000000 		.4byte	0x0
 713 016d 00000000 		.4byte	0x0
 714              	.LLST13:
 715 0171 84000000 		.4byte	.LVL18
 716 0175 8C000000 		.4byte	.LVL19
 717 0179 0100     		.2byte	0x1
 718 017b 53       		.byte	0x53
 719 017c AE000000 		.4byte	.LVL25
 720 0180 B5000000 		.4byte	.LVL26-1
 721 0184 0100     		.2byte	0x1
 722 0186 53       		.byte	0x53
 723 0187 F0000000 		.4byte	.LVL38
 724 018b F2000000 		.4byte	.LVL39
 725 018f 0100     		.2byte	0x1
ARM GAS  /tmp/cc5EYtpt.s 			page 14


 726 0191 53       		.byte	0x53
 727 0192 00000000 		.4byte	0x0
 728 0196 00000000 		.4byte	0x0
 729              	.LLST14:
 730 019a 00000000 		.4byte	.LFB124
 731 019e 02000000 		.4byte	.LCFI1
 732 01a2 0200     		.2byte	0x2
 733 01a4 7D       		.byte	0x7d
 734 01a5 00       		.sleb128 0
 735 01a6 02000000 		.4byte	.LCFI1
 736 01aa 26000000 		.4byte	.LFE124
 737 01ae 0200     		.2byte	0x2
 738 01b0 7D       		.byte	0x7d
 739 01b1 08       		.sleb128 8
 740 01b2 00000000 		.4byte	0x0
 741 01b6 00000000 		.4byte	0x0
 742              	.LLST15:
 743 01ba 00000000 		.4byte	.LFB125
 744 01be 02000000 		.4byte	.LCFI2
 745 01c2 0200     		.2byte	0x2
 746 01c4 7D       		.byte	0x7d
 747 01c5 00       		.sleb128 0
 748 01c6 02000000 		.4byte	.LCFI2
 749 01ca C6000000 		.4byte	.LFE125
 750 01ce 0200     		.2byte	0x2
 751 01d0 7D       		.byte	0x7d
 752 01d1 10       		.sleb128 16
 753 01d2 00000000 		.4byte	0x0
 754 01d6 00000000 		.4byte	0x0
 755              	.LLST16:
 756 01da 00000000 		.4byte	.LVL40
 757 01de 18000000 		.4byte	.LVL42
 758 01e2 0100     		.2byte	0x1
 759 01e4 50       		.byte	0x50
 760 01e5 18000000 		.4byte	.LVL42
 761 01e9 C6000000 		.4byte	.LFE125
 762 01ed 0100     		.2byte	0x1
 763 01ef 55       		.byte	0x55
 764 01f0 00000000 		.4byte	0x0
 765 01f4 00000000 		.4byte	0x0
 766              	.LLST17:
 767 01f8 00000000 		.4byte	.LVL40
 768 01fc 12000000 		.4byte	.LVL41
 769 0200 0100     		.2byte	0x1
 770 0202 51       		.byte	0x51
 771 0203 00000000 		.4byte	0x0
 772 0207 00000000 		.4byte	0x0
 773              	.LLST18:
 774 020b 1A000000 		.4byte	.LVL43
 775 020f A0000000 		.4byte	.LVL44
 776 0213 0300     		.2byte	0x3
 777 0215 75       		.byte	0x75
 778 0216 F400     		.sleb128 116
 779 0218 00000000 		.4byte	0x0
 780 021c 00000000 		.4byte	0x0
 781              	.LLST19:
 782 0220 00000000 		.4byte	.LVL45
ARM GAS  /tmp/cc5EYtpt.s 			page 15


 783 0224 08000000 		.4byte	.LVL46
 784 0228 0100     		.2byte	0x1
 785 022a 50       		.byte	0x50
 786 022b 0C000000 		.4byte	.LVL47
 787 022f 28000000 		.4byte	.LVL49
 788 0233 0100     		.2byte	0x1
 789 0235 50       		.byte	0x50
 790 0236 00000000 		.4byte	0x0
 791 023a 00000000 		.4byte	0x0
 792              	.LLST20:
 793 023e 0E000000 		.4byte	.LVL48
 794 0242 28000000 		.4byte	.LVL49
 795 0246 0300     		.2byte	0x3
 796 0248 70       		.byte	0x70
 797 0249 F400     		.sleb128 116
 798 024b 28000000 		.4byte	.LVL49
 799 024f 2A000000 		.4byte	.LVL50
 800 0253 0100     		.2byte	0x1
 801 0255 52       		.byte	0x52
 802 0256 00000000 		.4byte	0x0
 803 025a 00000000 		.4byte	0x0
 804              		.file 2 "/opt/sgpp-lite-arm-eabi-bin-2010.09.51/bin/../lib/gcc/arm-none-eabi/4.5.1/include/stddef.
 805              		.file 3 "/opt/sgpp-lite-arm-eabi-bin-2010.09.51/bin/../lib/gcc/arm-none-eabi/4.5.1/../../../../arm
 806              		.file 4 "../ChibiOS_2.6.2/os/ports/GCC/ARMCMx/chtypes.h"
 807              		.file 5 "../ChibiOS_2.6.2/os/kernel/include/chlists.h"
 808              		.file 6 "../ChibiOS_2.6.2/os/kernel/include/chthreads.h"
 809              		.file 7 "../ChibiOS_2.6.2/os/ports/GCC/ARMCMx/chcore_v7m.h"
 810              		.file 8 "../ChibiOS_2.6.2/os/kernel/include/chmtx.h"
 811              		.file 9 "../ChibiOS_2.6.2/os/kernel/include/chevents.h"
 812              		.file 10 "../ChibiOS_2.6.2/os/kernel/include/chqueues.h"
 813              		.file 11 "../ChibiOS_2.6.2/os/hal/platforms/STM32F4xx/stm32f4xx.h"
 814              		.file 12 "../ChibiOS_2.6.2/os/hal/include/serial.h"
 815              		.file 13 "../ChibiOS_2.6.2/os/hal/platforms/STM32/USARTv1/serial_lld.h"
 816              		.file 14 "../ChibiOS_2.6.2/os/ports/common/ARMCMx/CMSIS/include/core_cm4.h"
 817              		.section	.debug_info
 818 0000 C5100000 		.4byte	0x10c5
 819 0004 0200     		.2byte	0x2
 820 0006 00000000 		.4byte	.Ldebug_abbrev0
 821 000a 04       		.byte	0x4
 822 000b 01       		.uleb128 0x1
 823 000c 7E070000 		.4byte	.LASF227
 824 0010 01       		.byte	0x1
 825 0011 34030000 		.4byte	.LASF228
 826 0015 E9030000 		.4byte	.LASF229
 827 0019 00000000 		.4byte	0x0
 828 001d 00000000 		.4byte	0x0
 829 0021 78000000 		.4byte	.Ldebug_ranges0+0x78
 830 0025 00000000 		.4byte	.Ldebug_line0
 831 0029 02       		.uleb128 0x2
 832 002a 04       		.byte	0x4
 833 002b 05       		.byte	0x5
 834 002c 696E7400 		.ascii	"int\000"
 835 0030 03       		.uleb128 0x3
 836 0031 00000000 		.4byte	.LASF2
 837 0035 02       		.byte	0x2
 838 0036 D3       		.byte	0xd3
 839 0037 3B000000 		.4byte	0x3b
ARM GAS  /tmp/cc5EYtpt.s 			page 16


 840 003b 04       		.uleb128 0x4
 841 003c 04       		.byte	0x4
 842 003d 07       		.byte	0x7
 843 003e 66060000 		.4byte	.LASF0
 844 0042 04       		.uleb128 0x4
 845 0043 01       		.byte	0x1
 846 0044 06       		.byte	0x6
 847 0045 30020000 		.4byte	.LASF1
 848 0049 03       		.uleb128 0x3
 849 004a 46020000 		.4byte	.LASF3
 850 004e 03       		.byte	0x3
 851 004f 2A       		.byte	0x2a
 852 0050 54000000 		.4byte	0x54
 853 0054 04       		.uleb128 0x4
 854 0055 01       		.byte	0x1
 855 0056 08       		.byte	0x8
 856 0057 88020000 		.4byte	.LASF4
 857 005b 04       		.uleb128 0x4
 858 005c 02       		.byte	0x2
 859 005d 05       		.byte	0x5
 860 005e CA080000 		.4byte	.LASF5
 861 0062 03       		.uleb128 0x3
 862 0063 B8070000 		.4byte	.LASF6
 863 0067 03       		.byte	0x3
 864 0068 36       		.byte	0x36
 865 0069 6D000000 		.4byte	0x6d
 866 006d 04       		.uleb128 0x4
 867 006e 02       		.byte	0x2
 868 006f 07       		.byte	0x7
 869 0070 A3090000 		.4byte	.LASF7
 870 0074 03       		.uleb128 0x3
 871 0075 48000000 		.4byte	.LASF8
 872 0079 03       		.byte	0x3
 873 007a 4F       		.byte	0x4f
 874 007b 7F000000 		.4byte	0x7f
 875 007f 04       		.uleb128 0x4
 876 0080 04       		.byte	0x4
 877 0081 05       		.byte	0x5
 878 0082 7C010000 		.4byte	.LASF9
 879 0086 03       		.uleb128 0x3
 880 0087 55090000 		.4byte	.LASF10
 881 008b 03       		.byte	0x3
 882 008c 50       		.byte	0x50
 883 008d 91000000 		.4byte	0x91
 884 0091 04       		.uleb128 0x4
 885 0092 04       		.byte	0x4
 886 0093 07       		.byte	0x7
 887 0094 CF040000 		.4byte	.LASF11
 888 0098 04       		.uleb128 0x4
 889 0099 08       		.byte	0x8
 890 009a 05       		.byte	0x5
 891 009b 9F050000 		.4byte	.LASF12
 892 009f 04       		.uleb128 0x4
 893 00a0 08       		.byte	0x8
 894 00a1 07       		.byte	0x7
 895 00a2 99070000 		.4byte	.LASF13
 896 00a6 04       		.uleb128 0x4
ARM GAS  /tmp/cc5EYtpt.s 			page 17


 897 00a7 01       		.byte	0x1
 898 00a8 02       		.byte	0x2
 899 00a9 E8020000 		.4byte	.LASF14
 900 00ad 03       		.uleb128 0x3
 901 00ae 3E080000 		.4byte	.LASF15
 902 00b2 04       		.byte	0x4
 903 00b3 2C       		.byte	0x2c
 904 00b4 49000000 		.4byte	0x49
 905 00b8 03       		.uleb128 0x3
 906 00b9 BC010000 		.4byte	.LASF16
 907 00bd 04       		.byte	0x4
 908 00be 2D       		.byte	0x2d
 909 00bf 49000000 		.4byte	0x49
 910 00c3 03       		.uleb128 0x3
 911 00c4 1D090000 		.4byte	.LASF17
 912 00c8 04       		.byte	0x4
 913 00c9 2E       		.byte	0x2e
 914 00ca 49000000 		.4byte	0x49
 915 00ce 03       		.uleb128 0x3
 916 00cf DD070000 		.4byte	.LASF18
 917 00d3 04       		.byte	0x4
 918 00d4 2F       		.byte	0x2f
 919 00d5 49000000 		.4byte	0x49
 920 00d9 03       		.uleb128 0x3
 921 00da 35000000 		.4byte	.LASF19
 922 00de 04       		.byte	0x4
 923 00df 30       		.byte	0x30
 924 00e0 86000000 		.4byte	0x86
 925 00e4 03       		.uleb128 0x3
 926 00e5 C1070000 		.4byte	.LASF20
 927 00e9 04       		.byte	0x4
 928 00ea 31       		.byte	0x31
 929 00eb 74000000 		.4byte	0x74
 930 00ef 03       		.uleb128 0x3
 931 00f0 4E020000 		.4byte	.LASF21
 932 00f4 04       		.byte	0x4
 933 00f5 33       		.byte	0x33
 934 00f6 86000000 		.4byte	0x86
 935 00fa 03       		.uleb128 0x3
 936 00fb C5060000 		.4byte	.LASF22
 937 00ff 04       		.byte	0x4
 938 0100 34       		.byte	0x34
 939 0101 86000000 		.4byte	0x86
 940 0105 03       		.uleb128 0x3
 941 0106 1A000000 		.4byte	.LASF23
 942 010a 04       		.byte	0x4
 943 010b 35       		.byte	0x35
 944 010c 86000000 		.4byte	0x86
 945 0110 03       		.uleb128 0x3
 946 0111 F6080000 		.4byte	.LASF24
 947 0115 05       		.byte	0x5
 948 0116 2A       		.byte	0x2a
 949 0117 1B010000 		.4byte	0x11b
 950 011b 05       		.uleb128 0x5
 951 011c F6080000 		.4byte	.LASF24
 952 0120 48       		.byte	0x48
 953 0121 06       		.byte	0x6
ARM GAS  /tmp/cc5EYtpt.s 			page 18


 954 0122 5E       		.byte	0x5e
 955 0123 40020000 		.4byte	0x240
 956 0127 06       		.uleb128 0x6
 957 0128 85010000 		.4byte	.LASF25
 958 012c 06       		.byte	0x6
 959 012d 5F       		.byte	0x5f
 960 012e 65020000 		.4byte	0x265
 961 0132 02       		.byte	0x2
 962 0133 23       		.byte	0x23
 963 0134 00       		.uleb128 0x0
 964 0135 06       		.uleb128 0x6
 965 0136 94010000 		.4byte	.LASF26
 966 013a 06       		.byte	0x6
 967 013b 61       		.byte	0x61
 968 013c 65020000 		.4byte	0x265
 969 0140 02       		.byte	0x2
 970 0141 23       		.byte	0x23
 971 0142 04       		.uleb128 0x4
 972 0143 06       		.uleb128 0x6
 973 0144 71030000 		.4byte	.LASF27
 974 0148 06       		.byte	0x6
 975 0149 63       		.byte	0x63
 976 014a D9000000 		.4byte	0xd9
 977 014e 02       		.byte	0x2
 978 014f 23       		.byte	0x23
 979 0150 08       		.uleb128 0x8
 980 0151 06       		.uleb128 0x6
 981 0152 2F000000 		.4byte	.LASF28
 982 0156 06       		.byte	0x6
 983 0157 64       		.byte	0x64
 984 0158 33030000 		.4byte	0x333
 985 015c 02       		.byte	0x2
 986 015d 23       		.byte	0x23
 987 015e 0C       		.uleb128 0xc
 988 015f 06       		.uleb128 0x6
 989 0160 74010000 		.4byte	.LASF29
 990 0164 06       		.byte	0x6
 991 0165 66       		.byte	0x66
 992 0166 65020000 		.4byte	0x265
 993 016a 02       		.byte	0x2
 994 016b 23       		.byte	0x23
 995 016c 10       		.uleb128 0x10
 996 016d 06       		.uleb128 0x6
 997 016e B0070000 		.4byte	.LASF30
 998 0172 06       		.byte	0x6
 999 0173 67       		.byte	0x67
 1000 0174 65020000 		.4byte	0x265
 1001 0178 02       		.byte	0x2
 1002 0179 23       		.byte	0x23
 1003 017a 14       		.uleb128 0x14
 1004 017b 06       		.uleb128 0x6
 1005 017c 3A0A0000 		.4byte	.LASF31
 1006 0180 06       		.byte	0x6
 1007 0181 6E       		.byte	0x6e
 1008 0182 59040000 		.4byte	0x459
 1009 0186 02       		.byte	0x2
 1010 0187 23       		.byte	0x23
ARM GAS  /tmp/cc5EYtpt.s 			page 19


 1011 0188 18       		.uleb128 0x18
 1012 0189 06       		.uleb128 0x6
 1013 018a 740A0000 		.4byte	.LASF32
 1014 018e 06       		.byte	0x6
 1015 018f 79       		.byte	0x79
 1016 0190 B8000000 		.4byte	0xb8
 1017 0194 02       		.byte	0x2
 1018 0195 23       		.byte	0x23
 1019 0196 1C       		.uleb128 0x1c
 1020 0197 06       		.uleb128 0x6
 1021 0198 59060000 		.4byte	.LASF33
 1022 019c 06       		.byte	0x6
 1023 019d 7D       		.byte	0x7d
 1024 019e AD000000 		.4byte	0xad
 1025 01a2 02       		.byte	0x2
 1026 01a3 23       		.byte	0x23
 1027 01a4 1D       		.uleb128 0x1d
 1028 01a5 06       		.uleb128 0x6
 1029 01a6 96060000 		.4byte	.LASF34
 1030 01aa 06       		.byte	0x6
 1031 01ab 82       		.byte	0x82
 1032 01ac C3000000 		.4byte	0xc3
 1033 01b0 02       		.byte	0x2
 1034 01b1 23       		.byte	0x23
 1035 01b2 1E       		.uleb128 0x1e
 1036 01b3 06       		.uleb128 0x6
 1037 01b4 3C020000 		.4byte	.LASF35
 1038 01b8 06       		.byte	0x6
 1039 01b9 88       		.byte	0x88
 1040 01ba CE000000 		.4byte	0xce
 1041 01be 02       		.byte	0x2
 1042 01bf 23       		.byte	0x23
 1043 01c0 1F       		.uleb128 0x1f
 1044 01c1 06       		.uleb128 0x6
 1045 01c2 F0060000 		.4byte	.LASF36
 1046 01c6 06       		.byte	0x6
 1047 01c7 8F       		.byte	0x8f
 1048 01c8 5B030000 		.4byte	0x35b
 1049 01cc 02       		.byte	0x2
 1050 01cd 23       		.byte	0x23
 1051 01ce 20       		.uleb128 0x20
 1052 01cf 07       		.uleb128 0x7
 1053 01d0 705F7500 		.ascii	"p_u\000"
 1054 01d4 06       		.byte	0x6
 1055 01d5 B4       		.byte	0xb4
 1056 01d6 24040000 		.4byte	0x424
 1057 01da 02       		.byte	0x2
 1058 01db 23       		.byte	0x23
 1059 01dc 24       		.uleb128 0x24
 1060 01dd 06       		.uleb128 0x6
 1061 01de 26060000 		.4byte	.LASF37
 1062 01e2 06       		.byte	0x6
 1063 01e3 B9       		.byte	0xb9
 1064 01e4 8D020000 		.4byte	0x28d
 1065 01e8 02       		.byte	0x2
 1066 01e9 23       		.byte	0x23
 1067 01ea 28       		.uleb128 0x28
ARM GAS  /tmp/cc5EYtpt.s 			page 20


 1068 01eb 06       		.uleb128 0x6
 1069 01ec 3D000000 		.4byte	.LASF38
 1070 01f0 06       		.byte	0x6
 1071 01f1 BF       		.byte	0xbf
 1072 01f2 6B020000 		.4byte	0x26b
 1073 01f6 02       		.byte	0x2
 1074 01f7 23       		.byte	0x23
 1075 01f8 2C       		.uleb128 0x2c
 1076 01f9 06       		.uleb128 0x6
 1077 01fa 620A0000 		.4byte	.LASF39
 1078 01fe 06       		.byte	0x6
 1079 01ff C3       		.byte	0xc3
 1080 0200 E4000000 		.4byte	0xe4
 1081 0204 02       		.byte	0x2
 1082 0205 23       		.byte	0x23
 1083 0206 34       		.uleb128 0x34
 1084 0207 06       		.uleb128 0x6
 1085 0208 10040000 		.4byte	.LASF40
 1086 020c 06       		.byte	0x6
 1087 020d C9       		.byte	0xc9
 1088 020e EF000000 		.4byte	0xef
 1089 0212 02       		.byte	0x2
 1090 0213 23       		.byte	0x23
 1091 0214 38       		.uleb128 0x38
 1092 0215 06       		.uleb128 0x6
 1093 0216 C5010000 		.4byte	.LASF41
 1094 021a 06       		.byte	0x6
 1095 021b D0       		.byte	0xd0
 1096 021c 6B040000 		.4byte	0x46b
 1097 0220 02       		.byte	0x2
 1098 0221 23       		.byte	0x23
 1099 0222 3C       		.uleb128 0x3c
 1100 0223 06       		.uleb128 0x6
 1101 0224 17070000 		.4byte	.LASF42
 1102 0228 06       		.byte	0x6
 1103 0229 D4       		.byte	0xd4
 1104 022a D9000000 		.4byte	0xd9
 1105 022e 02       		.byte	0x2
 1106 022f 23       		.byte	0x23
 1107 0230 40       		.uleb128 0x40
 1108 0231 06       		.uleb128 0x6
 1109 0232 81060000 		.4byte	.LASF43
 1110 0236 06       		.byte	0x6
 1111 0237 DA       		.byte	0xda
 1112 0238 A3020000 		.4byte	0x2a3
 1113 023c 02       		.byte	0x2
 1114 023d 23       		.byte	0x23
 1115 023e 44       		.uleb128 0x44
 1116 023f 00       		.byte	0x0
 1117 0240 08       		.uleb128 0x8
 1118 0241 08       		.byte	0x8
 1119 0242 05       		.byte	0x5
 1120 0243 61       		.byte	0x61
 1121 0244 65020000 		.4byte	0x265
 1122 0248 06       		.uleb128 0x6
 1123 0249 85010000 		.4byte	.LASF25
 1124 024d 05       		.byte	0x5
ARM GAS  /tmp/cc5EYtpt.s 			page 21


 1125 024e 62       		.byte	0x62
 1126 024f 65020000 		.4byte	0x265
 1127 0253 02       		.byte	0x2
 1128 0254 23       		.byte	0x23
 1129 0255 00       		.uleb128 0x0
 1130 0256 06       		.uleb128 0x6
 1131 0257 94010000 		.4byte	.LASF26
 1132 025b 05       		.byte	0x5
 1133 025c 64       		.byte	0x64
 1134 025d 65020000 		.4byte	0x265
 1135 0261 02       		.byte	0x2
 1136 0262 23       		.byte	0x23
 1137 0263 04       		.uleb128 0x4
 1138 0264 00       		.byte	0x0
 1139 0265 09       		.uleb128 0x9
 1140 0266 04       		.byte	0x4
 1141 0267 10010000 		.4byte	0x110
 1142 026b 03       		.uleb128 0x3
 1143 026c 6C090000 		.4byte	.LASF44
 1144 0270 05       		.byte	0x5
 1145 0271 66       		.byte	0x66
 1146 0272 40020000 		.4byte	0x240
 1147 0276 08       		.uleb128 0x8
 1148 0277 04       		.byte	0x4
 1149 0278 05       		.byte	0x5
 1150 0279 6B       		.byte	0x6b
 1151 027a 8D020000 		.4byte	0x28d
 1152 027e 06       		.uleb128 0x6
 1153 027f 85010000 		.4byte	.LASF25
 1154 0283 05       		.byte	0x5
 1155 0284 6D       		.byte	0x6d
 1156 0285 65020000 		.4byte	0x265
 1157 0289 02       		.byte	0x2
 1158 028a 23       		.byte	0x23
 1159 028b 00       		.uleb128 0x0
 1160 028c 00       		.byte	0x0
 1161 028d 03       		.uleb128 0x3
 1162 028e 9D060000 		.4byte	.LASF45
 1163 0292 05       		.byte	0x5
 1164 0293 70       		.byte	0x70
 1165 0294 76020000 		.4byte	0x276
 1166 0298 03       		.uleb128 0x3
 1167 0299 EE010000 		.4byte	.LASF46
 1168 029d 07       		.byte	0x7
 1169 029e E5       		.byte	0xe5
 1170 029f A3020000 		.4byte	0x2a3
 1171 02a3 0A       		.uleb128 0xa
 1172 02a4 04       		.byte	0x4
 1173 02a5 0B       		.uleb128 0xb
 1174 02a6 03040000 		.4byte	.LASF47
 1175 02aa 24       		.byte	0x24
 1176 02ab 07       		.byte	0x7
 1177 02ac 0C01     		.2byte	0x10c
 1178 02ae 33030000 		.4byte	0x333
 1179 02b2 0C       		.uleb128 0xc
 1180 02b3 723400   		.ascii	"r4\000"
 1181 02b6 07       		.byte	0x7
ARM GAS  /tmp/cc5EYtpt.s 			page 22


 1182 02b7 1F01     		.2byte	0x11f
 1183 02b9 98020000 		.4byte	0x298
 1184 02bd 02       		.byte	0x2
 1185 02be 23       		.byte	0x23
 1186 02bf 00       		.uleb128 0x0
 1187 02c0 0C       		.uleb128 0xc
 1188 02c1 723500   		.ascii	"r5\000"
 1189 02c4 07       		.byte	0x7
 1190 02c5 2001     		.2byte	0x120
 1191 02c7 98020000 		.4byte	0x298
 1192 02cb 02       		.byte	0x2
 1193 02cc 23       		.byte	0x23
 1194 02cd 04       		.uleb128 0x4
 1195 02ce 0C       		.uleb128 0xc
 1196 02cf 723600   		.ascii	"r6\000"
 1197 02d2 07       		.byte	0x7
 1198 02d3 2101     		.2byte	0x121
 1199 02d5 98020000 		.4byte	0x298
 1200 02d9 02       		.byte	0x2
 1201 02da 23       		.byte	0x23
 1202 02db 08       		.uleb128 0x8
 1203 02dc 0C       		.uleb128 0xc
 1204 02dd 723700   		.ascii	"r7\000"
 1205 02e0 07       		.byte	0x7
 1206 02e1 2201     		.2byte	0x122
 1207 02e3 98020000 		.4byte	0x298
 1208 02e7 02       		.byte	0x2
 1209 02e8 23       		.byte	0x23
 1210 02e9 0C       		.uleb128 0xc
 1211 02ea 0C       		.uleb128 0xc
 1212 02eb 723800   		.ascii	"r8\000"
 1213 02ee 07       		.byte	0x7
 1214 02ef 2301     		.2byte	0x123
 1215 02f1 98020000 		.4byte	0x298
 1216 02f5 02       		.byte	0x2
 1217 02f6 23       		.byte	0x23
 1218 02f7 10       		.uleb128 0x10
 1219 02f8 0C       		.uleb128 0xc
 1220 02f9 723900   		.ascii	"r9\000"
 1221 02fc 07       		.byte	0x7
 1222 02fd 2401     		.2byte	0x124
 1223 02ff 98020000 		.4byte	0x298
 1224 0303 02       		.byte	0x2
 1225 0304 23       		.byte	0x23
 1226 0305 14       		.uleb128 0x14
 1227 0306 0C       		.uleb128 0xc
 1228 0307 72313000 		.ascii	"r10\000"
 1229 030b 07       		.byte	0x7
 1230 030c 2501     		.2byte	0x125
 1231 030e 98020000 		.4byte	0x298
 1232 0312 02       		.byte	0x2
 1233 0313 23       		.byte	0x23
 1234 0314 18       		.uleb128 0x18
 1235 0315 0C       		.uleb128 0xc
 1236 0316 72313100 		.ascii	"r11\000"
 1237 031a 07       		.byte	0x7
 1238 031b 2601     		.2byte	0x126
ARM GAS  /tmp/cc5EYtpt.s 			page 23


 1239 031d 98020000 		.4byte	0x298
 1240 0321 02       		.byte	0x2
 1241 0322 23       		.byte	0x23
 1242 0323 1C       		.uleb128 0x1c
 1243 0324 0C       		.uleb128 0xc
 1244 0325 6C7200   		.ascii	"lr\000"
 1245 0328 07       		.byte	0x7
 1246 0329 2701     		.2byte	0x127
 1247 032b 98020000 		.4byte	0x298
 1248 032f 02       		.byte	0x2
 1249 0330 23       		.byte	0x23
 1250 0331 20       		.uleb128 0x20
 1251 0332 00       		.byte	0x0
 1252 0333 0B       		.uleb128 0xb
 1253 0334 5A020000 		.4byte	.LASF48
 1254 0338 04       		.byte	0x4
 1255 0339 07       		.byte	0x7
 1256 033a 3101     		.2byte	0x131
 1257 033c 50030000 		.4byte	0x350
 1258 0340 0C       		.uleb128 0xc
 1259 0341 72313300 		.ascii	"r13\000"
 1260 0345 07       		.byte	0x7
 1261 0346 3201     		.2byte	0x132
 1262 0348 50030000 		.4byte	0x350
 1263 034c 02       		.byte	0x2
 1264 034d 23       		.byte	0x23
 1265 034e 00       		.uleb128 0x0
 1266 034f 00       		.byte	0x0
 1267 0350 09       		.uleb128 0x9
 1268 0351 04       		.byte	0x4
 1269 0352 A5020000 		.4byte	0x2a5
 1270 0356 0D       		.uleb128 0xd
 1271 0357 86000000 		.4byte	0x86
 1272 035b 0D       		.uleb128 0xd
 1273 035c 05010000 		.4byte	0x105
 1274 0360 05       		.uleb128 0x5
 1275 0361 8F050000 		.4byte	.LASF49
 1276 0365 10       		.byte	0x10
 1277 0366 08       		.byte	0x8
 1278 0367 2C       		.byte	0x2c
 1279 0368 97030000 		.4byte	0x397
 1280 036c 06       		.uleb128 0x6
 1281 036d D1050000 		.4byte	.LASF50
 1282 0371 08       		.byte	0x8
 1283 0372 2D       		.byte	0x2d
 1284 0373 6B020000 		.4byte	0x26b
 1285 0377 02       		.byte	0x2
 1286 0378 23       		.byte	0x23
 1287 0379 00       		.uleb128 0x0
 1288 037a 06       		.uleb128 0x6
 1289 037b 02010000 		.4byte	.LASF51
 1290 037f 08       		.byte	0x8
 1291 0380 2F       		.byte	0x2f
 1292 0381 65020000 		.4byte	0x265
 1293 0385 02       		.byte	0x2
 1294 0386 23       		.byte	0x23
 1295 0387 08       		.uleb128 0x8
ARM GAS  /tmp/cc5EYtpt.s 			page 24


 1296 0388 06       		.uleb128 0x6
 1297 0389 410A0000 		.4byte	.LASF52
 1298 038d 08       		.byte	0x8
 1299 038e 31       		.byte	0x31
 1300 038f 97030000 		.4byte	0x397
 1301 0393 02       		.byte	0x2
 1302 0394 23       		.byte	0x23
 1303 0395 0C       		.uleb128 0xc
 1304 0396 00       		.byte	0x0
 1305 0397 09       		.uleb128 0x9
 1306 0398 04       		.byte	0x4
 1307 0399 60030000 		.4byte	0x360
 1308 039d 03       		.uleb128 0x3
 1309 039e 8F050000 		.4byte	.LASF49
 1310 03a2 08       		.byte	0x8
 1311 03a3 33       		.byte	0x33
 1312 03a4 60030000 		.4byte	0x360
 1313 03a8 03       		.uleb128 0x3
 1314 03a9 47090000 		.4byte	.LASF53
 1315 03ad 09       		.byte	0x9
 1316 03ae 2C       		.byte	0x2c
 1317 03af B3030000 		.4byte	0x3b3
 1318 03b3 05       		.uleb128 0x5
 1319 03b4 47090000 		.4byte	.LASF53
 1320 03b8 10       		.byte	0x10
 1321 03b9 09       		.byte	0x9
 1322 03ba 31       		.byte	0x31
 1323 03bb F8030000 		.4byte	0x3f8
 1324 03bf 06       		.uleb128 0x6
 1325 03c0 15050000 		.4byte	.LASF54
 1326 03c4 09       		.byte	0x9
 1327 03c5 32       		.byte	0x32
 1328 03c6 F8030000 		.4byte	0x3f8
 1329 03ca 02       		.byte	0x2
 1330 03cb 23       		.byte	0x23
 1331 03cc 00       		.uleb128 0x0
 1332 03cd 06       		.uleb128 0x6
 1333 03ce 680A0000 		.4byte	.LASF55
 1334 03d2 09       		.byte	0x9
 1335 03d3 35       		.byte	0x35
 1336 03d4 65020000 		.4byte	0x265
 1337 03d8 02       		.byte	0x2
 1338 03d9 23       		.byte	0x23
 1339 03da 04       		.uleb128 0x4
 1340 03db 06       		.uleb128 0x6
 1341 03dc 320A0000 		.4byte	.LASF56
 1342 03e0 09       		.byte	0x9
 1343 03e1 37       		.byte	0x37
 1344 03e2 EF000000 		.4byte	0xef
 1345 03e6 02       		.byte	0x2
 1346 03e7 23       		.byte	0x23
 1347 03e8 08       		.uleb128 0x8
 1348 03e9 06       		.uleb128 0x6
 1349 03ea A9000000 		.4byte	.LASF57
 1350 03ee 09       		.byte	0x9
 1351 03ef 3A       		.byte	0x3a
 1352 03f0 FA000000 		.4byte	0xfa
ARM GAS  /tmp/cc5EYtpt.s 			page 25


 1353 03f4 02       		.byte	0x2
 1354 03f5 23       		.byte	0x23
 1355 03f6 0C       		.uleb128 0xc
 1356 03f7 00       		.byte	0x0
 1357 03f8 09       		.uleb128 0x9
 1358 03f9 04       		.byte	0x4
 1359 03fa A8030000 		.4byte	0x3a8
 1360 03fe 05       		.uleb128 0x5
 1361 03ff B9040000 		.4byte	.LASF58
 1362 0403 04       		.byte	0x4
 1363 0404 09       		.byte	0x9
 1364 0405 41       		.byte	0x41
 1365 0406 19040000 		.4byte	0x419
 1366 040a 06       		.uleb128 0x6
 1367 040b 7D040000 		.4byte	.LASF59
 1368 040f 09       		.byte	0x9
 1369 0410 42       		.byte	0x42
 1370 0411 F8030000 		.4byte	0x3f8
 1371 0415 02       		.byte	0x2
 1372 0416 23       		.byte	0x23
 1373 0417 00       		.uleb128 0x0
 1374 0418 00       		.byte	0x0
 1375 0419 03       		.uleb128 0x3
 1376 041a B9040000 		.4byte	.LASF58
 1377 041e 09       		.byte	0x9
 1378 041f 45       		.byte	0x45
 1379 0420 FE030000 		.4byte	0x3fe
 1380 0424 0E       		.uleb128 0xe
 1381 0425 04       		.byte	0x4
 1382 0426 06       		.byte	0x6
 1383 0427 96       		.byte	0x96
 1384 0428 59040000 		.4byte	0x459
 1385 042c 0F       		.uleb128 0xf
 1386 042d 91090000 		.4byte	.LASF60
 1387 0431 06       		.byte	0x6
 1388 0432 9D       		.byte	0x9d
 1389 0433 E4000000 		.4byte	0xe4
 1390 0437 0F       		.uleb128 0xf
 1391 0438 0A010000 		.4byte	.LASF61
 1392 043c 06       		.byte	0x6
 1393 043d A4       		.byte	0xa4
 1394 043e E4000000 		.4byte	0xe4
 1395 0442 0F       		.uleb128 0xf
 1396 0443 8D030000 		.4byte	.LASF62
 1397 0447 06       		.byte	0x6
 1398 0448 AB       		.byte	0xab
 1399 0449 A3020000 		.4byte	0x2a3
 1400 044d 0F       		.uleb128 0xf
 1401 044e 2A010000 		.4byte	.LASF63
 1402 0452 06       		.byte	0x6
 1403 0453 B2       		.byte	0xb2
 1404 0454 EF000000 		.4byte	0xef
 1405 0458 00       		.byte	0x0
 1406 0459 09       		.uleb128 0x9
 1407 045a 04       		.byte	0x4
 1408 045b 5F040000 		.4byte	0x45f
 1409 045f 10       		.uleb128 0x10
ARM GAS  /tmp/cc5EYtpt.s 			page 26


 1410 0460 64040000 		.4byte	0x464
 1411 0464 04       		.uleb128 0x4
 1412 0465 01       		.byte	0x1
 1413 0466 08       		.byte	0x8
 1414 0467 26030000 		.4byte	.LASF64
 1415 046b 09       		.uleb128 0x9
 1416 046c 04       		.byte	0x4
 1417 046d 9D030000 		.4byte	0x39d
 1418 0471 09       		.uleb128 0x9
 1419 0472 04       		.byte	0x4
 1420 0473 77040000 		.4byte	0x477
 1421 0477 11       		.uleb128 0x11
 1422 0478 01       		.byte	0x1
 1423 0479 E4000000 		.4byte	0xe4
 1424 047d 87040000 		.4byte	0x487
 1425 0481 12       		.uleb128 0x12
 1426 0482 A3020000 		.4byte	0x2a3
 1427 0486 00       		.byte	0x0
 1428 0487 03       		.uleb128 0x3
 1429 0488 80030000 		.4byte	.LASF65
 1430 048c 0A       		.byte	0xa
 1431 048d 37       		.byte	0x37
 1432 048e 92040000 		.4byte	0x492
 1433 0492 05       		.uleb128 0x5
 1434 0493 80030000 		.4byte	.LASF65
 1435 0497 24       		.byte	0x24
 1436 0498 0A       		.byte	0xa
 1437 0499 45       		.byte	0x45
 1438 049a 0F050000 		.4byte	0x50f
 1439 049e 06       		.uleb128 0x6
 1440 049f 29080000 		.4byte	.LASF66
 1441 04a3 0A       		.byte	0xa
 1442 04a4 46       		.byte	0x46
 1443 04a5 6B020000 		.4byte	0x26b
 1444 04a9 02       		.byte	0x2
 1445 04aa 23       		.byte	0x23
 1446 04ab 00       		.uleb128 0x0
 1447 04ac 06       		.uleb128 0x6
 1448 04ad 85040000 		.4byte	.LASF67
 1449 04b1 0A       		.byte	0xa
 1450 04b2 47       		.byte	0x47
 1451 04b3 30000000 		.4byte	0x30
 1452 04b7 02       		.byte	0x2
 1453 04b8 23       		.byte	0x23
 1454 04b9 08       		.uleb128 0x8
 1455 04ba 06       		.uleb128 0x6
 1456 04bb 62010000 		.4byte	.LASF68
 1457 04bf 0A       		.byte	0xa
 1458 04c0 48       		.byte	0x48
 1459 04c1 32050000 		.4byte	0x532
 1460 04c5 02       		.byte	0x2
 1461 04c6 23       		.byte	0x23
 1462 04c7 0C       		.uleb128 0xc
 1463 04c8 06       		.uleb128 0x6
 1464 04c9 24010000 		.4byte	.LASF69
 1465 04cd 0A       		.byte	0xa
 1466 04ce 49       		.byte	0x49
ARM GAS  /tmp/cc5EYtpt.s 			page 27


 1467 04cf 32050000 		.4byte	0x532
 1468 04d3 02       		.byte	0x2
 1469 04d4 23       		.byte	0x23
 1470 04d5 10       		.uleb128 0x10
 1471 04d6 06       		.uleb128 0x6
 1472 04d7 1D050000 		.4byte	.LASF70
 1473 04db 0A       		.byte	0xa
 1474 04dc 4B       		.byte	0x4b
 1475 04dd 32050000 		.4byte	0x532
 1476 04e1 02       		.byte	0x2
 1477 04e2 23       		.byte	0x23
 1478 04e3 14       		.uleb128 0x14
 1479 04e4 06       		.uleb128 0x6
 1480 04e5 8C010000 		.4byte	.LASF71
 1481 04e9 0A       		.byte	0xa
 1482 04ea 4C       		.byte	0x4c
 1483 04eb 32050000 		.4byte	0x532
 1484 04ef 02       		.byte	0x2
 1485 04f0 23       		.byte	0x23
 1486 04f1 18       		.uleb128 0x18
 1487 04f2 06       		.uleb128 0x6
 1488 04f3 6B010000 		.4byte	.LASF72
 1489 04f7 0A       		.byte	0xa
 1490 04f8 4D       		.byte	0x4d
 1491 04f9 0F050000 		.4byte	0x50f
 1492 04fd 02       		.byte	0x2
 1493 04fe 23       		.byte	0x23
 1494 04ff 1C       		.uleb128 0x1c
 1495 0500 06       		.uleb128 0x6
 1496 0501 B2020000 		.4byte	.LASF73
 1497 0505 0A       		.byte	0xa
 1498 0506 4E       		.byte	0x4e
 1499 0507 A3020000 		.4byte	0x2a3
 1500 050b 02       		.byte	0x2
 1501 050c 23       		.byte	0x23
 1502 050d 20       		.uleb128 0x20
 1503 050e 00       		.byte	0x0
 1504 050f 03       		.uleb128 0x3
 1505 0510 1C060000 		.4byte	.LASF74
 1506 0514 0A       		.byte	0xa
 1507 0515 3A       		.byte	0x3a
 1508 0516 1A050000 		.4byte	0x51a
 1509 051a 09       		.uleb128 0x9
 1510 051b 04       		.byte	0x4
 1511 051c 20050000 		.4byte	0x520
 1512 0520 13       		.uleb128 0x13
 1513 0521 01       		.byte	0x1
 1514 0522 2C050000 		.4byte	0x52c
 1515 0526 12       		.uleb128 0x12
 1516 0527 2C050000 		.4byte	0x52c
 1517 052b 00       		.byte	0x0
 1518 052c 09       		.uleb128 0x9
 1519 052d 04       		.byte	0x4
 1520 052e 87040000 		.4byte	0x487
 1521 0532 09       		.uleb128 0x9
 1522 0533 04       		.byte	0x4
 1523 0534 49000000 		.4byte	0x49
ARM GAS  /tmp/cc5EYtpt.s 			page 28


 1524 0538 03       		.uleb128 0x3
 1525 0539 D9090000 		.4byte	.LASF75
 1526 053d 0A       		.byte	0xa
 1527 053e 82       		.byte	0x82
 1528 053f 87040000 		.4byte	0x487
 1529 0543 03       		.uleb128 0x3
 1530 0544 B5030000 		.4byte	.LASF76
 1531 0548 0A       		.byte	0xa
 1532 0549 F5       		.byte	0xf5
 1533 054a 87040000 		.4byte	0x487
 1534 054e 11       		.uleb128 0x11
 1535 054f 01       		.byte	0x1
 1536 0550 30000000 		.4byte	0x30
 1537 0554 68050000 		.4byte	0x568
 1538 0558 12       		.uleb128 0x12
 1539 0559 A3020000 		.4byte	0x2a3
 1540 055d 12       		.uleb128 0x12
 1541 055e 68050000 		.4byte	0x568
 1542 0562 12       		.uleb128 0x12
 1543 0563 30000000 		.4byte	0x30
 1544 0567 00       		.byte	0x0
 1545 0568 09       		.uleb128 0x9
 1546 0569 04       		.byte	0x4
 1547 056a 6E050000 		.4byte	0x56e
 1548 056e 10       		.uleb128 0x10
 1549 056f 49000000 		.4byte	0x49
 1550 0573 09       		.uleb128 0x9
 1551 0574 04       		.byte	0x4
 1552 0575 4E050000 		.4byte	0x54e
 1553 0579 11       		.uleb128 0x11
 1554 057a 01       		.byte	0x1
 1555 057b 30000000 		.4byte	0x30
 1556 057f 93050000 		.4byte	0x593
 1557 0583 12       		.uleb128 0x12
 1558 0584 A3020000 		.4byte	0x2a3
 1559 0588 12       		.uleb128 0x12
 1560 0589 32050000 		.4byte	0x532
 1561 058d 12       		.uleb128 0x12
 1562 058e 30000000 		.4byte	0x30
 1563 0592 00       		.byte	0x0
 1564 0593 09       		.uleb128 0x9
 1565 0594 04       		.byte	0x4
 1566 0595 79050000 		.4byte	0x579
 1567 0599 11       		.uleb128 0x11
 1568 059a 01       		.byte	0x1
 1569 059b E4000000 		.4byte	0xe4
 1570 059f AE050000 		.4byte	0x5ae
 1571 05a3 12       		.uleb128 0x12
 1572 05a4 A3020000 		.4byte	0x2a3
 1573 05a8 12       		.uleb128 0x12
 1574 05a9 49000000 		.4byte	0x49
 1575 05ad 00       		.byte	0x0
 1576 05ae 09       		.uleb128 0x9
 1577 05af 04       		.byte	0x4
 1578 05b0 99050000 		.4byte	0x599
 1579 05b4 14       		.uleb128 0x14
 1580 05b5 F7060000 		.4byte	.LASF230
ARM GAS  /tmp/cc5EYtpt.s 			page 29


 1581 05b9 01       		.byte	0x1
 1582 05ba 0B       		.byte	0xb
 1583 05bb AA       		.byte	0xaa
 1584 05bc EF070000 		.4byte	0x7ef
 1585 05c0 15       		.uleb128 0x15
 1586 05c1 9B040000 		.4byte	.LASF77
 1587 05c5 72       		.sleb128 -14
 1588 05c6 15       		.uleb128 0x15
 1589 05c7 E1040000 		.4byte	.LASF78
 1590 05cb 74       		.sleb128 -12
 1591 05cc 15       		.uleb128 0x15
 1592 05cd 4F050000 		.4byte	.LASF79
 1593 05d1 75       		.sleb128 -11
 1594 05d2 15       		.uleb128 0x15
 1595 05d3 16030000 		.4byte	.LASF80
 1596 05d7 76       		.sleb128 -10
 1597 05d8 15       		.uleb128 0x15
 1598 05d9 E9050000 		.4byte	.LASF81
 1599 05dd 7B       		.sleb128 -5
 1600 05de 15       		.uleb128 0x15
 1601 05df 7C080000 		.4byte	.LASF82
 1602 05e3 7C       		.sleb128 -4
 1603 05e4 15       		.uleb128 0x15
 1604 05e5 EF090000 		.4byte	.LASF83
 1605 05e9 7E       		.sleb128 -2
 1606 05ea 15       		.uleb128 0x15
 1607 05eb 09020000 		.4byte	.LASF84
 1608 05ef 7F       		.sleb128 -1
 1609 05f0 15       		.uleb128 0x15
 1610 05f1 C5040000 		.4byte	.LASF85
 1611 05f5 00       		.sleb128 0
 1612 05f6 15       		.uleb128 0x15
 1613 05f7 13080000 		.4byte	.LASF86
 1614 05fb 01       		.sleb128 1
 1615 05fc 15       		.uleb128 0x15
 1616 05fd F7040000 		.4byte	.LASF87
 1617 0601 02       		.sleb128 2
 1618 0602 15       		.uleb128 0x15
 1619 0603 39090000 		.4byte	.LASF88
 1620 0607 03       		.sleb128 3
 1621 0608 15       		.uleb128 0x15
 1622 0609 94000000 		.4byte	.LASF89
 1623 060d 04       		.sleb128 4
 1624 060e 15       		.uleb128 0x15
 1625 060f D4080000 		.4byte	.LASF90
 1626 0613 05       		.sleb128 5
 1627 0614 15       		.uleb128 0x15
 1628 0615 33080000 		.4byte	.LASF91
 1629 0619 06       		.sleb128 6
 1630 061a 15       		.uleb128 0x15
 1631 061b 3B040000 		.4byte	.LASF92
 1632 061f 07       		.sleb128 7
 1633 0620 15       		.uleb128 0x15
 1634 0621 E7070000 		.4byte	.LASF93
 1635 0625 08       		.sleb128 8
 1636 0626 15       		.uleb128 0x15
 1637 0627 E4090000 		.4byte	.LASF94
ARM GAS  /tmp/cc5EYtpt.s 			page 30


 1638 062b 09       		.sleb128 9
 1639 062c 15       		.uleb128 0x15
 1640 062d 98090000 		.4byte	.LASF95
 1641 0631 0A       		.sleb128 10
 1642 0632 15       		.uleb128 0x15
 1643 0633 34070000 		.4byte	.LASF96
 1644 0637 0B       		.sleb128 11
 1645 0638 15       		.uleb128 0x15
 1646 0639 B3060000 		.4byte	.LASF97
 1647 063d 0C       		.sleb128 12
 1648 063e 15       		.uleb128 0x15
 1649 063f 62020000 		.4byte	.LASF98
 1650 0643 0D       		.sleb128 13
 1651 0644 15       		.uleb128 0x15
 1652 0645 E4080000 		.4byte	.LASF99
 1653 0649 0E       		.sleb128 14
 1654 064a 15       		.uleb128 0x15
 1655 064b 46080000 		.4byte	.LASF100
 1656 064f 0F       		.sleb128 15
 1657 0650 15       		.uleb128 0x15
 1658 0651 53040000 		.4byte	.LASF101
 1659 0655 10       		.sleb128 16
 1660 0656 15       		.uleb128 0x15
 1661 0657 FC060000 		.4byte	.LASF102
 1662 065b 11       		.sleb128 17
 1663 065c 15       		.uleb128 0x15
 1664 065d 00080000 		.4byte	.LASF103
 1665 0661 12       		.sleb128 18
 1666 0662 15       		.uleb128 0x15
 1667 0663 46040000 		.4byte	.LASF104
 1668 0667 13       		.sleb128 19
 1669 0668 15       		.uleb128 0x15
 1670 0669 94030000 		.4byte	.LASF105
 1671 066d 14       		.sleb128 20
 1672 066e 15       		.uleb128 0x15
 1673 066f 5E090000 		.4byte	.LASF106
 1674 0673 15       		.sleb128 21
 1675 0674 15       		.uleb128 0x15
 1676 0675 07050000 		.4byte	.LASF107
 1677 0679 16       		.sleb128 22
 1678 067a 15       		.uleb128 0x15
 1679 067b 79090000 		.4byte	.LASF108
 1680 067f 17       		.sleb128 23
 1681 0680 15       		.uleb128 0x15
 1682 0681 7C050000 		.4byte	.LASF109
 1683 0685 18       		.sleb128 24
 1684 0686 15       		.uleb128 0x15
 1685 0687 FD080000 		.4byte	.LASF110
 1686 068b 19       		.sleb128 25
 1687 068c 15       		.uleb128 0x15
 1688 068d CF010000 		.4byte	.LASF111
 1689 0691 1A       		.sleb128 26
 1690 0692 15       		.uleb128 0x15
 1691 0693 20040000 		.4byte	.LASF112
 1692 0697 1B       		.sleb128 27
 1693 0698 15       		.uleb128 0x15
 1694 0699 C4000000 		.4byte	.LASF113
ARM GAS  /tmp/cc5EYtpt.s 			page 31


 1695 069d 1C       		.sleb128 28
 1696 069e 15       		.uleb128 0x15
 1697 069f C7070000 		.4byte	.LASF114
 1698 06a3 1D       		.sleb128 29
 1699 06a4 15       		.uleb128 0x15
 1700 06a5 C1030000 		.4byte	.LASF115
 1701 06a9 1E       		.sleb128 30
 1702 06aa 15       		.uleb128 0x15
 1703 06ab DC030000 		.4byte	.LASF116
 1704 06af 1F       		.sleb128 31
 1705 06b0 15       		.uleb128 0x15
 1706 06b1 C3020000 		.4byte	.LASF117
 1707 06b5 20       		.sleb128 32
 1708 06b6 15       		.uleb128 0x15
 1709 06b7 89060000 		.4byte	.LASF118
 1710 06bb 21       		.sleb128 33
 1711 06bc 15       		.uleb128 0x15
 1712 06bd 42050000 		.4byte	.LASF119
 1713 06c1 22       		.sleb128 34
 1714 06c2 15       		.uleb128 0x15
 1715 06c3 DF050000 		.4byte	.LASF120
 1716 06c7 23       		.sleb128 35
 1717 06c8 15       		.uleb128 0x15
 1718 06c9 BB050000 		.4byte	.LASF121
 1719 06cd 24       		.sleb128 36
 1720 06ce 15       		.uleb128 0x15
 1721 06cf D1070000 		.4byte	.LASF122
 1722 06d3 25       		.sleb128 37
 1723 06d4 15       		.uleb128 0x15
 1724 06d5 CB030000 		.4byte	.LASF123
 1725 06d9 26       		.sleb128 38
 1726 06da 15       		.uleb128 0x15
 1727 06db 16020000 		.4byte	.LASF124
 1728 06df 27       		.sleb128 39
 1729 06e0 15       		.uleb128 0x15
 1730 06e1 8A070000 		.4byte	.LASF125
 1731 06e5 28       		.sleb128 40
 1732 06e6 15       		.uleb128 0x15
 1733 06e7 5A070000 		.4byte	.LASF126
 1734 06eb 29       		.sleb128 41
 1735 06ec 15       		.uleb128 0x15
 1736 06ed 48060000 		.4byte	.LASF127
 1737 06f1 2A       		.sleb128 42
 1738 06f2 15       		.uleb128 0x15
 1739 06f3 31010000 		.4byte	.LASF128
 1740 06f7 2B       		.sleb128 43
 1741 06f8 15       		.uleb128 0x15
 1742 06f9 07000000 		.4byte	.LASF129
 1743 06fd 2C       		.sleb128 44
 1744 06fe 15       		.uleb128 0x15
 1745 06ff 65040000 		.4byte	.LASF130
 1746 0703 2D       		.sleb128 45
 1747 0704 15       		.uleb128 0x15
 1748 0705 C2090000 		.4byte	.LASF131
 1749 0709 2E       		.sleb128 46
 1750 070a 15       		.uleb128 0x15
 1751 070b 0E0A0000 		.4byte	.LASF132
ARM GAS  /tmp/cc5EYtpt.s 			page 32


 1752 070f 2F       		.sleb128 47
 1753 0710 15       		.uleb128 0x15
 1754 0711 AF040000 		.4byte	.LASF133
 1755 0715 30       		.sleb128 48
 1756 0716 15       		.uleb128 0x15
 1757 0717 CF090000 		.4byte	.LASF134
 1758 071b 31       		.sleb128 49
 1759 071c 15       		.uleb128 0x15
 1760 071d 02030000 		.4byte	.LASF135
 1761 0721 32       		.sleb128 50
 1762 0722 15       		.uleb128 0x15
 1763 0723 8A000000 		.4byte	.LASF136
 1764 0727 33       		.sleb128 51
 1765 0728 15       		.uleb128 0x15
 1766 0729 07060000 		.4byte	.LASF137
 1767 072d 34       		.sleb128 52
 1768 072e 15       		.uleb128 0x15
 1769 072f 71050000 		.4byte	.LASF138
 1770 0733 35       		.sleb128 53
 1771 0734 15       		.uleb128 0x15
 1772 0735 73060000 		.4byte	.LASF139
 1773 0739 36       		.sleb128 54
 1774 073a 15       		.uleb128 0x15
 1775 073b 95050000 		.4byte	.LASF140
 1776 073f 37       		.sleb128 55
 1777 0740 15       		.uleb128 0x15
 1778 0741 30060000 		.4byte	.LASF141
 1779 0745 38       		.sleb128 56
 1780 0746 15       		.uleb128 0x15
 1781 0747 6F000000 		.4byte	.LASF142
 1782 074b 39       		.sleb128 57
 1783 074c 15       		.uleb128 0x15
 1784 074d 500A0000 		.4byte	.LASF143
 1785 0751 3A       		.sleb128 58
 1786 0752 15       		.uleb128 0x15
 1787 0753 D1060000 		.4byte	.LASF144
 1788 0757 3B       		.sleb128 59
 1789 0758 15       		.uleb128 0x15
 1790 0759 96020000 		.4byte	.LASF145
 1791 075d 3C       		.sleb128 60
 1792 075e 15       		.uleb128 0x15
 1793 075f AD080000 		.4byte	.LASF146
 1794 0763 3D       		.sleb128 61
 1795 0764 15       		.uleb128 0x15
 1796 0765 AD050000 		.4byte	.LASF147
 1797 0769 3E       		.sleb128 62
 1798 076a 15       		.uleb128 0x15
 1799 076b E3060000 		.4byte	.LASF148
 1800 076f 3F       		.sleb128 63
 1801 0770 15       		.uleb128 0x15
 1802 0771 E8000000 		.4byte	.LASF149
 1803 0775 C000     		.sleb128 64
 1804 0777 15       		.uleb128 0x15
 1805 0778 F2070000 		.4byte	.LASF150
 1806 077c C100     		.sleb128 65
 1807 077e 15       		.uleb128 0x15
 1808 077f D0020000 		.4byte	.LASF151
ARM GAS  /tmp/cc5EYtpt.s 			page 33


 1809 0783 C200     		.sleb128 66
 1810 0785 15       		.uleb128 0x15
 1811 0786 8F040000 		.4byte	.LASF152
 1812 078a C300     		.sleb128 67
 1813 078c 15       		.uleb128 0x15
 1814 078d AA010000 		.4byte	.LASF153
 1815 0791 C400     		.sleb128 68
 1816 0793 15       		.uleb128 0x15
 1817 0794 62080000 		.4byte	.LASF154
 1818 0798 C500     		.sleb128 69
 1819 079a 15       		.uleb128 0x15
 1820 079b 22070000 		.4byte	.LASF155
 1821 079f C600     		.sleb128 70
 1822 07a1 15       		.uleb128 0x15
 1823 07a2 F6000000 		.4byte	.LASF156
 1824 07a6 C700     		.sleb128 71
 1825 07a8 15       		.uleb128 0x15
 1826 07a9 97080000 		.4byte	.LASF157
 1827 07ad C800     		.sleb128 72
 1828 07af 15       		.uleb128 0x15
 1829 07b0 71070000 		.4byte	.LASF158
 1830 07b4 C900     		.sleb128 73
 1831 07b6 15       		.uleb128 0x15
 1832 07b7 25090000 		.4byte	.LASF159
 1833 07bb CA00     		.sleb128 74
 1834 07bd 15       		.uleb128 0x15
 1835 07be FB090000 		.4byte	.LASF160
 1836 07c2 CB00     		.sleb128 75
 1837 07c4 15       		.uleb128 0x15
 1838 07c5 13010000 		.4byte	.LASF161
 1839 07c9 CC00     		.sleb128 76
 1840 07cb 15       		.uleb128 0x15
 1841 07cc C5050000 		.4byte	.LASF162
 1842 07d0 CD00     		.sleb128 77
 1843 07d2 15       		.uleb128 0x15
 1844 07d3 9F000000 		.4byte	.LASF163
 1845 07d7 CE00     		.sleb128 78
 1846 07d9 15       		.uleb128 0x15
 1847 07da 200A0000 		.4byte	.LASF164
 1848 07de CF00     		.sleb128 79
 1849 07e0 15       		.uleb128 0x15
 1850 07e1 2D040000 		.4byte	.LASF165
 1851 07e5 D000     		.sleb128 80
 1852 07e7 15       		.uleb128 0x15
 1853 07e8 FE050000 		.4byte	.LASF166
 1854 07ec D100     		.sleb128 81
 1855 07ee 00       		.byte	0x0
 1856 07ef 16       		.uleb128 0x16
 1857 07f0 86000000 		.4byte	0x86
 1858 07f4 FF070000 		.4byte	0x7ff
 1859 07f8 17       		.uleb128 0x17
 1860 07f9 3B000000 		.4byte	0x3b
 1861 07fd 01       		.byte	0x1
 1862 07fe 00       		.byte	0x0
 1863 07ff 0D       		.uleb128 0xd
 1864 0800 62000000 		.4byte	0x62
 1865 0804 0D       		.uleb128 0xd
ARM GAS  /tmp/cc5EYtpt.s 			page 34


 1866 0805 74000000 		.4byte	0x74
 1867 0809 18       		.uleb128 0x18
 1868 080a 90       		.byte	0x90
 1869 080b 0B       		.byte	0xb
 1870 080c 5804     		.2byte	0x458
 1871 080e F6090000 		.4byte	0x9f6
 1872 0812 0C       		.uleb128 0xc
 1873 0813 435200   		.ascii	"CR\000"
 1874 0816 0B       		.byte	0xb
 1875 0817 5A04     		.2byte	0x45a
 1876 0819 56030000 		.4byte	0x356
 1877 081d 02       		.byte	0x2
 1878 081e 23       		.byte	0x23
 1879 081f 00       		.uleb128 0x0
 1880 0820 19       		.uleb128 0x19
 1881 0821 69050000 		.4byte	.LASF167
 1882 0825 0B       		.byte	0xb
 1883 0826 5B04     		.2byte	0x45b
 1884 0828 56030000 		.4byte	0x356
 1885 082c 02       		.byte	0x2
 1886 082d 23       		.byte	0x23
 1887 082e 04       		.uleb128 0x4
 1888 082f 19       		.uleb128 0x19
 1889 0830 1B040000 		.4byte	.LASF168
 1890 0834 0B       		.byte	0xb
 1891 0835 5C04     		.2byte	0x45c
 1892 0837 56030000 		.4byte	0x356
 1893 083b 02       		.byte	0x2
 1894 083c 23       		.byte	0x23
 1895 083d 08       		.uleb128 0x8
 1896 083e 0C       		.uleb128 0xc
 1897 083f 43495200 		.ascii	"CIR\000"
 1898 0843 0B       		.byte	0xb
 1899 0844 5D04     		.2byte	0x45d
 1900 0846 56030000 		.4byte	0x356
 1901 084a 02       		.byte	0x2
 1902 084b 23       		.byte	0x23
 1903 084c 0C       		.uleb128 0xc
 1904 084d 19       		.uleb128 0x19
 1905 084e 2B030000 		.4byte	.LASF169
 1906 0852 0B       		.byte	0xb
 1907 0853 5E04     		.2byte	0x45e
 1908 0855 56030000 		.4byte	0x356
 1909 0859 02       		.byte	0x2
 1910 085a 23       		.byte	0x23
 1911 085b 10       		.uleb128 0x10
 1912 085c 19       		.uleb128 0x19
 1913 085d A4080000 		.4byte	.LASF170
 1914 0861 0B       		.byte	0xb
 1915 0862 5F04     		.2byte	0x45f
 1916 0864 56030000 		.4byte	0x356
 1917 0868 02       		.byte	0x2
 1918 0869 23       		.byte	0x23
 1919 086a 14       		.uleb128 0x14
 1920 086b 19       		.uleb128 0x19
 1921 086c 0E070000 		.4byte	.LASF171
 1922 0870 0B       		.byte	0xb
ARM GAS  /tmp/cc5EYtpt.s 			page 35


 1923 0871 6004     		.2byte	0x460
 1924 0873 56030000 		.4byte	0x356
 1925 0877 02       		.byte	0x2
 1926 0878 23       		.byte	0x23
 1927 0879 18       		.uleb128 0x18
 1928 087a 19       		.uleb128 0x19
 1929 087b 74020000 		.4byte	.LASF172
 1930 087f 0B       		.byte	0xb
 1931 0880 6104     		.2byte	0x461
 1932 0882 86000000 		.4byte	0x86
 1933 0886 02       		.byte	0x2
 1934 0887 23       		.byte	0x23
 1935 0888 1C       		.uleb128 0x1c
 1936 0889 19       		.uleb128 0x19
 1937 088a 46070000 		.4byte	.LASF173
 1938 088e 0B       		.byte	0xb
 1939 088f 6204     		.2byte	0x462
 1940 0891 56030000 		.4byte	0x356
 1941 0895 02       		.byte	0x2
 1942 0896 23       		.byte	0x23
 1943 0897 20       		.uleb128 0x20
 1944 0898 19       		.uleb128 0x19
 1945 0899 F5050000 		.4byte	.LASF174
 1946 089d 0B       		.byte	0xb
 1947 089e 6304     		.2byte	0x463
 1948 08a0 56030000 		.4byte	0x356
 1949 08a4 02       		.byte	0x2
 1950 08a5 23       		.byte	0x23
 1951 08a6 24       		.uleb128 0x24
 1952 08a7 19       		.uleb128 0x19
 1953 08a8 7E020000 		.4byte	.LASF175
 1954 08ac 0B       		.byte	0xb
 1955 08ad 6404     		.2byte	0x464
 1956 08af EF070000 		.4byte	0x7ef
 1957 08b3 02       		.byte	0x2
 1958 08b4 23       		.byte	0x23
 1959 08b5 28       		.uleb128 0x28
 1960 08b6 19       		.uleb128 0x19
 1961 08b7 74080000 		.4byte	.LASF176
 1962 08bb 0B       		.byte	0xb
 1963 08bc 6504     		.2byte	0x465
 1964 08be 56030000 		.4byte	0x356
 1965 08c2 02       		.byte	0x2
 1966 08c3 23       		.byte	0x23
 1967 08c4 30       		.uleb128 0x30
 1968 08c5 19       		.uleb128 0x19
 1969 08c6 78030000 		.4byte	.LASF177
 1970 08ca 0B       		.byte	0xb
 1971 08cb 6604     		.2byte	0x466
 1972 08cd 56030000 		.4byte	0x356
 1973 08d1 02       		.byte	0x2
 1974 08d2 23       		.byte	0x23
 1975 08d3 34       		.uleb128 0x34
 1976 08d4 19       		.uleb128 0x19
 1977 08d5 480A0000 		.4byte	.LASF178
 1978 08d9 0B       		.byte	0xb
 1979 08da 6704     		.2byte	0x467
ARM GAS  /tmp/cc5EYtpt.s 			page 36


 1980 08dc 56030000 		.4byte	0x356
 1981 08e0 02       		.byte	0x2
 1982 08e1 23       		.byte	0x23
 1983 08e2 38       		.uleb128 0x38
 1984 08e3 19       		.uleb128 0x19
 1985 08e4 EE020000 		.4byte	.LASF179
 1986 08e8 0B       		.byte	0xb
 1987 08e9 6804     		.2byte	0x468
 1988 08eb 86000000 		.4byte	0x86
 1989 08ef 02       		.byte	0x2
 1990 08f0 23       		.byte	0x23
 1991 08f1 3C       		.uleb128 0x3c
 1992 08f2 19       		.uleb128 0x19
 1993 08f3 69070000 		.4byte	.LASF180
 1994 08f7 0B       		.byte	0xb
 1995 08f8 6904     		.2byte	0x469
 1996 08fa 56030000 		.4byte	0x356
 1997 08fe 02       		.byte	0x2
 1998 08ff 23       		.byte	0x23
 1999 0900 40       		.uleb128 0x40
 2000 0901 19       		.uleb128 0x19
 2001 0902 F7010000 		.4byte	.LASF181
 2002 0906 0B       		.byte	0xb
 2003 0907 6A04     		.2byte	0x46a
 2004 0909 56030000 		.4byte	0x356
 2005 090d 02       		.byte	0x2
 2006 090e 23       		.byte	0x23
 2007 090f 44       		.uleb128 0x44
 2008 0910 19       		.uleb128 0x19
 2009 0911 F8020000 		.4byte	.LASF182
 2010 0915 0B       		.byte	0xb
 2011 0916 6B04     		.2byte	0x46b
 2012 0918 EF070000 		.4byte	0x7ef
 2013 091c 02       		.byte	0x2
 2014 091d 23       		.byte	0x23
 2015 091e 48       		.uleb128 0x48
 2016 091f 19       		.uleb128 0x19
 2017 0920 FF010000 		.4byte	.LASF183
 2018 0924 0B       		.byte	0xb
 2019 0925 6C04     		.2byte	0x46c
 2020 0927 56030000 		.4byte	0x356
 2021 092b 02       		.byte	0x2
 2022 092c 23       		.byte	0x23
 2023 092d 50       		.uleb128 0x50
 2024 092e 19       		.uleb128 0x19
 2025 092f 45010000 		.4byte	.LASF184
 2026 0933 0B       		.byte	0xb
 2027 0934 6D04     		.2byte	0x46d
 2028 0936 56030000 		.4byte	0x356
 2029 093a 02       		.byte	0x2
 2030 093b 23       		.byte	0x23
 2031 093c 54       		.uleb128 0x54
 2032 093d 19       		.uleb128 0x19
 2033 093e 09080000 		.4byte	.LASF185
 2034 0942 0B       		.byte	0xb
 2035 0943 6E04     		.2byte	0x46e
 2036 0945 56030000 		.4byte	0x356
ARM GAS  /tmp/cc5EYtpt.s 			page 37


 2037 0949 02       		.byte	0x2
 2038 094a 23       		.byte	0x23
 2039 094b 58       		.uleb128 0x58
 2040 094c 19       		.uleb128 0x19
 2041 094d A8020000 		.4byte	.LASF186
 2042 0951 0B       		.byte	0xb
 2043 0952 6F04     		.2byte	0x46f
 2044 0954 86000000 		.4byte	0x86
 2045 0958 02       		.byte	0x2
 2046 0959 23       		.byte	0x23
 2047 095a 5C       		.uleb128 0x5c
 2048 095b 19       		.uleb128 0x19
 2049 095c A9060000 		.4byte	.LASF187
 2050 0960 0B       		.byte	0xb
 2051 0961 7004     		.2byte	0x470
 2052 0963 56030000 		.4byte	0x356
 2053 0967 02       		.byte	0x2
 2054 0968 23       		.byte	0x23
 2055 0969 60       		.uleb128 0x60
 2056 096a 19       		.uleb128 0x19
 2057 096b 12060000 		.4byte	.LASF188
 2058 096f 0B       		.byte	0xb
 2059 0970 7104     		.2byte	0x471
 2060 0972 56030000 		.4byte	0x356
 2061 0976 02       		.byte	0x2
 2062 0977 23       		.byte	0x23
 2063 0978 64       		.uleb128 0x64
 2064 0979 19       		.uleb128 0x19
 2065 097a 0C030000 		.4byte	.LASF189
 2066 097e 0B       		.byte	0xb
 2067 097f 7204     		.2byte	0x472
 2068 0981 EF070000 		.4byte	0x7ef
 2069 0985 02       		.byte	0x2
 2070 0986 23       		.byte	0x23
 2071 0987 68       		.uleb128 0x68
 2072 0988 19       		.uleb128 0x19
 2073 0989 D7030000 		.4byte	.LASF190
 2074 098d 0B       		.byte	0xb
 2075 098e 7304     		.2byte	0x473
 2076 0990 56030000 		.4byte	0x356
 2077 0994 02       		.byte	0x2
 2078 0995 23       		.byte	0x23
 2079 0996 70       		.uleb128 0x70
 2080 0997 0C       		.uleb128 0xc
 2081 0998 43535200 		.ascii	"CSR\000"
 2082 099c 0B       		.byte	0xb
 2083 099d 7404     		.2byte	0x474
 2084 099f 56030000 		.4byte	0x356
 2085 09a3 02       		.byte	0x2
 2086 09a4 23       		.byte	0x23
 2087 09a5 74       		.uleb128 0x74
 2088 09a6 19       		.uleb128 0x19
 2089 09a7 B9020000 		.4byte	.LASF191
 2090 09ab 0B       		.byte	0xb
 2091 09ac 7504     		.2byte	0x475
 2092 09ae EF070000 		.4byte	0x7ef
 2093 09b2 02       		.byte	0x2
ARM GAS  /tmp/cc5EYtpt.s 			page 38


 2094 09b3 23       		.byte	0x23
 2095 09b4 78       		.uleb128 0x78
 2096 09b5 19       		.uleb128 0x19
 2097 09b6 D9050000 		.4byte	.LASF192
 2098 09ba 0B       		.byte	0xb
 2099 09bb 7604     		.2byte	0x476
 2100 09bd 56030000 		.4byte	0x356
 2101 09c1 03       		.byte	0x3
 2102 09c2 23       		.byte	0x23
 2103 09c3 8001     		.uleb128 0x80
 2104 09c5 19       		.uleb128 0x19
 2105 09c6 24000000 		.4byte	.LASF193
 2106 09ca 0B       		.byte	0xb
 2107 09cb 7704     		.2byte	0x477
 2108 09cd 56030000 		.4byte	0x356
 2109 09d1 03       		.byte	0x3
 2110 09d2 23       		.byte	0x23
 2111 09d3 8401     		.uleb128 0x84
 2112 09d5 19       		.uleb128 0x19
 2113 09d6 86090000 		.4byte	.LASF194
 2114 09da 0B       		.byte	0xb
 2115 09db 7804     		.2byte	0x478
 2116 09dd 56030000 		.4byte	0x356
 2117 09e1 03       		.byte	0x3
 2118 09e2 23       		.byte	0x23
 2119 09e3 8801     		.uleb128 0x88
 2120 09e5 19       		.uleb128 0x19
 2121 09e6 22020000 		.4byte	.LASF195
 2122 09ea 0B       		.byte	0xb
 2123 09eb 7904     		.2byte	0x479
 2124 09ed 56030000 		.4byte	0x356
 2125 09f1 03       		.byte	0x3
 2126 09f2 23       		.byte	0x23
 2127 09f3 8C01     		.uleb128 0x8c
 2128 09f5 00       		.byte	0x0
 2129 09f6 1A       		.uleb128 0x1a
 2130 09f7 BE080000 		.4byte	.LASF196
 2131 09fb 0B       		.byte	0xb
 2132 09fc 7B04     		.2byte	0x47b
 2133 09fe 09080000 		.4byte	0x809
 2134 0a02 18       		.uleb128 0x18
 2135 0a03 1C       		.byte	0x1c
 2136 0a04 0B       		.byte	0xb
 2137 0a05 2905     		.2byte	0x529
 2138 0a07 DC0A0000 		.4byte	0xadc
 2139 0a0b 0C       		.uleb128 0xc
 2140 0a0c 535200   		.ascii	"SR\000"
 2141 0a0f 0B       		.byte	0xb
 2142 0a10 2B05     		.2byte	0x52b
 2143 0a12 FF070000 		.4byte	0x7ff
 2144 0a16 02       		.byte	0x2
 2145 0a17 23       		.byte	0x23
 2146 0a18 00       		.uleb128 0x0
 2147 0a19 19       		.uleb128 0x19
 2148 0a1a 74020000 		.4byte	.LASF172
 2149 0a1e 0B       		.byte	0xb
 2150 0a1f 2C05     		.2byte	0x52c
ARM GAS  /tmp/cc5EYtpt.s 			page 39


 2151 0a21 62000000 		.4byte	0x62
 2152 0a25 02       		.byte	0x2
 2153 0a26 23       		.byte	0x23
 2154 0a27 02       		.uleb128 0x2
 2155 0a28 0C       		.uleb128 0xc
 2156 0a29 445200   		.ascii	"DR\000"
 2157 0a2c 0B       		.byte	0xb
 2158 0a2d 2D05     		.2byte	0x52d
 2159 0a2f FF070000 		.4byte	0x7ff
 2160 0a33 02       		.byte	0x2
 2161 0a34 23       		.byte	0x23
 2162 0a35 04       		.uleb128 0x4
 2163 0a36 19       		.uleb128 0x19
 2164 0a37 7E020000 		.4byte	.LASF175
 2165 0a3b 0B       		.byte	0xb
 2166 0a3c 2E05     		.2byte	0x52e
 2167 0a3e 62000000 		.4byte	0x62
 2168 0a42 02       		.byte	0x2
 2169 0a43 23       		.byte	0x23
 2170 0a44 06       		.uleb128 0x6
 2171 0a45 0C       		.uleb128 0xc
 2172 0a46 42525200 		.ascii	"BRR\000"
 2173 0a4a 0B       		.byte	0xb
 2174 0a4b 2F05     		.2byte	0x52f
 2175 0a4d FF070000 		.4byte	0x7ff
 2176 0a51 02       		.byte	0x2
 2177 0a52 23       		.byte	0x23
 2178 0a53 08       		.uleb128 0x8
 2179 0a54 19       		.uleb128 0x19
 2180 0a55 EE020000 		.4byte	.LASF179
 2181 0a59 0B       		.byte	0xb
 2182 0a5a 3005     		.2byte	0x530
 2183 0a5c 62000000 		.4byte	0x62
 2184 0a60 02       		.byte	0x2
 2185 0a61 23       		.byte	0x23
 2186 0a62 0A       		.uleb128 0xa
 2187 0a63 0C       		.uleb128 0xc
 2188 0a64 43523100 		.ascii	"CR1\000"
 2189 0a68 0B       		.byte	0xb
 2190 0a69 3105     		.2byte	0x531
 2191 0a6b FF070000 		.4byte	0x7ff
 2192 0a6f 02       		.byte	0x2
 2193 0a70 23       		.byte	0x23
 2194 0a71 0C       		.uleb128 0xc
 2195 0a72 19       		.uleb128 0x19
 2196 0a73 F8020000 		.4byte	.LASF182
 2197 0a77 0B       		.byte	0xb
 2198 0a78 3205     		.2byte	0x532
 2199 0a7a 62000000 		.4byte	0x62
 2200 0a7e 02       		.byte	0x2
 2201 0a7f 23       		.byte	0x23
 2202 0a80 0E       		.uleb128 0xe
 2203 0a81 0C       		.uleb128 0xc
 2204 0a82 43523200 		.ascii	"CR2\000"
 2205 0a86 0B       		.byte	0xb
 2206 0a87 3305     		.2byte	0x533
 2207 0a89 FF070000 		.4byte	0x7ff
ARM GAS  /tmp/cc5EYtpt.s 			page 40


 2208 0a8d 02       		.byte	0x2
 2209 0a8e 23       		.byte	0x23
 2210 0a8f 10       		.uleb128 0x10
 2211 0a90 19       		.uleb128 0x19
 2212 0a91 A8020000 		.4byte	.LASF186
 2213 0a95 0B       		.byte	0xb
 2214 0a96 3405     		.2byte	0x534
 2215 0a98 62000000 		.4byte	0x62
 2216 0a9c 02       		.byte	0x2
 2217 0a9d 23       		.byte	0x23
 2218 0a9e 12       		.uleb128 0x12
 2219 0a9f 0C       		.uleb128 0xc
 2220 0aa0 43523300 		.ascii	"CR3\000"
 2221 0aa4 0B       		.byte	0xb
 2222 0aa5 3505     		.2byte	0x535
 2223 0aa7 FF070000 		.4byte	0x7ff
 2224 0aab 02       		.byte	0x2
 2225 0aac 23       		.byte	0x23
 2226 0aad 14       		.uleb128 0x14
 2227 0aae 19       		.uleb128 0x19
 2228 0aaf 0C030000 		.4byte	.LASF189
 2229 0ab3 0B       		.byte	0xb
 2230 0ab4 3605     		.2byte	0x536
 2231 0ab6 62000000 		.4byte	0x62
 2232 0aba 02       		.byte	0x2
 2233 0abb 23       		.byte	0x23
 2234 0abc 16       		.uleb128 0x16
 2235 0abd 19       		.uleb128 0x19
 2236 0abe 64000000 		.4byte	.LASF197
 2237 0ac2 0B       		.byte	0xb
 2238 0ac3 3705     		.2byte	0x537
 2239 0ac5 FF070000 		.4byte	0x7ff
 2240 0ac9 02       		.byte	0x2
 2241 0aca 23       		.byte	0x23
 2242 0acb 18       		.uleb128 0x18
 2243 0acc 19       		.uleb128 0x19
 2244 0acd B9020000 		.4byte	.LASF191
 2245 0ad1 0B       		.byte	0xb
 2246 0ad2 3805     		.2byte	0x538
 2247 0ad4 62000000 		.4byte	0x62
 2248 0ad8 02       		.byte	0x2
 2249 0ad9 23       		.byte	0x23
 2250 0ada 1A       		.uleb128 0x1a
 2251 0adb 00       		.byte	0x0
 2252 0adc 1A       		.uleb128 0x1a
 2253 0add A7030000 		.4byte	.LASF198
 2254 0ae1 0B       		.byte	0xb
 2255 0ae2 3905     		.2byte	0x539
 2256 0ae4 020A0000 		.4byte	0xa02
 2257 0ae8 11       		.uleb128 0x11
 2258 0ae9 01       		.byte	0x1
 2259 0aea E4000000 		.4byte	0xe4
 2260 0aee 020B0000 		.4byte	0xb02
 2261 0af2 12       		.uleb128 0x12
 2262 0af3 A3020000 		.4byte	0x2a3
 2263 0af7 12       		.uleb128 0x12
 2264 0af8 49000000 		.4byte	0x49
ARM GAS  /tmp/cc5EYtpt.s 			page 41


 2265 0afc 12       		.uleb128 0x12
 2266 0afd 05010000 		.4byte	0x105
 2267 0b01 00       		.byte	0x0
 2268 0b02 09       		.uleb128 0x9
 2269 0b03 04       		.byte	0x4
 2270 0b04 E80A0000 		.4byte	0xae8
 2271 0b08 11       		.uleb128 0x11
 2272 0b09 01       		.byte	0x1
 2273 0b0a E4000000 		.4byte	0xe4
 2274 0b0e 1D0B0000 		.4byte	0xb1d
 2275 0b12 12       		.uleb128 0x12
 2276 0b13 A3020000 		.4byte	0x2a3
 2277 0b17 12       		.uleb128 0x12
 2278 0b18 05010000 		.4byte	0x105
 2279 0b1c 00       		.byte	0x0
 2280 0b1d 09       		.uleb128 0x9
 2281 0b1e 04       		.byte	0x4
 2282 0b1f 080B0000 		.4byte	0xb08
 2283 0b23 11       		.uleb128 0x11
 2284 0b24 01       		.byte	0x1
 2285 0b25 30000000 		.4byte	0x30
 2286 0b29 420B0000 		.4byte	0xb42
 2287 0b2d 12       		.uleb128 0x12
 2288 0b2e A3020000 		.4byte	0x2a3
 2289 0b32 12       		.uleb128 0x12
 2290 0b33 68050000 		.4byte	0x568
 2291 0b37 12       		.uleb128 0x12
 2292 0b38 30000000 		.4byte	0x30
 2293 0b3c 12       		.uleb128 0x12
 2294 0b3d 05010000 		.4byte	0x105
 2295 0b41 00       		.byte	0x0
 2296 0b42 09       		.uleb128 0x9
 2297 0b43 04       		.byte	0x4
 2298 0b44 230B0000 		.4byte	0xb23
 2299 0b48 11       		.uleb128 0x11
 2300 0b49 01       		.byte	0x1
 2301 0b4a 30000000 		.4byte	0x30
 2302 0b4e 670B0000 		.4byte	0xb67
 2303 0b52 12       		.uleb128 0x12
 2304 0b53 A3020000 		.4byte	0x2a3
 2305 0b57 12       		.uleb128 0x12
 2306 0b58 32050000 		.4byte	0x532
 2307 0b5c 12       		.uleb128 0x12
 2308 0b5d 30000000 		.4byte	0x30
 2309 0b61 12       		.uleb128 0x12
 2310 0b62 05010000 		.4byte	0x105
 2311 0b66 00       		.byte	0x0
 2312 0b67 09       		.uleb128 0x9
 2313 0b68 04       		.byte	0x4
 2314 0b69 480B0000 		.4byte	0xb48
 2315 0b6d 1B       		.uleb128 0x1b
 2316 0b6e 01       		.byte	0x1
 2317 0b6f 0C       		.byte	0xc
 2318 0b70 64       		.byte	0x64
 2319 0b71 880B0000 		.4byte	0xb88
 2320 0b75 15       		.uleb128 0x15
 2321 0b76 DE020000 		.4byte	.LASF199
ARM GAS  /tmp/cc5EYtpt.s 			page 42


 2322 0b7a 00       		.sleb128 0
 2323 0b7b 15       		.uleb128 0x15
 2324 0b7c 2A0A0000 		.4byte	.LASF200
 2325 0b80 01       		.sleb128 1
 2326 0b81 15       		.uleb128 0x15
 2327 0b82 8E080000 		.4byte	.LASF201
 2328 0b86 02       		.sleb128 2
 2329 0b87 00       		.byte	0x0
 2330 0b88 03       		.uleb128 0x3
 2331 0b89 58080000 		.4byte	.LASF202
 2332 0b8d 0C       		.byte	0xc
 2333 0b8e 68       		.byte	0x68
 2334 0b8f 6D0B0000 		.4byte	0xb6d
 2335 0b93 03       		.uleb128 0x3
 2336 0b94 1C080000 		.4byte	.LASF203
 2337 0b98 0C       		.byte	0xc
 2338 0b99 6D       		.byte	0x6d
 2339 0b9a 9E0B0000 		.4byte	0xb9e
 2340 0b9e 05       		.uleb128 0x5
 2341 0b9f 1C080000 		.4byte	.LASF203
 2342 0ba3 78       		.byte	0x78
 2343 0ba4 0C       		.byte	0xc
 2344 0ba5 87       		.byte	0x87
 2345 0ba6 190C0000 		.4byte	0xc19
 2346 0baa 07       		.uleb128 0x7
 2347 0bab 766D7400 		.ascii	"vmt\000"
 2348 0baf 0C       		.byte	0xc
 2349 0bb0 89       		.byte	0x89
 2350 0bb1 E20C0000 		.4byte	0xce2
 2351 0bb5 02       		.byte	0x2
 2352 0bb6 23       		.byte	0x23
 2353 0bb7 00       		.uleb128 0x0
 2354 0bb8 06       		.uleb128 0x6
 2355 0bb9 42060000 		.4byte	.LASF204
 2356 0bbd 0C       		.byte	0xc
 2357 0bbe 8A       		.byte	0x8a
 2358 0bbf 19040000 		.4byte	0x419
 2359 0bc3 02       		.byte	0x2
 2360 0bc4 23       		.byte	0x23
 2361 0bc5 04       		.uleb128 0x4
 2362 0bc6 06       		.uleb128 0x6
 2363 0bc7 B9000000 		.4byte	.LASF205
 2364 0bcb 0C       		.byte	0xc
 2365 0bcc 8A       		.byte	0x8a
 2366 0bcd 880B0000 		.4byte	0xb88
 2367 0bd1 02       		.byte	0x2
 2368 0bd2 23       		.byte	0x23
 2369 0bd3 08       		.uleb128 0x8
 2370 0bd4 06       		.uleb128 0x6
 2371 0bd5 DD080000 		.4byte	.LASF206
 2372 0bd9 0C       		.byte	0xc
 2373 0bda 8A       		.byte	0x8a
 2374 0bdb 38050000 		.4byte	0x538
 2375 0bdf 02       		.byte	0x2
 2376 0be0 23       		.byte	0x23
 2377 0be1 0C       		.uleb128 0xc
 2378 0be2 06       		.uleb128 0x6
ARM GAS  /tmp/cc5EYtpt.s 			page 43


 2379 0be3 E7010000 		.4byte	.LASF207
 2380 0be7 0C       		.byte	0xc
 2381 0be8 8A       		.byte	0x8a
 2382 0be9 43050000 		.4byte	0x543
 2383 0bed 02       		.byte	0x2
 2384 0bee 23       		.byte	0x23
 2385 0bef 30       		.uleb128 0x30
 2386 0bf0 07       		.uleb128 0x7
 2387 0bf1 696200   		.ascii	"ib\000"
 2388 0bf4 0C       		.byte	0xc
 2389 0bf5 8A       		.byte	0x8a
 2390 0bf6 ED0C0000 		.4byte	0xced
 2391 0bfa 02       		.byte	0x2
 2392 0bfb 23       		.byte	0x23
 2393 0bfc 54       		.uleb128 0x54
 2394 0bfd 07       		.uleb128 0x7
 2395 0bfe 6F6200   		.ascii	"ob\000"
 2396 0c01 0C       		.byte	0xc
 2397 0c02 8A       		.byte	0x8a
 2398 0c03 ED0C0000 		.4byte	0xced
 2399 0c07 02       		.byte	0x2
 2400 0c08 23       		.byte	0x23
 2401 0c09 64       		.uleb128 0x64
 2402 0c0a 06       		.uleb128 0x6
 2403 0c0b 2A020000 		.4byte	.LASF208
 2404 0c0f 0C       		.byte	0xc
 2405 0c10 8A       		.byte	0x8a
 2406 0c11 FD0C0000 		.4byte	0xcfd
 2407 0c15 02       		.byte	0x2
 2408 0c16 23       		.byte	0x23
 2409 0c17 74       		.uleb128 0x74
 2410 0c18 00       		.byte	0x0
 2411 0c19 08       		.uleb128 0x8
 2412 0c1a 0C       		.byte	0xc
 2413 0c1b 0D       		.byte	0xd
 2414 0c1c D7       		.byte	0xd7
 2415 0c1d 5A0C0000 		.4byte	0xc5a
 2416 0c21 06       		.uleb128 0x6
 2417 0c22 0A040000 		.4byte	.LASF209
 2418 0c26 0D       		.byte	0xd
 2419 0c27 DB       		.byte	0xdb
 2420 0c28 86000000 		.4byte	0x86
 2421 0c2c 02       		.byte	0x2
 2422 0c2d 23       		.byte	0x23
 2423 0c2e 00       		.uleb128 0x0
 2424 0c2f 07       		.uleb128 0x7
 2425 0c30 63723100 		.ascii	"cr1\000"
 2426 0c34 0D       		.byte	0xd
 2427 0c35 E0       		.byte	0xe0
 2428 0c36 62000000 		.4byte	0x62
 2429 0c3a 02       		.byte	0x2
 2430 0c3b 23       		.byte	0x23
 2431 0c3c 04       		.uleb128 0x4
 2432 0c3d 07       		.uleb128 0x7
 2433 0c3e 63723200 		.ascii	"cr2\000"
 2434 0c42 0D       		.byte	0xd
 2435 0c43 E4       		.byte	0xe4
ARM GAS  /tmp/cc5EYtpt.s 			page 44


 2436 0c44 62000000 		.4byte	0x62
 2437 0c48 02       		.byte	0x2
 2438 0c49 23       		.byte	0x23
 2439 0c4a 06       		.uleb128 0x6
 2440 0c4b 07       		.uleb128 0x7
 2441 0c4c 63723300 		.ascii	"cr3\000"
 2442 0c50 0D       		.byte	0xd
 2443 0c51 E8       		.byte	0xe8
 2444 0c52 62000000 		.4byte	0x62
 2445 0c56 02       		.byte	0x2
 2446 0c57 23       		.byte	0x23
 2447 0c58 08       		.uleb128 0x8
 2448 0c59 00       		.byte	0x0
 2449 0c5a 03       		.uleb128 0x3
 2450 0c5b 50000000 		.4byte	.LASF210
 2451 0c5f 0D       		.byte	0xd
 2452 0c60 E9       		.byte	0xe9
 2453 0c61 190C0000 		.4byte	0xc19
 2454 0c65 05       		.uleb128 0x5
 2455 0c66 25050000 		.4byte	.LASF211
 2456 0c6a 20       		.byte	0x20
 2457 0c6b 0C       		.byte	0xc
 2458 0c6c 7C       		.byte	0x7c
 2459 0c6d E20C0000 		.4byte	0xce2
 2460 0c71 06       		.uleb128 0x6
 2461 0c72 69000000 		.4byte	.LASF212
 2462 0c76 0C       		.byte	0xc
 2463 0c77 7D       		.byte	0x7d
 2464 0c78 73050000 		.4byte	0x573
 2465 0c7c 02       		.byte	0x2
 2466 0c7d 23       		.byte	0x23
 2467 0c7e 00       		.uleb128 0x0
 2468 0c7f 06       		.uleb128 0x6
 2469 0c80 61060000 		.4byte	.LASF213
 2470 0c84 0C       		.byte	0xc
 2471 0c85 7D       		.byte	0x7d
 2472 0c86 93050000 		.4byte	0x593
 2473 0c8a 02       		.byte	0x2
 2474 0c8b 23       		.byte	0x23
 2475 0c8c 04       		.uleb128 0x4
 2476 0c8d 07       		.uleb128 0x7
 2477 0c8e 70757400 		.ascii	"put\000"
 2478 0c92 0C       		.byte	0xc
 2479 0c93 7D       		.byte	0x7d
 2480 0c94 AE050000 		.4byte	0x5ae
 2481 0c98 02       		.byte	0x2
 2482 0c99 23       		.byte	0x23
 2483 0c9a 08       		.uleb128 0x8
 2484 0c9b 07       		.uleb128 0x7
 2485 0c9c 67657400 		.ascii	"get\000"
 2486 0ca0 0C       		.byte	0xc
 2487 0ca1 7D       		.byte	0x7d
 2488 0ca2 71040000 		.4byte	0x471
 2489 0ca6 02       		.byte	0x2
 2490 0ca7 23       		.byte	0x23
 2491 0ca8 0C       		.uleb128 0xc
 2492 0ca9 06       		.uleb128 0x6
ARM GAS  /tmp/cc5EYtpt.s 			page 45


 2493 0caa BF000000 		.4byte	.LASF214
 2494 0cae 0C       		.byte	0xc
 2495 0caf 7D       		.byte	0x7d
 2496 0cb0 020B0000 		.4byte	0xb02
 2497 0cb4 02       		.byte	0x2
 2498 0cb5 23       		.byte	0x23
 2499 0cb6 10       		.uleb128 0x10
 2500 0cb7 06       		.uleb128 0x6
 2501 0cb8 A2030000 		.4byte	.LASF215
 2502 0cbc 0C       		.byte	0xc
 2503 0cbd 7D       		.byte	0x7d
 2504 0cbe 1D0B0000 		.4byte	0xb1d
 2505 0cc2 02       		.byte	0x2
 2506 0cc3 23       		.byte	0x23
 2507 0cc4 14       		.uleb128 0x14
 2508 0cc5 06       		.uleb128 0x6
 2509 0cc6 5D000000 		.4byte	.LASF216
 2510 0cca 0C       		.byte	0xc
 2511 0ccb 7D       		.byte	0x7d
 2512 0ccc 420B0000 		.4byte	0xb42
 2513 0cd0 02       		.byte	0x2
 2514 0cd1 23       		.byte	0x23
 2515 0cd2 18       		.uleb128 0x18
 2516 0cd3 06       		.uleb128 0x6
 2517 0cd4 4F010000 		.4byte	.LASF217
 2518 0cd8 0C       		.byte	0xc
 2519 0cd9 7D       		.byte	0x7d
 2520 0cda 670B0000 		.4byte	0xb67
 2521 0cde 02       		.byte	0x2
 2522 0cdf 23       		.byte	0x23
 2523 0ce0 1C       		.uleb128 0x1c
 2524 0ce1 00       		.byte	0x0
 2525 0ce2 09       		.uleb128 0x9
 2526 0ce3 04       		.byte	0x4
 2527 0ce4 E80C0000 		.4byte	0xce8
 2528 0ce8 10       		.uleb128 0x10
 2529 0ce9 650C0000 		.4byte	0xc65
 2530 0ced 16       		.uleb128 0x16
 2531 0cee 49000000 		.4byte	0x49
 2532 0cf2 FD0C0000 		.4byte	0xcfd
 2533 0cf6 17       		.uleb128 0x17
 2534 0cf7 3B000000 		.4byte	0x3b
 2535 0cfb 0F       		.byte	0xf
 2536 0cfc 00       		.byte	0x0
 2537 0cfd 09       		.uleb128 0x9
 2538 0cfe 04       		.byte	0x4
 2539 0cff DC0A0000 		.4byte	0xadc
 2540 0d03 1C       		.uleb128 0x1c
 2541 0d04 4F070000 		.4byte	.LASF219
 2542 0d08 01       		.byte	0x1
 2543 0d09 5C       		.byte	0x5c
 2544 0d0a 01       		.byte	0x1
 2545 0d0b 01       		.byte	0x1
 2546 0d0c 300D0000 		.4byte	0xd30
 2547 0d10 1D       		.uleb128 0x1d
 2548 0d11 73647000 		.ascii	"sdp\000"
 2549 0d15 01       		.byte	0x1
ARM GAS  /tmp/cc5EYtpt.s 			page 46


 2550 0d16 5C       		.byte	0x5c
 2551 0d17 300D0000 		.4byte	0xd30
 2552 0d1b 1E       		.uleb128 0x1e
 2553 0d1c B2000000 		.4byte	.LASF218
 2554 0d20 01       		.byte	0x1
 2555 0d21 5C       		.byte	0x5c
 2556 0d22 360D0000 		.4byte	0xd36
 2557 0d26 1F       		.uleb128 0x1f
 2558 0d27 7500     		.ascii	"u\000"
 2559 0d29 01       		.byte	0x1
 2560 0d2a 5D       		.byte	0x5d
 2561 0d2b FD0C0000 		.4byte	0xcfd
 2562 0d2f 00       		.byte	0x0
 2563 0d30 09       		.uleb128 0x9
 2564 0d31 04       		.byte	0x4
 2565 0d32 930B0000 		.4byte	0xb93
 2566 0d36 09       		.uleb128 0x9
 2567 0d37 04       		.byte	0x4
 2568 0d38 3C0D0000 		.4byte	0xd3c
 2569 0d3c 10       		.uleb128 0x10
 2570 0d3d 5A0C0000 		.4byte	0xc5a
 2571 0d41 1C       		.uleb128 0x1c
 2572 0d42 DE000000 		.4byte	.LASF220
 2573 0d46 01       		.byte	0x1
 2574 0d47 87       		.byte	0x87
 2575 0d48 01       		.byte	0x1
 2576 0d49 01       		.byte	0x1
 2577 0d4a 6F0D0000 		.4byte	0xd6f
 2578 0d4e 1D       		.uleb128 0x1d
 2579 0d4f 73647000 		.ascii	"sdp\000"
 2580 0d53 01       		.byte	0x1
 2581 0d54 87       		.byte	0x87
 2582 0d55 300D0000 		.4byte	0xd30
 2583 0d59 1D       		.uleb128 0x1d
 2584 0d5a 737200   		.ascii	"sr\000"
 2585 0d5d 01       		.byte	0x1
 2586 0d5e 87       		.byte	0x87
 2587 0d5f 62000000 		.4byte	0x62
 2588 0d63 1F       		.uleb128 0x1f
 2589 0d64 73747300 		.ascii	"sts\000"
 2590 0d68 01       		.byte	0x1
 2591 0d69 88       		.byte	0x88
 2592 0d6a FA000000 		.4byte	0xfa
 2593 0d6e 00       		.byte	0x0
 2594 0d6f 1C       		.uleb128 0x1c
 2595 0d70 35050000 		.4byte	.LASF221
 2596 0d74 01       		.byte	0x1
 2597 0d75 7A       		.byte	0x7a
 2598 0d76 01       		.byte	0x1
 2599 0d77 01       		.byte	0x1
 2600 0d78 860D0000 		.4byte	0xd86
 2601 0d7c 1D       		.uleb128 0x1d
 2602 0d7d 7500     		.ascii	"u\000"
 2603 0d7f 01       		.byte	0x1
 2604 0d80 7A       		.byte	0x7a
 2605 0d81 FD0C0000 		.4byte	0xcfd
 2606 0d85 00       		.byte	0x0
ARM GAS  /tmp/cc5EYtpt.s 			page 47


 2607 0d86 1C       		.uleb128 0x1c
 2608 0d87 CE000000 		.4byte	.LASF222
 2609 0d8b 01       		.byte	0x1
 2610 0d8c 9A       		.byte	0x9a
 2611 0d8d 01       		.byte	0x1
 2612 0d8e 01       		.byte	0x1
 2613 0d8f 4C0E0000 		.4byte	0xe4c
 2614 0d93 1D       		.uleb128 0x1d
 2615 0d94 73647000 		.ascii	"sdp\000"
 2616 0d98 01       		.byte	0x1
 2617 0d99 9A       		.byte	0x9a
 2618 0d9a 300D0000 		.4byte	0xd30
 2619 0d9e 1F       		.uleb128 0x1f
 2620 0d9f 7500     		.ascii	"u\000"
 2621 0da1 01       		.byte	0x1
 2622 0da2 9B       		.byte	0x9b
 2623 0da3 FD0C0000 		.4byte	0xcfd
 2624 0da7 1F       		.uleb128 0x1f
 2625 0da8 63723100 		.ascii	"cr1\000"
 2626 0dac 01       		.byte	0x1
 2627 0dad 9C       		.byte	0x9c
 2628 0dae 62000000 		.4byte	0x62
 2629 0db2 1F       		.uleb128 0x1f
 2630 0db3 737200   		.ascii	"sr\000"
 2631 0db6 01       		.byte	0x1
 2632 0db7 9D       		.byte	0x9d
 2633 0db8 62000000 		.4byte	0x62
 2634 0dbc 20       		.uleb128 0x20
 2635 0dbd CD0D0000 		.4byte	0xdcd
 2636 0dc1 1F       		.uleb128 0x1f
 2637 0dc2 746D7000 		.ascii	"tmp\000"
 2638 0dc6 01       		.byte	0x1
 2639 0dc7 A1       		.byte	0xa1
 2640 0dc8 86000000 		.4byte	0x86
 2641 0dcc 00       		.byte	0x0
 2642 0dcd 20       		.uleb128 0x20
 2643 0dce DE0D0000 		.4byte	0xdde
 2644 0dd2 1F       		.uleb128 0x1f
 2645 0dd3 746D7000 		.ascii	"tmp\000"
 2646 0dd7 01       		.byte	0x1
 2647 0dd8 A3       		.byte	0xa3
 2648 0dd9 86000000 		.4byte	0x86
 2649 0ddd 00       		.byte	0x0
 2650 0dde 20       		.uleb128 0x20
 2651 0ddf EF0D0000 		.4byte	0xdef
 2652 0de3 1F       		.uleb128 0x1f
 2653 0de4 746D7000 		.ascii	"tmp\000"
 2654 0de8 01       		.byte	0x1
 2655 0de9 A8       		.byte	0xa8
 2656 0dea 86000000 		.4byte	0x86
 2657 0dee 00       		.byte	0x0
 2658 0def 20       		.uleb128 0x20
 2659 0df0 000E0000 		.4byte	0xe00
 2660 0df4 1F       		.uleb128 0x1f
 2661 0df5 746D7000 		.ascii	"tmp\000"
 2662 0df9 01       		.byte	0x1
 2663 0dfa B0       		.byte	0xb0
ARM GAS  /tmp/cc5EYtpt.s 			page 48


 2664 0dfb 86000000 		.4byte	0x86
 2665 0dff 00       		.byte	0x0
 2666 0e00 20       		.uleb128 0x20
 2667 0e01 2D0E0000 		.4byte	0xe2d
 2668 0e05 1F       		.uleb128 0x1f
 2669 0e06 6200     		.ascii	"b\000"
 2670 0e08 01       		.byte	0x1
 2671 0e09 B4       		.byte	0xb4
 2672 0e0a E4000000 		.4byte	0xe4
 2673 0e0e 20       		.uleb128 0x20
 2674 0e0f 1F0E0000 		.4byte	0xe1f
 2675 0e13 1F       		.uleb128 0x1f
 2676 0e14 746D7000 		.ascii	"tmp\000"
 2677 0e18 01       		.byte	0x1
 2678 0e19 B5       		.byte	0xb5
 2679 0e1a 86000000 		.4byte	0x86
 2680 0e1e 00       		.byte	0x0
 2681 0e1f 21       		.uleb128 0x21
 2682 0e20 1F       		.uleb128 0x1f
 2683 0e21 746D7000 		.ascii	"tmp\000"
 2684 0e25 01       		.byte	0x1
 2685 0e26 BD       		.byte	0xbd
 2686 0e27 86000000 		.4byte	0x86
 2687 0e2b 00       		.byte	0x0
 2688 0e2c 00       		.byte	0x0
 2689 0e2d 20       		.uleb128 0x20
 2690 0e2e 3E0E0000 		.4byte	0xe3e
 2691 0e32 1F       		.uleb128 0x1f
 2692 0e33 746D7000 		.ascii	"tmp\000"
 2693 0e37 01       		.byte	0x1
 2694 0e38 C2       		.byte	0xc2
 2695 0e39 86000000 		.4byte	0x86
 2696 0e3d 00       		.byte	0x0
 2697 0e3e 21       		.uleb128 0x21
 2698 0e3f 1F       		.uleb128 0x1f
 2699 0e40 746D7000 		.ascii	"tmp\000"
 2700 0e44 01       		.byte	0x1
 2701 0e45 C4       		.byte	0xc4
 2702 0e46 86000000 		.4byte	0x86
 2703 0e4a 00       		.byte	0x0
 2704 0e4b 00       		.byte	0x0
 2705 0e4c 22       		.uleb128 0x22
 2706 0e4d B6080000 		.4byte	.LASF231
 2707 0e51 01       		.byte	0x1
 2708 0e52 D3       		.byte	0xd3
 2709 0e53 01       		.byte	0x1
 2710 0e54 00000000 		.4byte	.LFB122
 2711 0e58 14000000 		.4byte	.LFE122
 2712 0e5c 02       		.byte	0x2
 2713 0e5d 7D       		.byte	0x7d
 2714 0e5e 00       		.sleb128 0
 2715 0e5f 720E0000 		.4byte	0xe72
 2716 0e63 23       		.uleb128 0x23
 2717 0e64 717000   		.ascii	"qp\000"
 2718 0e67 01       		.byte	0x1
 2719 0e68 D3       		.byte	0xd3
 2720 0e69 2C050000 		.4byte	0x52c
ARM GAS  /tmp/cc5EYtpt.s 			page 49


 2721 0e6d 00000000 		.4byte	.LLST0
 2722 0e71 00       		.byte	0x0
 2723 0e72 24       		.uleb128 0x24
 2724 0e73 01       		.byte	0x1
 2725 0e74 81000000 		.4byte	.LASF223
 2726 0e78 01       		.byte	0x1
 2727 0e79 1A01     		.2byte	0x11a
 2728 0e7b 01       		.byte	0x1
 2729 0e7c 00000000 		.4byte	.LFB123
 2730 0e80 10010000 		.4byte	.LFE123
 2731 0e84 13000000 		.4byte	.LLST1
 2732 0e88 C10F0000 		.4byte	0xfc1
 2733 0e8c 25       		.uleb128 0x25
 2734 0e8d 860D0000 		.4byte	0xd86
 2735 0e91 02000000 		.4byte	.LBB52
 2736 0e95 00000000 		.4byte	.Ldebug_ranges0+0x0
 2737 0e99 01       		.byte	0x1
 2738 0e9a 1E01     		.2byte	0x11e
 2739 0e9c 26       		.uleb128 0x26
 2740 0e9d 18000000 		.4byte	.Ldebug_ranges0+0x18
 2741 0ea1 27       		.uleb128 0x27
 2742 0ea2 9E0D0000 		.4byte	0xd9e
 2743 0ea6 33000000 		.4byte	.LLST2
 2744 0eaa 28       		.uleb128 0x28
 2745 0eab A70D0000 		.4byte	0xda7
 2746 0eaf 01       		.byte	0x1
 2747 0eb0 56       		.byte	0x56
 2748 0eb1 29       		.uleb128 0x29
 2749 0eb2 B20D0000 		.4byte	0xdb2
 2750 0eb6 2A       		.uleb128 0x2a
 2751 0eb7 930D0000 		.4byte	0xd93
 2752 0ebb 06       		.byte	0x6
 2753 0ebc 03       		.byte	0x3
 2754 0ebd 00000000 		.4byte	SD2
 2755 0ec1 9F       		.byte	0x9f
 2756 0ec2 2B       		.uleb128 0x2b
 2757 0ec3 98000000 		.4byte	.LBB54
 2758 0ec7 9E000000 		.4byte	.LBE54
 2759 0ecb D90E0000 		.4byte	0xed9
 2760 0ecf 27       		.uleb128 0x27
 2761 0ed0 3F0E0000 		.4byte	0xe3f
 2762 0ed4 55000000 		.4byte	.LLST3
 2763 0ed8 00       		.byte	0x0
 2764 0ed9 2B       		.uleb128 0x2b
 2765 0eda 8A000000 		.4byte	.LBB55
 2766 0ede 90000000 		.4byte	.LBE55
 2767 0ee2 F00E0000 		.4byte	0xef0
 2768 0ee6 27       		.uleb128 0x27
 2769 0ee7 320E0000 		.4byte	0xe32
 2770 0eeb 68000000 		.4byte	.LLST4
 2771 0eef 00       		.byte	0x0
 2772 0ef0 2B       		.uleb128 0x2b
 2773 0ef1 72000000 		.4byte	.LBB56
 2774 0ef5 78000000 		.4byte	.LBE56
 2775 0ef9 070F0000 		.4byte	0xf07
 2776 0efd 27       		.uleb128 0x27
 2777 0efe F40D0000 		.4byte	0xdf4
ARM GAS  /tmp/cc5EYtpt.s 			page 50


 2778 0f02 7B000000 		.4byte	.LLST5
 2779 0f06 00       		.byte	0x0
 2780 0f07 2C       		.uleb128 0x2c
 2781 0f08 410D0000 		.4byte	0xd41
 2782 0f0c 2C000000 		.4byte	.LBB57
 2783 0f10 58000000 		.4byte	.LBE57
 2784 0f14 01       		.byte	0x1
 2785 0f15 AC       		.byte	0xac
 2786 0f16 3C0F0000 		.4byte	0xf3c
 2787 0f1a 2D       		.uleb128 0x2d
 2788 0f1b 4E0D0000 		.4byte	0xd4e
 2789 0f1f A4000000 		.4byte	.LLST6
 2790 0f23 2E       		.uleb128 0x2e
 2791 0f24 590D0000 		.4byte	0xd59
 2792 0f28 2F       		.uleb128 0x2f
 2793 0f29 2C000000 		.4byte	.LBB58
 2794 0f2d 58000000 		.4byte	.LBE58
 2795 0f31 27       		.uleb128 0x27
 2796 0f32 630D0000 		.4byte	0xd63
 2797 0f36 BC000000 		.4byte	.LLST7
 2798 0f3a 00       		.byte	0x0
 2799 0f3b 00       		.byte	0x0
 2800 0f3c 2B       		.uleb128 0x2b
 2801 0f3d 1A000000 		.4byte	.LBB59
 2802 0f41 20000000 		.4byte	.LBE59
 2803 0f45 530F0000 		.4byte	0xf53
 2804 0f49 27       		.uleb128 0x27
 2805 0f4a E30D0000 		.4byte	0xde3
 2806 0f4e FC000000 		.4byte	.LLST8
 2807 0f52 00       		.byte	0x0
 2808 0f53 2B       		.uleb128 0x2b
 2809 0f54 B6000000 		.4byte	.LBB60
 2810 0f58 BC000000 		.4byte	.LBE60
 2811 0f5c 6A0F0000 		.4byte	0xf6a
 2812 0f60 27       		.uleb128 0x27
 2813 0f61 C10D0000 		.4byte	0xdc1
 2814 0f65 25010000 		.4byte	.LLST9
 2815 0f69 00       		.byte	0x0
 2816 0f6a 2B       		.uleb128 0x2b
 2817 0f6b C6000000 		.4byte	.LBB61
 2818 0f6f CC000000 		.4byte	.LBE61
 2819 0f73 810F0000 		.4byte	0xf81
 2820 0f77 27       		.uleb128 0x27
 2821 0f78 D20D0000 		.4byte	0xdd2
 2822 0f7c 38010000 		.4byte	.LLST10
 2823 0f80 00       		.byte	0x0
 2824 0f81 2F       		.uleb128 0x2f
 2825 0f82 D4000000 		.4byte	.LBB62
 2826 0f86 10010000 		.4byte	.LBE62
 2827 0f8a 27       		.uleb128 0x27
 2828 0f8b 050E0000 		.4byte	0xe05
 2829 0f8f 4B010000 		.4byte	.LLST11
 2830 0f93 2B       		.uleb128 0x2b
 2831 0f94 D4000000 		.4byte	.LBB63
 2832 0f98 DA000000 		.4byte	.LBE63
 2833 0f9c AA0F0000 		.4byte	0xfaa
 2834 0fa0 27       		.uleb128 0x27
ARM GAS  /tmp/cc5EYtpt.s 			page 51


 2835 0fa1 130E0000 		.4byte	0xe13
 2836 0fa5 5E010000 		.4byte	.LLST12
 2837 0fa9 00       		.byte	0x0
 2838 0faa 2F       		.uleb128 0x2f
 2839 0fab EA000000 		.4byte	.LBB64
 2840 0faf F2000000 		.4byte	.LBE64
 2841 0fb3 27       		.uleb128 0x27
 2842 0fb4 200E0000 		.4byte	0xe20
 2843 0fb8 71010000 		.4byte	.LLST13
 2844 0fbc 00       		.byte	0x0
 2845 0fbd 00       		.byte	0x0
 2846 0fbe 00       		.byte	0x0
 2847 0fbf 00       		.byte	0x0
 2848 0fc0 00       		.byte	0x0
 2849 0fc1 30       		.uleb128 0x30
 2850 0fc2 01       		.byte	0x1
 2851 0fc3 5D050000 		.4byte	.LASF232
 2852 0fc7 01       		.byte	0x1
 2853 0fc8 7901     		.2byte	0x179
 2854 0fca 01       		.byte	0x1
 2855 0fcb 00000000 		.4byte	.LFB124
 2856 0fcf 26000000 		.4byte	.LFE124
 2857 0fd3 9A010000 		.4byte	.LLST14
 2858 0fd7 24       		.uleb128 0x24
 2859 0fd8 01       		.byte	0x1
 2860 0fd9 55010000 		.4byte	.LASF224
 2861 0fdd 01       		.byte	0x1
 2862 0fde A401     		.2byte	0x1a4
 2863 0fe0 01       		.byte	0x1
 2864 0fe1 00000000 		.4byte	.LFB125
 2865 0fe5 C6000000 		.4byte	.LFE125
 2866 0fe9 BA010000 		.4byte	.LLST15
 2867 0fed 37100000 		.4byte	0x1037
 2868 0ff1 31       		.uleb128 0x31
 2869 0ff2 73647000 		.ascii	"sdp\000"
 2870 0ff6 01       		.byte	0x1
 2871 0ff7 A401     		.2byte	0x1a4
 2872 0ff9 300D0000 		.4byte	0xd30
 2873 0ffd DA010000 		.4byte	.LLST16
 2874 1001 32       		.uleb128 0x32
 2875 1002 B2000000 		.4byte	.LASF218
 2876 1006 01       		.byte	0x1
 2877 1007 A401     		.2byte	0x1a4
 2878 1009 360D0000 		.4byte	0xd36
 2879 100d F8010000 		.4byte	.LLST17
 2880 1011 25       		.uleb128 0x25
 2881 1012 030D0000 		.4byte	0xd03
 2882 1016 1A000000 		.4byte	.LBB67
 2883 101a 30000000 		.4byte	.Ldebug_ranges0+0x30
 2884 101e 01       		.byte	0x1
 2885 101f D501     		.2byte	0x1d5
 2886 1021 2E       		.uleb128 0x2e
 2887 1022 1B0D0000 		.4byte	0xd1b
 2888 1026 26       		.uleb128 0x26
 2889 1027 48000000 		.4byte	.Ldebug_ranges0+0x48
 2890 102b 27       		.uleb128 0x27
 2891 102c 260D0000 		.4byte	0xd26
ARM GAS  /tmp/cc5EYtpt.s 			page 52


 2892 1030 0B020000 		.4byte	.LLST18
 2893 1034 00       		.byte	0x0
 2894 1035 00       		.byte	0x0
 2895 1036 00       		.byte	0x0
 2896 1037 33       		.uleb128 0x33
 2897 1038 01       		.byte	0x1
 2898 1039 B6090000 		.4byte	.LASF225
 2899 103d 01       		.byte	0x1
 2900 103e E101     		.2byte	0x1e1
 2901 1040 01       		.byte	0x1
 2902 1041 00000000 		.4byte	.LFB126
 2903 1045 34000000 		.4byte	.LFE126
 2904 1049 02       		.byte	0x2
 2905 104a 7D       		.byte	0x7d
 2906 104b 00       		.sleb128 0
 2907 104c 7B100000 		.4byte	0x107b
 2908 1050 31       		.uleb128 0x31
 2909 1051 73647000 		.ascii	"sdp\000"
 2910 1055 01       		.byte	0x1
 2911 1056 E101     		.2byte	0x1e1
 2912 1058 300D0000 		.4byte	0xd30
 2913 105c 20020000 		.4byte	.LLST19
 2914 1060 25       		.uleb128 0x25
 2915 1061 6F0D0000 		.4byte	0xd6f
 2916 1065 12000000 		.4byte	.LBB71
 2917 1069 60000000 		.4byte	.Ldebug_ranges0+0x60
 2918 106d 01       		.byte	0x1
 2919 106e E401     		.2byte	0x1e4
 2920 1070 2D       		.uleb128 0x2d
 2921 1071 7C0D0000 		.4byte	0xd7c
 2922 1075 3E020000 		.4byte	.LLST20
 2923 1079 00       		.byte	0x0
 2924 107a 00       		.byte	0x0
 2925 107b 34       		.uleb128 0x34
 2926 107c 10090000 		.4byte	.LASF226
 2927 1080 0E       		.byte	0xe
 2928 1081 9806     		.2byte	0x698
 2929 1083 04080000 		.4byte	0x804
 2930 1087 01       		.byte	0x1
 2931 1088 01       		.byte	0x1
 2932 1089 35       		.uleb128 0x35
 2933 108a 53443200 		.ascii	"SD2\000"
 2934 108e 0D       		.byte	0xd
 2935 108f 1201     		.2byte	0x112
 2936 1091 930B0000 		.4byte	0xb93
 2937 1095 01       		.byte	0x1
 2938 1096 01       		.byte	0x1
 2939 1097 36       		.uleb128 0x36
 2940 1098 9B010000 		.4byte	.LASF233
 2941 109c 01       		.byte	0x1
 2942 109d 49       		.byte	0x49
 2943 109e 3C0D0000 		.4byte	0xd3c
 2944 10a2 05       		.byte	0x5
 2945 10a3 03       		.byte	0x3
 2946 10a4 00000000 		.4byte	default_config
 2947 10a8 34       		.uleb128 0x34
 2948 10a9 10090000 		.4byte	.LASF226
ARM GAS  /tmp/cc5EYtpt.s 			page 53


 2949 10ad 0E       		.byte	0xe
 2950 10ae 9806     		.2byte	0x698
 2951 10b0 04080000 		.4byte	0x804
 2952 10b4 01       		.byte	0x1
 2953 10b5 01       		.byte	0x1
 2954 10b6 37       		.uleb128 0x37
 2955 10b7 53443200 		.ascii	"SD2\000"
 2956 10bb 01       		.byte	0x1
 2957 10bc 2D       		.byte	0x2d
 2958 10bd 930B0000 		.4byte	0xb93
 2959 10c1 01       		.byte	0x1
 2960 10c2 05       		.byte	0x5
 2961 10c3 03       		.byte	0x3
 2962 10c4 00000000 		.4byte	SD2
 2963 10c8 00       		.byte	0x0
 2964              		.section	.debug_abbrev
 2965 0000 01       		.uleb128 0x1
 2966 0001 11       		.uleb128 0x11
 2967 0002 01       		.byte	0x1
 2968 0003 25       		.uleb128 0x25
 2969 0004 0E       		.uleb128 0xe
 2970 0005 13       		.uleb128 0x13
 2971 0006 0B       		.uleb128 0xb
 2972 0007 03       		.uleb128 0x3
 2973 0008 0E       		.uleb128 0xe
 2974 0009 1B       		.uleb128 0x1b
 2975 000a 0E       		.uleb128 0xe
 2976 000b 11       		.uleb128 0x11
 2977 000c 01       		.uleb128 0x1
 2978 000d 52       		.uleb128 0x52
 2979 000e 01       		.uleb128 0x1
 2980 000f 55       		.uleb128 0x55
 2981 0010 06       		.uleb128 0x6
 2982 0011 10       		.uleb128 0x10
 2983 0012 06       		.uleb128 0x6
 2984 0013 00       		.byte	0x0
 2985 0014 00       		.byte	0x0
 2986 0015 02       		.uleb128 0x2
 2987 0016 24       		.uleb128 0x24
 2988 0017 00       		.byte	0x0
 2989 0018 0B       		.uleb128 0xb
 2990 0019 0B       		.uleb128 0xb
 2991 001a 3E       		.uleb128 0x3e
 2992 001b 0B       		.uleb128 0xb
 2993 001c 03       		.uleb128 0x3
 2994 001d 08       		.uleb128 0x8
 2995 001e 00       		.byte	0x0
 2996 001f 00       		.byte	0x0
 2997 0020 03       		.uleb128 0x3
 2998 0021 16       		.uleb128 0x16
 2999 0022 00       		.byte	0x0
 3000 0023 03       		.uleb128 0x3
 3001 0024 0E       		.uleb128 0xe
 3002 0025 3A       		.uleb128 0x3a
 3003 0026 0B       		.uleb128 0xb
 3004 0027 3B       		.uleb128 0x3b
 3005 0028 0B       		.uleb128 0xb
ARM GAS  /tmp/cc5EYtpt.s 			page 54


 3006 0029 49       		.uleb128 0x49
 3007 002a 13       		.uleb128 0x13
 3008 002b 00       		.byte	0x0
 3009 002c 00       		.byte	0x0
 3010 002d 04       		.uleb128 0x4
 3011 002e 24       		.uleb128 0x24
 3012 002f 00       		.byte	0x0
 3013 0030 0B       		.uleb128 0xb
 3014 0031 0B       		.uleb128 0xb
 3015 0032 3E       		.uleb128 0x3e
 3016 0033 0B       		.uleb128 0xb
 3017 0034 03       		.uleb128 0x3
 3018 0035 0E       		.uleb128 0xe
 3019 0036 00       		.byte	0x0
 3020 0037 00       		.byte	0x0
 3021 0038 05       		.uleb128 0x5
 3022 0039 13       		.uleb128 0x13
 3023 003a 01       		.byte	0x1
 3024 003b 03       		.uleb128 0x3
 3025 003c 0E       		.uleb128 0xe
 3026 003d 0B       		.uleb128 0xb
 3027 003e 0B       		.uleb128 0xb
 3028 003f 3A       		.uleb128 0x3a
 3029 0040 0B       		.uleb128 0xb
 3030 0041 3B       		.uleb128 0x3b
 3031 0042 0B       		.uleb128 0xb
 3032 0043 01       		.uleb128 0x1
 3033 0044 13       		.uleb128 0x13
 3034 0045 00       		.byte	0x0
 3035 0046 00       		.byte	0x0
 3036 0047 06       		.uleb128 0x6
 3037 0048 0D       		.uleb128 0xd
 3038 0049 00       		.byte	0x0
 3039 004a 03       		.uleb128 0x3
 3040 004b 0E       		.uleb128 0xe
 3041 004c 3A       		.uleb128 0x3a
 3042 004d 0B       		.uleb128 0xb
 3043 004e 3B       		.uleb128 0x3b
 3044 004f 0B       		.uleb128 0xb
 3045 0050 49       		.uleb128 0x49
 3046 0051 13       		.uleb128 0x13
 3047 0052 38       		.uleb128 0x38
 3048 0053 0A       		.uleb128 0xa
 3049 0054 00       		.byte	0x0
 3050 0055 00       		.byte	0x0
 3051 0056 07       		.uleb128 0x7
 3052 0057 0D       		.uleb128 0xd
 3053 0058 00       		.byte	0x0
 3054 0059 03       		.uleb128 0x3
 3055 005a 08       		.uleb128 0x8
 3056 005b 3A       		.uleb128 0x3a
 3057 005c 0B       		.uleb128 0xb
 3058 005d 3B       		.uleb128 0x3b
 3059 005e 0B       		.uleb128 0xb
 3060 005f 49       		.uleb128 0x49
 3061 0060 13       		.uleb128 0x13
 3062 0061 38       		.uleb128 0x38
ARM GAS  /tmp/cc5EYtpt.s 			page 55


 3063 0062 0A       		.uleb128 0xa
 3064 0063 00       		.byte	0x0
 3065 0064 00       		.byte	0x0
 3066 0065 08       		.uleb128 0x8
 3067 0066 13       		.uleb128 0x13
 3068 0067 01       		.byte	0x1
 3069 0068 0B       		.uleb128 0xb
 3070 0069 0B       		.uleb128 0xb
 3071 006a 3A       		.uleb128 0x3a
 3072 006b 0B       		.uleb128 0xb
 3073 006c 3B       		.uleb128 0x3b
 3074 006d 0B       		.uleb128 0xb
 3075 006e 01       		.uleb128 0x1
 3076 006f 13       		.uleb128 0x13
 3077 0070 00       		.byte	0x0
 3078 0071 00       		.byte	0x0
 3079 0072 09       		.uleb128 0x9
 3080 0073 0F       		.uleb128 0xf
 3081 0074 00       		.byte	0x0
 3082 0075 0B       		.uleb128 0xb
 3083 0076 0B       		.uleb128 0xb
 3084 0077 49       		.uleb128 0x49
 3085 0078 13       		.uleb128 0x13
 3086 0079 00       		.byte	0x0
 3087 007a 00       		.byte	0x0
 3088 007b 0A       		.uleb128 0xa
 3089 007c 0F       		.uleb128 0xf
 3090 007d 00       		.byte	0x0
 3091 007e 0B       		.uleb128 0xb
 3092 007f 0B       		.uleb128 0xb
 3093 0080 00       		.byte	0x0
 3094 0081 00       		.byte	0x0
 3095 0082 0B       		.uleb128 0xb
 3096 0083 13       		.uleb128 0x13
 3097 0084 01       		.byte	0x1
 3098 0085 03       		.uleb128 0x3
 3099 0086 0E       		.uleb128 0xe
 3100 0087 0B       		.uleb128 0xb
 3101 0088 0B       		.uleb128 0xb
 3102 0089 3A       		.uleb128 0x3a
 3103 008a 0B       		.uleb128 0xb
 3104 008b 3B       		.uleb128 0x3b
 3105 008c 05       		.uleb128 0x5
 3106 008d 01       		.uleb128 0x1
 3107 008e 13       		.uleb128 0x13
 3108 008f 00       		.byte	0x0
 3109 0090 00       		.byte	0x0
 3110 0091 0C       		.uleb128 0xc
 3111 0092 0D       		.uleb128 0xd
 3112 0093 00       		.byte	0x0
 3113 0094 03       		.uleb128 0x3
 3114 0095 08       		.uleb128 0x8
 3115 0096 3A       		.uleb128 0x3a
 3116 0097 0B       		.uleb128 0xb
 3117 0098 3B       		.uleb128 0x3b
 3118 0099 05       		.uleb128 0x5
 3119 009a 49       		.uleb128 0x49
ARM GAS  /tmp/cc5EYtpt.s 			page 56


 3120 009b 13       		.uleb128 0x13
 3121 009c 38       		.uleb128 0x38
 3122 009d 0A       		.uleb128 0xa
 3123 009e 00       		.byte	0x0
 3124 009f 00       		.byte	0x0
 3125 00a0 0D       		.uleb128 0xd
 3126 00a1 35       		.uleb128 0x35
 3127 00a2 00       		.byte	0x0
 3128 00a3 49       		.uleb128 0x49
 3129 00a4 13       		.uleb128 0x13
 3130 00a5 00       		.byte	0x0
 3131 00a6 00       		.byte	0x0
 3132 00a7 0E       		.uleb128 0xe
 3133 00a8 17       		.uleb128 0x17
 3134 00a9 01       		.byte	0x1
 3135 00aa 0B       		.uleb128 0xb
 3136 00ab 0B       		.uleb128 0xb
 3137 00ac 3A       		.uleb128 0x3a
 3138 00ad 0B       		.uleb128 0xb
 3139 00ae 3B       		.uleb128 0x3b
 3140 00af 0B       		.uleb128 0xb
 3141 00b0 01       		.uleb128 0x1
 3142 00b1 13       		.uleb128 0x13
 3143 00b2 00       		.byte	0x0
 3144 00b3 00       		.byte	0x0
 3145 00b4 0F       		.uleb128 0xf
 3146 00b5 0D       		.uleb128 0xd
 3147 00b6 00       		.byte	0x0
 3148 00b7 03       		.uleb128 0x3
 3149 00b8 0E       		.uleb128 0xe
 3150 00b9 3A       		.uleb128 0x3a
 3151 00ba 0B       		.uleb128 0xb
 3152 00bb 3B       		.uleb128 0x3b
 3153 00bc 0B       		.uleb128 0xb
 3154 00bd 49       		.uleb128 0x49
 3155 00be 13       		.uleb128 0x13
 3156 00bf 00       		.byte	0x0
 3157 00c0 00       		.byte	0x0
 3158 00c1 10       		.uleb128 0x10
 3159 00c2 26       		.uleb128 0x26
 3160 00c3 00       		.byte	0x0
 3161 00c4 49       		.uleb128 0x49
 3162 00c5 13       		.uleb128 0x13
 3163 00c6 00       		.byte	0x0
 3164 00c7 00       		.byte	0x0
 3165 00c8 11       		.uleb128 0x11
 3166 00c9 15       		.uleb128 0x15
 3167 00ca 01       		.byte	0x1
 3168 00cb 27       		.uleb128 0x27
 3169 00cc 0C       		.uleb128 0xc
 3170 00cd 49       		.uleb128 0x49
 3171 00ce 13       		.uleb128 0x13
 3172 00cf 01       		.uleb128 0x1
 3173 00d0 13       		.uleb128 0x13
 3174 00d1 00       		.byte	0x0
 3175 00d2 00       		.byte	0x0
 3176 00d3 12       		.uleb128 0x12
ARM GAS  /tmp/cc5EYtpt.s 			page 57


 3177 00d4 05       		.uleb128 0x5
 3178 00d5 00       		.byte	0x0
 3179 00d6 49       		.uleb128 0x49
 3180 00d7 13       		.uleb128 0x13
 3181 00d8 00       		.byte	0x0
 3182 00d9 00       		.byte	0x0
 3183 00da 13       		.uleb128 0x13
 3184 00db 15       		.uleb128 0x15
 3185 00dc 01       		.byte	0x1
 3186 00dd 27       		.uleb128 0x27
 3187 00de 0C       		.uleb128 0xc
 3188 00df 01       		.uleb128 0x1
 3189 00e0 13       		.uleb128 0x13
 3190 00e1 00       		.byte	0x0
 3191 00e2 00       		.byte	0x0
 3192 00e3 14       		.uleb128 0x14
 3193 00e4 04       		.uleb128 0x4
 3194 00e5 01       		.byte	0x1
 3195 00e6 03       		.uleb128 0x3
 3196 00e7 0E       		.uleb128 0xe
 3197 00e8 0B       		.uleb128 0xb
 3198 00e9 0B       		.uleb128 0xb
 3199 00ea 3A       		.uleb128 0x3a
 3200 00eb 0B       		.uleb128 0xb
 3201 00ec 3B       		.uleb128 0x3b
 3202 00ed 0B       		.uleb128 0xb
 3203 00ee 01       		.uleb128 0x1
 3204 00ef 13       		.uleb128 0x13
 3205 00f0 00       		.byte	0x0
 3206 00f1 00       		.byte	0x0
 3207 00f2 15       		.uleb128 0x15
 3208 00f3 28       		.uleb128 0x28
 3209 00f4 00       		.byte	0x0
 3210 00f5 03       		.uleb128 0x3
 3211 00f6 0E       		.uleb128 0xe
 3212 00f7 1C       		.uleb128 0x1c
 3213 00f8 0D       		.uleb128 0xd
 3214 00f9 00       		.byte	0x0
 3215 00fa 00       		.byte	0x0
 3216 00fb 16       		.uleb128 0x16
 3217 00fc 01       		.uleb128 0x1
 3218 00fd 01       		.byte	0x1
 3219 00fe 49       		.uleb128 0x49
 3220 00ff 13       		.uleb128 0x13
 3221 0100 01       		.uleb128 0x1
 3222 0101 13       		.uleb128 0x13
 3223 0102 00       		.byte	0x0
 3224 0103 00       		.byte	0x0
 3225 0104 17       		.uleb128 0x17
 3226 0105 21       		.uleb128 0x21
 3227 0106 00       		.byte	0x0
 3228 0107 49       		.uleb128 0x49
 3229 0108 13       		.uleb128 0x13
 3230 0109 2F       		.uleb128 0x2f
 3231 010a 0B       		.uleb128 0xb
 3232 010b 00       		.byte	0x0
 3233 010c 00       		.byte	0x0
ARM GAS  /tmp/cc5EYtpt.s 			page 58


 3234 010d 18       		.uleb128 0x18
 3235 010e 13       		.uleb128 0x13
 3236 010f 01       		.byte	0x1
 3237 0110 0B       		.uleb128 0xb
 3238 0111 0B       		.uleb128 0xb
 3239 0112 3A       		.uleb128 0x3a
 3240 0113 0B       		.uleb128 0xb
 3241 0114 3B       		.uleb128 0x3b
 3242 0115 05       		.uleb128 0x5
 3243 0116 01       		.uleb128 0x1
 3244 0117 13       		.uleb128 0x13
 3245 0118 00       		.byte	0x0
 3246 0119 00       		.byte	0x0
 3247 011a 19       		.uleb128 0x19
 3248 011b 0D       		.uleb128 0xd
 3249 011c 00       		.byte	0x0
 3250 011d 03       		.uleb128 0x3
 3251 011e 0E       		.uleb128 0xe
 3252 011f 3A       		.uleb128 0x3a
 3253 0120 0B       		.uleb128 0xb
 3254 0121 3B       		.uleb128 0x3b
 3255 0122 05       		.uleb128 0x5
 3256 0123 49       		.uleb128 0x49
 3257 0124 13       		.uleb128 0x13
 3258 0125 38       		.uleb128 0x38
 3259 0126 0A       		.uleb128 0xa
 3260 0127 00       		.byte	0x0
 3261 0128 00       		.byte	0x0
 3262 0129 1A       		.uleb128 0x1a
 3263 012a 16       		.uleb128 0x16
 3264 012b 00       		.byte	0x0
 3265 012c 03       		.uleb128 0x3
 3266 012d 0E       		.uleb128 0xe
 3267 012e 3A       		.uleb128 0x3a
 3268 012f 0B       		.uleb128 0xb
 3269 0130 3B       		.uleb128 0x3b
 3270 0131 05       		.uleb128 0x5
 3271 0132 49       		.uleb128 0x49
 3272 0133 13       		.uleb128 0x13
 3273 0134 00       		.byte	0x0
 3274 0135 00       		.byte	0x0
 3275 0136 1B       		.uleb128 0x1b
 3276 0137 04       		.uleb128 0x4
 3277 0138 01       		.byte	0x1
 3278 0139 0B       		.uleb128 0xb
 3279 013a 0B       		.uleb128 0xb
 3280 013b 3A       		.uleb128 0x3a
 3281 013c 0B       		.uleb128 0xb
 3282 013d 3B       		.uleb128 0x3b
 3283 013e 0B       		.uleb128 0xb
 3284 013f 01       		.uleb128 0x1
 3285 0140 13       		.uleb128 0x13
 3286 0141 00       		.byte	0x0
 3287 0142 00       		.byte	0x0
 3288 0143 1C       		.uleb128 0x1c
 3289 0144 2E       		.uleb128 0x2e
 3290 0145 01       		.byte	0x1
ARM GAS  /tmp/cc5EYtpt.s 			page 59


 3291 0146 03       		.uleb128 0x3
 3292 0147 0E       		.uleb128 0xe
 3293 0148 3A       		.uleb128 0x3a
 3294 0149 0B       		.uleb128 0xb
 3295 014a 3B       		.uleb128 0x3b
 3296 014b 0B       		.uleb128 0xb
 3297 014c 27       		.uleb128 0x27
 3298 014d 0C       		.uleb128 0xc
 3299 014e 20       		.uleb128 0x20
 3300 014f 0B       		.uleb128 0xb
 3301 0150 01       		.uleb128 0x1
 3302 0151 13       		.uleb128 0x13
 3303 0152 00       		.byte	0x0
 3304 0153 00       		.byte	0x0
 3305 0154 1D       		.uleb128 0x1d
 3306 0155 05       		.uleb128 0x5
 3307 0156 00       		.byte	0x0
 3308 0157 03       		.uleb128 0x3
 3309 0158 08       		.uleb128 0x8
 3310 0159 3A       		.uleb128 0x3a
 3311 015a 0B       		.uleb128 0xb
 3312 015b 3B       		.uleb128 0x3b
 3313 015c 0B       		.uleb128 0xb
 3314 015d 49       		.uleb128 0x49
 3315 015e 13       		.uleb128 0x13
 3316 015f 00       		.byte	0x0
 3317 0160 00       		.byte	0x0
 3318 0161 1E       		.uleb128 0x1e
 3319 0162 05       		.uleb128 0x5
 3320 0163 00       		.byte	0x0
 3321 0164 03       		.uleb128 0x3
 3322 0165 0E       		.uleb128 0xe
 3323 0166 3A       		.uleb128 0x3a
 3324 0167 0B       		.uleb128 0xb
 3325 0168 3B       		.uleb128 0x3b
 3326 0169 0B       		.uleb128 0xb
 3327 016a 49       		.uleb128 0x49
 3328 016b 13       		.uleb128 0x13
 3329 016c 00       		.byte	0x0
 3330 016d 00       		.byte	0x0
 3331 016e 1F       		.uleb128 0x1f
 3332 016f 34       		.uleb128 0x34
 3333 0170 00       		.byte	0x0
 3334 0171 03       		.uleb128 0x3
 3335 0172 08       		.uleb128 0x8
 3336 0173 3A       		.uleb128 0x3a
 3337 0174 0B       		.uleb128 0xb
 3338 0175 3B       		.uleb128 0x3b
 3339 0176 0B       		.uleb128 0xb
 3340 0177 49       		.uleb128 0x49
 3341 0178 13       		.uleb128 0x13
 3342 0179 00       		.byte	0x0
 3343 017a 00       		.byte	0x0
 3344 017b 20       		.uleb128 0x20
 3345 017c 0B       		.uleb128 0xb
 3346 017d 01       		.byte	0x1
 3347 017e 01       		.uleb128 0x1
ARM GAS  /tmp/cc5EYtpt.s 			page 60


 3348 017f 13       		.uleb128 0x13
 3349 0180 00       		.byte	0x0
 3350 0181 00       		.byte	0x0
 3351 0182 21       		.uleb128 0x21
 3352 0183 0B       		.uleb128 0xb
 3353 0184 01       		.byte	0x1
 3354 0185 00       		.byte	0x0
 3355 0186 00       		.byte	0x0
 3356 0187 22       		.uleb128 0x22
 3357 0188 2E       		.uleb128 0x2e
 3358 0189 01       		.byte	0x1
 3359 018a 03       		.uleb128 0x3
 3360 018b 0E       		.uleb128 0xe
 3361 018c 3A       		.uleb128 0x3a
 3362 018d 0B       		.uleb128 0xb
 3363 018e 3B       		.uleb128 0x3b
 3364 018f 0B       		.uleb128 0xb
 3365 0190 27       		.uleb128 0x27
 3366 0191 0C       		.uleb128 0xc
 3367 0192 11       		.uleb128 0x11
 3368 0193 01       		.uleb128 0x1
 3369 0194 12       		.uleb128 0x12
 3370 0195 01       		.uleb128 0x1
 3371 0196 40       		.uleb128 0x40
 3372 0197 0A       		.uleb128 0xa
 3373 0198 01       		.uleb128 0x1
 3374 0199 13       		.uleb128 0x13
 3375 019a 00       		.byte	0x0
 3376 019b 00       		.byte	0x0
 3377 019c 23       		.uleb128 0x23
 3378 019d 05       		.uleb128 0x5
 3379 019e 00       		.byte	0x0
 3380 019f 03       		.uleb128 0x3
 3381 01a0 08       		.uleb128 0x8
 3382 01a1 3A       		.uleb128 0x3a
 3383 01a2 0B       		.uleb128 0xb
 3384 01a3 3B       		.uleb128 0x3b
 3385 01a4 0B       		.uleb128 0xb
 3386 01a5 49       		.uleb128 0x49
 3387 01a6 13       		.uleb128 0x13
 3388 01a7 02       		.uleb128 0x2
 3389 01a8 06       		.uleb128 0x6
 3390 01a9 00       		.byte	0x0
 3391 01aa 00       		.byte	0x0
 3392 01ab 24       		.uleb128 0x24
 3393 01ac 2E       		.uleb128 0x2e
 3394 01ad 01       		.byte	0x1
 3395 01ae 3F       		.uleb128 0x3f
 3396 01af 0C       		.uleb128 0xc
 3397 01b0 03       		.uleb128 0x3
 3398 01b1 0E       		.uleb128 0xe
 3399 01b2 3A       		.uleb128 0x3a
 3400 01b3 0B       		.uleb128 0xb
 3401 01b4 3B       		.uleb128 0x3b
 3402 01b5 05       		.uleb128 0x5
 3403 01b6 27       		.uleb128 0x27
 3404 01b7 0C       		.uleb128 0xc
ARM GAS  /tmp/cc5EYtpt.s 			page 61


 3405 01b8 11       		.uleb128 0x11
 3406 01b9 01       		.uleb128 0x1
 3407 01ba 12       		.uleb128 0x12
 3408 01bb 01       		.uleb128 0x1
 3409 01bc 40       		.uleb128 0x40
 3410 01bd 06       		.uleb128 0x6
 3411 01be 01       		.uleb128 0x1
 3412 01bf 13       		.uleb128 0x13
 3413 01c0 00       		.byte	0x0
 3414 01c1 00       		.byte	0x0
 3415 01c2 25       		.uleb128 0x25
 3416 01c3 1D       		.uleb128 0x1d
 3417 01c4 01       		.byte	0x1
 3418 01c5 31       		.uleb128 0x31
 3419 01c6 13       		.uleb128 0x13
 3420 01c7 52       		.uleb128 0x52
 3421 01c8 01       		.uleb128 0x1
 3422 01c9 55       		.uleb128 0x55
 3423 01ca 06       		.uleb128 0x6
 3424 01cb 58       		.uleb128 0x58
 3425 01cc 0B       		.uleb128 0xb
 3426 01cd 59       		.uleb128 0x59
 3427 01ce 05       		.uleb128 0x5
 3428 01cf 00       		.byte	0x0
 3429 01d0 00       		.byte	0x0
 3430 01d1 26       		.uleb128 0x26
 3431 01d2 0B       		.uleb128 0xb
 3432 01d3 01       		.byte	0x1
 3433 01d4 55       		.uleb128 0x55
 3434 01d5 06       		.uleb128 0x6
 3435 01d6 00       		.byte	0x0
 3436 01d7 00       		.byte	0x0
 3437 01d8 27       		.uleb128 0x27
 3438 01d9 34       		.uleb128 0x34
 3439 01da 00       		.byte	0x0
 3440 01db 31       		.uleb128 0x31
 3441 01dc 13       		.uleb128 0x13
 3442 01dd 02       		.uleb128 0x2
 3443 01de 06       		.uleb128 0x6
 3444 01df 00       		.byte	0x0
 3445 01e0 00       		.byte	0x0
 3446 01e1 28       		.uleb128 0x28
 3447 01e2 34       		.uleb128 0x34
 3448 01e3 00       		.byte	0x0
 3449 01e4 31       		.uleb128 0x31
 3450 01e5 13       		.uleb128 0x13
 3451 01e6 02       		.uleb128 0x2
 3452 01e7 0A       		.uleb128 0xa
 3453 01e8 00       		.byte	0x0
 3454 01e9 00       		.byte	0x0
 3455 01ea 29       		.uleb128 0x29
 3456 01eb 34       		.uleb128 0x34
 3457 01ec 00       		.byte	0x0
 3458 01ed 31       		.uleb128 0x31
 3459 01ee 13       		.uleb128 0x13
 3460 01ef 00       		.byte	0x0
 3461 01f0 00       		.byte	0x0
ARM GAS  /tmp/cc5EYtpt.s 			page 62


 3462 01f1 2A       		.uleb128 0x2a
 3463 01f2 05       		.uleb128 0x5
 3464 01f3 00       		.byte	0x0
 3465 01f4 31       		.uleb128 0x31
 3466 01f5 13       		.uleb128 0x13
 3467 01f6 02       		.uleb128 0x2
 3468 01f7 0A       		.uleb128 0xa
 3469 01f8 00       		.byte	0x0
 3470 01f9 00       		.byte	0x0
 3471 01fa 2B       		.uleb128 0x2b
 3472 01fb 0B       		.uleb128 0xb
 3473 01fc 01       		.byte	0x1
 3474 01fd 11       		.uleb128 0x11
 3475 01fe 01       		.uleb128 0x1
 3476 01ff 12       		.uleb128 0x12
 3477 0200 01       		.uleb128 0x1
 3478 0201 01       		.uleb128 0x1
 3479 0202 13       		.uleb128 0x13
 3480 0203 00       		.byte	0x0
 3481 0204 00       		.byte	0x0
 3482 0205 2C       		.uleb128 0x2c
 3483 0206 1D       		.uleb128 0x1d
 3484 0207 01       		.byte	0x1
 3485 0208 31       		.uleb128 0x31
 3486 0209 13       		.uleb128 0x13
 3487 020a 11       		.uleb128 0x11
 3488 020b 01       		.uleb128 0x1
 3489 020c 12       		.uleb128 0x12
 3490 020d 01       		.uleb128 0x1
 3491 020e 58       		.uleb128 0x58
 3492 020f 0B       		.uleb128 0xb
 3493 0210 59       		.uleb128 0x59
 3494 0211 0B       		.uleb128 0xb
 3495 0212 01       		.uleb128 0x1
 3496 0213 13       		.uleb128 0x13
 3497 0214 00       		.byte	0x0
 3498 0215 00       		.byte	0x0
 3499 0216 2D       		.uleb128 0x2d
 3500 0217 05       		.uleb128 0x5
 3501 0218 00       		.byte	0x0
 3502 0219 31       		.uleb128 0x31
 3503 021a 13       		.uleb128 0x13
 3504 021b 02       		.uleb128 0x2
 3505 021c 06       		.uleb128 0x6
 3506 021d 00       		.byte	0x0
 3507 021e 00       		.byte	0x0
 3508 021f 2E       		.uleb128 0x2e
 3509 0220 05       		.uleb128 0x5
 3510 0221 00       		.byte	0x0
 3511 0222 31       		.uleb128 0x31
 3512 0223 13       		.uleb128 0x13
 3513 0224 00       		.byte	0x0
 3514 0225 00       		.byte	0x0
 3515 0226 2F       		.uleb128 0x2f
 3516 0227 0B       		.uleb128 0xb
 3517 0228 01       		.byte	0x1
 3518 0229 11       		.uleb128 0x11
ARM GAS  /tmp/cc5EYtpt.s 			page 63


 3519 022a 01       		.uleb128 0x1
 3520 022b 12       		.uleb128 0x12
 3521 022c 01       		.uleb128 0x1
 3522 022d 00       		.byte	0x0
 3523 022e 00       		.byte	0x0
 3524 022f 30       		.uleb128 0x30
 3525 0230 2E       		.uleb128 0x2e
 3526 0231 00       		.byte	0x0
 3527 0232 3F       		.uleb128 0x3f
 3528 0233 0C       		.uleb128 0xc
 3529 0234 03       		.uleb128 0x3
 3530 0235 0E       		.uleb128 0xe
 3531 0236 3A       		.uleb128 0x3a
 3532 0237 0B       		.uleb128 0xb
 3533 0238 3B       		.uleb128 0x3b
 3534 0239 05       		.uleb128 0x5
 3535 023a 27       		.uleb128 0x27
 3536 023b 0C       		.uleb128 0xc
 3537 023c 11       		.uleb128 0x11
 3538 023d 01       		.uleb128 0x1
 3539 023e 12       		.uleb128 0x12
 3540 023f 01       		.uleb128 0x1
 3541 0240 40       		.uleb128 0x40
 3542 0241 06       		.uleb128 0x6
 3543 0242 00       		.byte	0x0
 3544 0243 00       		.byte	0x0
 3545 0244 31       		.uleb128 0x31
 3546 0245 05       		.uleb128 0x5
 3547 0246 00       		.byte	0x0
 3548 0247 03       		.uleb128 0x3
 3549 0248 08       		.uleb128 0x8
 3550 0249 3A       		.uleb128 0x3a
 3551 024a 0B       		.uleb128 0xb
 3552 024b 3B       		.uleb128 0x3b
 3553 024c 05       		.uleb128 0x5
 3554 024d 49       		.uleb128 0x49
 3555 024e 13       		.uleb128 0x13
 3556 024f 02       		.uleb128 0x2
 3557 0250 06       		.uleb128 0x6
 3558 0251 00       		.byte	0x0
 3559 0252 00       		.byte	0x0
 3560 0253 32       		.uleb128 0x32
 3561 0254 05       		.uleb128 0x5
 3562 0255 00       		.byte	0x0
 3563 0256 03       		.uleb128 0x3
 3564 0257 0E       		.uleb128 0xe
 3565 0258 3A       		.uleb128 0x3a
 3566 0259 0B       		.uleb128 0xb
 3567 025a 3B       		.uleb128 0x3b
 3568 025b 05       		.uleb128 0x5
 3569 025c 49       		.uleb128 0x49
 3570 025d 13       		.uleb128 0x13
 3571 025e 02       		.uleb128 0x2
 3572 025f 06       		.uleb128 0x6
 3573 0260 00       		.byte	0x0
 3574 0261 00       		.byte	0x0
 3575 0262 33       		.uleb128 0x33
ARM GAS  /tmp/cc5EYtpt.s 			page 64


 3576 0263 2E       		.uleb128 0x2e
 3577 0264 01       		.byte	0x1
 3578 0265 3F       		.uleb128 0x3f
 3579 0266 0C       		.uleb128 0xc
 3580 0267 03       		.uleb128 0x3
 3581 0268 0E       		.uleb128 0xe
 3582 0269 3A       		.uleb128 0x3a
 3583 026a 0B       		.uleb128 0xb
 3584 026b 3B       		.uleb128 0x3b
 3585 026c 05       		.uleb128 0x5
 3586 026d 27       		.uleb128 0x27
 3587 026e 0C       		.uleb128 0xc
 3588 026f 11       		.uleb128 0x11
 3589 0270 01       		.uleb128 0x1
 3590 0271 12       		.uleb128 0x12
 3591 0272 01       		.uleb128 0x1
 3592 0273 40       		.uleb128 0x40
 3593 0274 0A       		.uleb128 0xa
 3594 0275 01       		.uleb128 0x1
 3595 0276 13       		.uleb128 0x13
 3596 0277 00       		.byte	0x0
 3597 0278 00       		.byte	0x0
 3598 0279 34       		.uleb128 0x34
 3599 027a 34       		.uleb128 0x34
 3600 027b 00       		.byte	0x0
 3601 027c 03       		.uleb128 0x3
 3602 027d 0E       		.uleb128 0xe
 3603 027e 3A       		.uleb128 0x3a
 3604 027f 0B       		.uleb128 0xb
 3605 0280 3B       		.uleb128 0x3b
 3606 0281 05       		.uleb128 0x5
 3607 0282 49       		.uleb128 0x49
 3608 0283 13       		.uleb128 0x13
 3609 0284 3F       		.uleb128 0x3f
 3610 0285 0C       		.uleb128 0xc
 3611 0286 3C       		.uleb128 0x3c
 3612 0287 0C       		.uleb128 0xc
 3613 0288 00       		.byte	0x0
 3614 0289 00       		.byte	0x0
 3615 028a 35       		.uleb128 0x35
 3616 028b 34       		.uleb128 0x34
 3617 028c 00       		.byte	0x0
 3618 028d 03       		.uleb128 0x3
 3619 028e 08       		.uleb128 0x8
 3620 028f 3A       		.uleb128 0x3a
 3621 0290 0B       		.uleb128 0xb
 3622 0291 3B       		.uleb128 0x3b
 3623 0292 05       		.uleb128 0x5
 3624 0293 49       		.uleb128 0x49
 3625 0294 13       		.uleb128 0x13
 3626 0295 3F       		.uleb128 0x3f
 3627 0296 0C       		.uleb128 0xc
 3628 0297 3C       		.uleb128 0x3c
 3629 0298 0C       		.uleb128 0xc
 3630 0299 00       		.byte	0x0
 3631 029a 00       		.byte	0x0
 3632 029b 36       		.uleb128 0x36
ARM GAS  /tmp/cc5EYtpt.s 			page 65


 3633 029c 34       		.uleb128 0x34
 3634 029d 00       		.byte	0x0
 3635 029e 03       		.uleb128 0x3
 3636 029f 0E       		.uleb128 0xe
 3637 02a0 3A       		.uleb128 0x3a
 3638 02a1 0B       		.uleb128 0xb
 3639 02a2 3B       		.uleb128 0x3b
 3640 02a3 0B       		.uleb128 0xb
 3641 02a4 49       		.uleb128 0x49
 3642 02a5 13       		.uleb128 0x13
 3643 02a6 02       		.uleb128 0x2
 3644 02a7 0A       		.uleb128 0xa
 3645 02a8 00       		.byte	0x0
 3646 02a9 00       		.byte	0x0
 3647 02aa 37       		.uleb128 0x37
 3648 02ab 34       		.uleb128 0x34
 3649 02ac 00       		.byte	0x0
 3650 02ad 03       		.uleb128 0x3
 3651 02ae 08       		.uleb128 0x8
 3652 02af 3A       		.uleb128 0x3a
 3653 02b0 0B       		.uleb128 0xb
 3654 02b1 3B       		.uleb128 0x3b
 3655 02b2 0B       		.uleb128 0xb
 3656 02b3 49       		.uleb128 0x49
 3657 02b4 13       		.uleb128 0x13
 3658 02b5 3F       		.uleb128 0x3f
 3659 02b6 0C       		.uleb128 0xc
 3660 02b7 02       		.uleb128 0x2
 3661 02b8 0A       		.uleb128 0xa
 3662 02b9 00       		.byte	0x0
 3663 02ba 00       		.byte	0x0
 3664 02bb 00       		.byte	0x0
 3665              		.section	.debug_pubnames,"",%progbits
 3666 0000 54000000 		.4byte	0x54
 3667 0004 0200     		.2byte	0x2
 3668 0006 00000000 		.4byte	.Ldebug_info0
 3669 000a C9100000 		.4byte	0x10c9
 3670 000e 720E0000 		.4byte	0xe72
 3671 0012 56656374 		.ascii	"VectorD8\000"
 3671      6F724438 
 3671      00
 3672 001b C10F0000 		.4byte	0xfc1
 3673 001f 73645F6C 		.ascii	"sd_lld_init\000"
 3673      6C645F69 
 3673      6E697400 
 3674 002b D70F0000 		.4byte	0xfd7
 3675 002f 73645F6C 		.ascii	"sd_lld_start\000"
 3675      6C645F73 
 3675      74617274 
 3675      00
 3676 003c 37100000 		.4byte	0x1037
 3677 0040 73645F6C 		.ascii	"sd_lld_stop\000"
 3677      6C645F73 
 3677      746F7000 
 3678 004c B6100000 		.4byte	0x10b6
 3679 0050 53443200 		.ascii	"SD2\000"
 3680 0054 00000000 		.4byte	0x0
ARM GAS  /tmp/cc5EYtpt.s 			page 66


 3681              		.section	.debug_pubtypes,"",%progbits
 3682 0000 44020000 		.4byte	0x244
 3683 0004 0200     		.2byte	0x2
 3684 0006 00000000 		.4byte	.Ldebug_info0
 3685 000a C9100000 		.4byte	0x10c9
 3686 000e 30000000 		.4byte	0x30
 3687 0012 73697A65 		.ascii	"size_t\000"
 3687      5F7400
 3688 0019 49000000 		.4byte	0x49
 3689 001d 75696E74 		.ascii	"uint8_t\000"
 3689      385F7400 
 3690 0025 62000000 		.4byte	0x62
 3691 0029 75696E74 		.ascii	"uint16_t\000"
 3691      31365F74 
 3691      00
 3692 0032 74000000 		.4byte	0x74
 3693 0036 696E7433 		.ascii	"int32_t\000"
 3693      325F7400 
 3694 003e 86000000 		.4byte	0x86
 3695 0042 75696E74 		.ascii	"uint32_t\000"
 3695      33325F74 
 3695      00
 3696 004b AD000000 		.4byte	0xad
 3697 004f 746D6F64 		.ascii	"tmode_t\000"
 3697      655F7400 
 3698 0057 B8000000 		.4byte	0xb8
 3699 005b 74737461 		.ascii	"tstate_t\000"
 3699      74655F74 
 3699      00
 3700 0064 C3000000 		.4byte	0xc3
 3701 0068 74726566 		.ascii	"trefs_t\000"
 3701      735F7400 
 3702 0070 CE000000 		.4byte	0xce
 3703 0074 74736C69 		.ascii	"tslices_t\000"
 3703      6365735F 
 3703      7400
 3704 007e D9000000 		.4byte	0xd9
 3705 0082 74707269 		.ascii	"tprio_t\000"
 3705      6F5F7400 
 3706 008a E4000000 		.4byte	0xe4
 3707 008e 6D73675F 		.ascii	"msg_t\000"
 3707      7400
 3708 0094 EF000000 		.4byte	0xef
 3709 0098 6576656E 		.ascii	"eventmask_t\000"
 3709      746D6173 
 3709      6B5F7400 
 3710 00a4 FA000000 		.4byte	0xfa
 3711 00a8 666C6167 		.ascii	"flagsmask_t\000"
 3711      736D6173 
 3711      6B5F7400 
 3712 00b4 05010000 		.4byte	0x105
 3713 00b8 73797374 		.ascii	"systime_t\000"
 3713      696D655F 
 3713      7400
 3714 00c2 10010000 		.4byte	0x110
 3715 00c6 54687265 		.ascii	"Thread\000"
 3715      616400
ARM GAS  /tmp/cc5EYtpt.s 			page 67


 3716 00cd 6B020000 		.4byte	0x26b
 3717 00d1 54687265 		.ascii	"ThreadsQueue\000"
 3717      61647351 
 3717      75657565 
 3717      00
 3718 00de 8D020000 		.4byte	0x28d
 3719 00e2 54687265 		.ascii	"ThreadsList\000"
 3719      6164734C 
 3719      69737400 
 3720 00ee 98020000 		.4byte	0x298
 3721 00f2 72656761 		.ascii	"regarm_t\000"
 3721      726D5F74 
 3721      00
 3722 00fb A5020000 		.4byte	0x2a5
 3723 00ff 696E7463 		.ascii	"intctx\000"
 3723      747800
 3724 0106 33030000 		.4byte	0x333
 3725 010a 636F6E74 		.ascii	"context\000"
 3725      65787400 
 3726 0112 60030000 		.4byte	0x360
 3727 0116 4D757465 		.ascii	"Mutex\000"
 3727      7800
 3728 011c 9D030000 		.4byte	0x39d
 3729 0120 4D757465 		.ascii	"Mutex\000"
 3729      7800
 3730 0126 A8030000 		.4byte	0x3a8
 3731 012a 4576656E 		.ascii	"EventListener\000"
 3731      744C6973 
 3731      74656E65 
 3731      7200
 3732 0138 B3030000 		.4byte	0x3b3
 3733 013c 4576656E 		.ascii	"EventListener\000"
 3733      744C6973 
 3733      74656E65 
 3733      7200
 3734 014a FE030000 		.4byte	0x3fe
 3735 014e 4576656E 		.ascii	"EventSource\000"
 3735      74536F75 
 3735      72636500 
 3736 015a 19040000 		.4byte	0x419
 3737 015e 4576656E 		.ascii	"EventSource\000"
 3737      74536F75 
 3737      72636500 
 3738 016a 1B010000 		.4byte	0x11b
 3739 016e 54687265 		.ascii	"Thread\000"
 3739      616400
 3740 0175 87040000 		.4byte	0x487
 3741 0179 47656E65 		.ascii	"GenericQueue\000"
 3741      72696351 
 3741      75657565 
 3741      00
 3742 0186 0F050000 		.4byte	0x50f
 3743 018a 716E6F74 		.ascii	"qnotify_t\000"
 3743      6966795F 
 3743      7400
 3744 0194 92040000 		.4byte	0x492
 3745 0198 47656E65 		.ascii	"GenericQueue\000"
ARM GAS  /tmp/cc5EYtpt.s 			page 68


 3745      72696351 
 3745      75657565 
 3745      00
 3746 01a5 38050000 		.4byte	0x538
 3747 01a9 496E7075 		.ascii	"InputQueue\000"
 3747      74517565 
 3747      756500
 3748 01b4 43050000 		.4byte	0x543
 3749 01b8 4F757470 		.ascii	"OutputQueue\000"
 3749      75745175 
 3749      65756500 
 3750 01c4 B4050000 		.4byte	0x5b4
 3751 01c8 4952516E 		.ascii	"IRQn\000"
 3751      00
 3752 01cd F6090000 		.4byte	0x9f6
 3753 01d1 5243435F 		.ascii	"RCC_TypeDef\000"
 3753      54797065 
 3753      44656600 
 3754 01dd DC0A0000 		.4byte	0xadc
 3755 01e1 55534152 		.ascii	"USART_TypeDef\000"
 3755      545F5479 
 3755      70654465 
 3755      6600
 3756 01ef 880B0000 		.4byte	0xb88
 3757 01f3 73647374 		.ascii	"sdstate_t\000"
 3757      6174655F 
 3757      7400
 3758 01fd 930B0000 		.4byte	0xb93
 3759 0201 53657269 		.ascii	"SerialDriver\000"
 3759      616C4472 
 3759      69766572 
 3759      00
 3760 020e 5A0C0000 		.4byte	0xc5a
 3761 0212 53657269 		.ascii	"SerialConfig\000"
 3761      616C436F 
 3761      6E666967 
 3761      00
 3762 021f 650C0000 		.4byte	0xc65
 3763 0223 53657269 		.ascii	"SerialDriverVMT\000"
 3763      616C4472 
 3763      69766572 
 3763      564D5400 
 3764 0233 9E0B0000 		.4byte	0xb9e
 3765 0237 53657269 		.ascii	"SerialDriver\000"
 3765      616C4472 
 3765      69766572 
 3765      00
 3766 0244 00000000 		.4byte	0x0
 3767              		.section	.debug_aranges,"",%progbits
 3768 0000 3C000000 		.4byte	0x3c
 3769 0004 0200     		.2byte	0x2
 3770 0006 00000000 		.4byte	.Ldebug_info0
 3771 000a 04       		.byte	0x4
 3772 000b 00       		.byte	0x0
 3773 000c 0000     		.2byte	0x0
 3774 000e 0000     		.2byte	0x0
 3775 0010 00000000 		.4byte	.LFB122
ARM GAS  /tmp/cc5EYtpt.s 			page 69


 3776 0014 14000000 		.4byte	.LFE122-.LFB122
 3777 0018 00000000 		.4byte	.LFB123
 3778 001c 10010000 		.4byte	.LFE123-.LFB123
 3779 0020 00000000 		.4byte	.LFB124
 3780 0024 26000000 		.4byte	.LFE124-.LFB124
 3781 0028 00000000 		.4byte	.LFB125
 3782 002c C6000000 		.4byte	.LFE125-.LFB125
 3783 0030 00000000 		.4byte	.LFB126
 3784 0034 34000000 		.4byte	.LFE126-.LFB126
 3785 0038 00000000 		.4byte	0x0
 3786 003c 00000000 		.4byte	0x0
 3787              		.section	.debug_ranges,"",%progbits
 3788              	.Ldebug_ranges0:
 3789 0000 02000000 		.4byte	.LBB52
 3790 0004 AE000000 		.4byte	.LBE52
 3791 0008 B6000000 		.4byte	.LBB66
 3792 000c 10010000 		.4byte	.LBE66
 3793 0010 00000000 		.4byte	0x0
 3794 0014 00000000 		.4byte	0x0
 3795 0018 02000000 		.4byte	.LBB53
 3796 001c AE000000 		.4byte	.LBE53
 3797 0020 B6000000 		.4byte	.LBB65
 3798 0024 10010000 		.4byte	.LBE65
 3799 0028 00000000 		.4byte	0x0
 3800 002c 00000000 		.4byte	0x0
 3801 0030 1A000000 		.4byte	.LBB67
 3802 0034 86000000 		.4byte	.LBE67
 3803 0038 88000000 		.4byte	.LBB70
 3804 003c A0000000 		.4byte	.LBE70
 3805 0040 00000000 		.4byte	0x0
 3806 0044 00000000 		.4byte	0x0
 3807 0048 1A000000 		.4byte	.LBB68
 3808 004c 86000000 		.4byte	.LBE68
 3809 0050 88000000 		.4byte	.LBB69
 3810 0054 A0000000 		.4byte	.LBE69
 3811 0058 00000000 		.4byte	0x0
 3812 005c 00000000 		.4byte	0x0
 3813 0060 12000000 		.4byte	.LBB71
 3814 0064 14000000 		.4byte	.LBE71
 3815 0068 16000000 		.4byte	.LBB74
 3816 006c 1C000000 		.4byte	.LBE74
 3817 0070 00000000 		.4byte	0x0
 3818 0074 00000000 		.4byte	0x0
 3819 0078 00000000 		.4byte	.LFB122
 3820 007c 14000000 		.4byte	.LFE122
 3821 0080 00000000 		.4byte	.LFB123
 3822 0084 10010000 		.4byte	.LFE123
 3823 0088 00000000 		.4byte	.LFB124
 3824 008c 26000000 		.4byte	.LFE124
 3825 0090 00000000 		.4byte	.LFB125
 3826 0094 C6000000 		.4byte	.LFE125
 3827 0098 00000000 		.4byte	.LFB126
 3828 009c 34000000 		.4byte	.LFE126
 3829 00a0 00000000 		.4byte	0x0
 3830 00a4 00000000 		.4byte	0x0
 3831              		.section	.debug_str,"MS",%progbits,1
 3832              	.LASF2:
ARM GAS  /tmp/cc5EYtpt.s 			page 70


 3833 0000 73697A65 		.ascii	"size_t\000"
 3833      5F7400
 3834              	.LASF129:
 3835 0007 54494D38 		.ascii	"TIM8_UP_TIM13_IRQn\000"
 3835      5F55505F 
 3835      54494D31 
 3835      335F4952 
 3835      516E00
 3836              	.LASF23:
 3837 001a 73797374 		.ascii	"systime_t\000"
 3837      696D655F 
 3837      7400
 3838              	.LASF193:
 3839 0024 504C4C49 		.ascii	"PLLI2SCFGR\000"
 3839      32534346 
 3839      475200
 3840              	.LASF28:
 3841 002f 705F6374 		.ascii	"p_ctx\000"
 3841      7800
 3842              	.LASF19:
 3843 0035 74707269 		.ascii	"tprio_t\000"
 3843      6F5F7400 
 3844              	.LASF38:
 3845 003d 705F6D73 		.ascii	"p_msgqueue\000"
 3845      67717565 
 3845      756500
 3846              	.LASF8:
 3847 0048 696E7433 		.ascii	"int32_t\000"
 3847      325F7400 
 3848              	.LASF210:
 3849 0050 53657269 		.ascii	"SerialConfig\000"
 3849      616C436F 
 3849      6E666967 
 3849      00
 3850              	.LASF216:
 3851 005d 77726974 		.ascii	"writet\000"
 3851      657400
 3852              	.LASF197:
 3853 0064 47545052 		.ascii	"GTPR\000"
 3853      00
 3854              	.LASF212:
 3855 0069 77726974 		.ascii	"write\000"
 3855      6500
 3856              	.LASF142:
 3857 006f 444D4132 		.ascii	"DMA2_Stream1_IRQn\000"
 3857      5F537472 
 3857      65616D31 
 3857      5F495251 
 3857      6E00
 3858              	.LASF223:
 3859 0081 56656374 		.ascii	"VectorD8\000"
 3859      6F724438 
 3859      00
 3860              	.LASF136:
 3861 008a 53504933 		.ascii	"SPI3_IRQn\000"
 3861      5F495251 
 3861      6E00
ARM GAS  /tmp/cc5EYtpt.s 			page 71


 3862              	.LASF89:
 3863 0094 464C4153 		.ascii	"FLASH_IRQn\000"
 3863      485F4952 
 3863      516E00
 3864              	.LASF163:
 3865 009f 44434D49 		.ascii	"DCMI_IRQn\000"
 3865      5F495251 
 3865      6E00
 3866              	.LASF57:
 3867 00a9 656C5F66 		.ascii	"el_flags\000"
 3867      6C616773 
 3867      00
 3868              	.LASF218:
 3869 00b2 636F6E66 		.ascii	"config\000"
 3869      696700
 3870              	.LASF205:
 3871 00b9 73746174 		.ascii	"state\000"
 3871      6500
 3872              	.LASF214:
 3873 00bf 70757474 		.ascii	"putt\000"
 3873      00
 3874              	.LASF113:
 3875 00c4 54494D32 		.ascii	"TIM2_IRQn\000"
 3875      5F495251 
 3875      6E00
 3876              	.LASF222:
 3877 00ce 73657276 		.ascii	"serve_interrupt\000"
 3877      655F696E 
 3877      74657272 
 3877      75707400 
 3878              	.LASF220:
 3879 00de 7365745F 		.ascii	"set_error\000"
 3879      6572726F 
 3879      7200
 3880              	.LASF149:
 3881 00e8 43414E32 		.ascii	"CAN2_RX0_IRQn\000"
 3881      5F525830 
 3881      5F495251 
 3881      6E00
 3882              	.LASF156:
 3883 00f6 55534152 		.ascii	"USART6_IRQn\000"
 3883      54365F49 
 3883      52516E00 
 3884              	.LASF51:
 3885 0102 6D5F6F77 		.ascii	"m_owner\000"
 3885      6E657200 
 3886              	.LASF61:
 3887 010a 65786974 		.ascii	"exitcode\000"
 3887      636F6465 
 3887      00
 3888              	.LASF161:
 3889 0113 4F54475F 		.ascii	"OTG_HS_WKUP_IRQn\000"
 3889      48535F57 
 3889      4B55505F 
 3889      4952516E 
 3889      00
 3890              	.LASF69:
ARM GAS  /tmp/cc5EYtpt.s 			page 72


 3891 0124 715F746F 		.ascii	"q_top\000"
 3891      7000
 3892              	.LASF63:
 3893 012a 65776D61 		.ascii	"ewmask\000"
 3893      736B00
 3894              	.LASF128:
 3895 0131 54494D38 		.ascii	"TIM8_BRK_TIM12_IRQn\000"
 3895      5F42524B 
 3895      5F54494D 
 3895      31325F49 
 3895      52516E00 
 3896              	.LASF184:
 3897 0145 41484232 		.ascii	"AHB2LPENR\000"
 3897      4C50454E 
 3897      5200
 3898              	.LASF217:
 3899 014f 72656164 		.ascii	"readt\000"
 3899      7400
 3900              	.LASF224:
 3901 0155 73645F6C 		.ascii	"sd_lld_start\000"
 3901      6C645F73 
 3901      74617274 
 3901      00
 3902              	.LASF68:
 3903 0162 715F6275 		.ascii	"q_buffer\000"
 3903      66666572 
 3903      00
 3904              	.LASF72:
 3905 016b 715F6E6F 		.ascii	"q_notify\000"
 3905      74696679 
 3905      00
 3906              	.LASF29:
 3907 0174 705F6E65 		.ascii	"p_newer\000"
 3907      77657200 
 3908              	.LASF9:
 3909 017c 6C6F6E67 		.ascii	"long int\000"
 3909      20696E74 
 3909      00
 3910              	.LASF25:
 3911 0185 705F6E65 		.ascii	"p_next\000"
 3911      787400
 3912              	.LASF71:
 3913 018c 715F7264 		.ascii	"q_rdptr\000"
 3913      70747200 
 3914              	.LASF26:
 3915 0194 705F7072 		.ascii	"p_prev\000"
 3915      657600
 3916              	.LASF233:
 3917 019b 64656661 		.ascii	"default_config\000"
 3917      756C745F 
 3917      636F6E66 
 3917      696700
 3918              	.LASF153:
 3919 01aa 444D4132 		.ascii	"DMA2_Stream5_IRQn\000"
 3919      5F537472 
 3919      65616D35 
 3919      5F495251 
ARM GAS  /tmp/cc5EYtpt.s 			page 73


 3919      6E00
 3920              	.LASF16:
 3921 01bc 74737461 		.ascii	"tstate_t\000"
 3921      74655F74 
 3921      00
 3922              	.LASF41:
 3923 01c5 705F6D74 		.ascii	"p_mtxlist\000"
 3923      786C6973 
 3923      7400
 3924              	.LASF111:
 3925 01cf 54494D31 		.ascii	"TIM1_TRG_COM_TIM11_IRQn\000"
 3925      5F545247 
 3925      5F434F4D 
 3925      5F54494D 
 3925      31315F49 
 3926              	.LASF207:
 3927 01e7 6F717565 		.ascii	"oqueue\000"
 3927      756500
 3928              	.LASF46:
 3929 01ee 72656761 		.ascii	"regarm_t\000"
 3929      726D5F74 
 3929      00
 3930              	.LASF181:
 3931 01f7 41504232 		.ascii	"APB2ENR\000"
 3931      454E5200 
 3932              	.LASF183:
 3933 01ff 41484231 		.ascii	"AHB1LPENR\000"
 3933      4C50454E 
 3933      5200
 3934              	.LASF84:
 3935 0209 53797354 		.ascii	"SysTick_IRQn\000"
 3935      69636B5F 
 3935      4952516E 
 3935      00
 3936              	.LASF124:
 3937 0216 55534152 		.ascii	"USART3_IRQn\000"
 3937      54335F49 
 3937      52516E00 
 3938              	.LASF195:
 3939 0222 44434B43 		.ascii	"DCKCFGR\000"
 3939      46475200 
 3940              	.LASF208:
 3941 022a 75736172 		.ascii	"usart\000"
 3941      7400
 3942              	.LASF1:
 3943 0230 7369676E 		.ascii	"signed char\000"
 3943      65642063 
 3943      68617200 
 3944              	.LASF35:
 3945 023c 705F7072 		.ascii	"p_preempt\000"
 3945      65656D70 
 3945      7400
 3946              	.LASF3:
 3947 0246 75696E74 		.ascii	"uint8_t\000"
 3947      385F7400 
 3948              	.LASF21:
 3949 024e 6576656E 		.ascii	"eventmask_t\000"
ARM GAS  /tmp/cc5EYtpt.s 			page 74


 3949      746D6173 
 3949      6B5F7400 
 3950              	.LASF48:
 3951 025a 636F6E74 		.ascii	"context\000"
 3951      65787400 
 3952              	.LASF98:
 3953 0262 444D4131 		.ascii	"DMA1_Stream2_IRQn\000"
 3953      5F537472 
 3953      65616D32 
 3953      5F495251 
 3953      6E00
 3954              	.LASF172:
 3955 0274 52455345 		.ascii	"RESERVED0\000"
 3955      52564544 
 3955      3000
 3956              	.LASF175:
 3957 027e 52455345 		.ascii	"RESERVED1\000"
 3957      52564544 
 3957      3100
 3958              	.LASF4:
 3959 0288 756E7369 		.ascii	"unsigned char\000"
 3959      676E6564 
 3959      20636861 
 3959      7200
 3960              	.LASF145:
 3961 0296 444D4132 		.ascii	"DMA2_Stream4_IRQn\000"
 3961      5F537472 
 3961      65616D34 
 3961      5F495251 
 3961      6E00
 3962              	.LASF186:
 3963 02a8 52455345 		.ascii	"RESERVED4\000"
 3963      52564544 
 3963      3400
 3964              	.LASF73:
 3965 02b2 715F6C69 		.ascii	"q_link\000"
 3965      6E6B00
 3966              	.LASF191:
 3967 02b9 52455345 		.ascii	"RESERVED6\000"
 3967      52564544 
 3967      3600
 3968              	.LASF117:
 3969 02c3 49324331 		.ascii	"I2C1_ER_IRQn\000"
 3969      5F45525F 
 3969      4952516E 
 3969      00
 3970              	.LASF151:
 3971 02d0 43414E32 		.ascii	"CAN2_SCE_IRQn\000"
 3971      5F534345 
 3971      5F495251 
 3971      6E00
 3972              	.LASF199:
 3973 02de 53445F55 		.ascii	"SD_UNINIT\000"
 3973      4E494E49 
 3973      5400
 3974              	.LASF14:
 3975 02e8 5F426F6F 		.ascii	"_Bool\000"
ARM GAS  /tmp/cc5EYtpt.s 			page 75


 3975      6C00
 3976              	.LASF179:
 3977 02ee 52455345 		.ascii	"RESERVED2\000"
 3977      52564544 
 3977      3200
 3978              	.LASF182:
 3979 02f8 52455345 		.ascii	"RESERVED3\000"
 3979      52564544 
 3979      3300
 3980              	.LASF135:
 3981 0302 54494D35 		.ascii	"TIM5_IRQn\000"
 3981      5F495251 
 3981      6E00
 3982              	.LASF189:
 3983 030c 52455345 		.ascii	"RESERVED5\000"
 3983      52564544 
 3983      3500
 3984              	.LASF80:
 3985 0316 55736167 		.ascii	"UsageFault_IRQn\000"
 3985      65466175 
 3985      6C745F49 
 3985      52516E00 
 3986              	.LASF64:
 3987 0326 63686172 		.ascii	"char\000"
 3987      00
 3988              	.LASF169:
 3989 032b 41484231 		.ascii	"AHB1RSTR\000"
 3989      52535452 
 3989      00
 3990              	.LASF228:
 3991 0334 2E2E2F43 		.ascii	"../ChibiOS_2.6.2/os/hal/platforms/STM32/USARTv1/ser"
 3991      68696269 
 3991      4F535F32 
 3991      2E362E32 
 3991      2F6F732F 
 3992 0367 69616C5F 		.ascii	"ial_lld.c\000"
 3992      6C6C642E 
 3992      6300
 3993              	.LASF27:
 3994 0371 705F7072 		.ascii	"p_prio\000"
 3994      696F00
 3995              	.LASF177:
 3996 0378 41484232 		.ascii	"AHB2ENR\000"
 3996      454E5200 
 3997              	.LASF65:
 3998 0380 47656E65 		.ascii	"GenericQueue\000"
 3998      72696351 
 3998      75657565 
 3998      00
 3999              	.LASF62:
 4000 038d 77746F62 		.ascii	"wtobjp\000"
 4000      6A7000
 4001              	.LASF105:
 4002 0394 43414E31 		.ascii	"CAN1_RX0_IRQn\000"
 4002      5F525830 
 4002      5F495251 
 4002      6E00
ARM GAS  /tmp/cc5EYtpt.s 			page 76


 4003              	.LASF215:
 4004 03a2 67657474 		.ascii	"gett\000"
 4004      00
 4005              	.LASF198:
 4006 03a7 55534152 		.ascii	"USART_TypeDef\000"
 4006      545F5479 
 4006      70654465 
 4006      6600
 4007              	.LASF76:
 4008 03b5 4F757470 		.ascii	"OutputQueue\000"
 4008      75745175 
 4008      65756500 
 4009              	.LASF115:
 4010 03c1 54494D34 		.ascii	"TIM4_IRQn\000"
 4010      5F495251 
 4010      6E00
 4011              	.LASF123:
 4012 03cb 55534152 		.ascii	"USART2_IRQn\000"
 4012      54325F49 
 4012      52516E00 
 4013              	.LASF190:
 4014 03d7 42444352 		.ascii	"BDCR\000"
 4014      00
 4015              	.LASF116:
 4016 03dc 49324331 		.ascii	"I2C1_EV_IRQn\000"
 4016      5F45565F 
 4016      4952516E 
 4016      00
 4017              	.LASF229:
 4018 03e9 2F686F6D 		.ascii	"/home/nis/stm32f407d_neko\000"
 4018      652F6E69 
 4018      732F7374 
 4018      6D333266 
 4018      34303764 
 4019              	.LASF47:
 4020 0403 696E7463 		.ascii	"intctx\000"
 4020      747800
 4021              	.LASF209:
 4022 040a 73706565 		.ascii	"speed\000"
 4022      6400
 4023              	.LASF40:
 4024 0410 705F6570 		.ascii	"p_epending\000"
 4024      656E6469 
 4024      6E6700
 4025              	.LASF168:
 4026 041b 43464752 		.ascii	"CFGR\000"
 4026      00
 4027              	.LASF112:
 4028 0420 54494D31 		.ascii	"TIM1_CC_IRQn\000"
 4028      5F43435F 
 4028      4952516E 
 4028      00
 4029              	.LASF165:
 4030 042d 48415348 		.ascii	"HASH_RNG_IRQn\000"
 4030      5F524E47 
 4030      5F495251 
 4030      6E00
ARM GAS  /tmp/cc5EYtpt.s 			page 77


 4031              	.LASF92:
 4032 043b 45585449 		.ascii	"EXTI1_IRQn\000"
 4032      315F4952 
 4032      516E00
 4033              	.LASF104:
 4034 0446 43414E31 		.ascii	"CAN1_TX_IRQn\000"
 4034      5F54585F 
 4034      4952516E 
 4034      00
 4035              	.LASF101:
 4036 0453 444D4131 		.ascii	"DMA1_Stream5_IRQn\000"
 4036      5F537472 
 4036      65616D35 
 4036      5F495251 
 4036      6E00
 4037              	.LASF130:
 4038 0465 54494D38 		.ascii	"TIM8_TRG_COM_TIM14_IRQn\000"
 4038      5F545247 
 4038      5F434F4D 
 4038      5F54494D 
 4038      31345F49 
 4039              	.LASF59:
 4040 047d 65735F6E 		.ascii	"es_next\000"
 4040      65787400 
 4041              	.LASF67:
 4042 0485 715F636F 		.ascii	"q_counter\000"
 4042      756E7465 
 4042      7200
 4043              	.LASF152:
 4044 048f 4F54475F 		.ascii	"OTG_FS_IRQn\000"
 4044      46535F49 
 4044      52516E00 
 4045              	.LASF77:
 4046 049b 4E6F6E4D 		.ascii	"NonMaskableInt_IRQn\000"
 4046      61736B61 
 4046      626C6549 
 4046      6E745F49 
 4046      52516E00 
 4047              	.LASF133:
 4048 04af 46534D43 		.ascii	"FSMC_IRQn\000"
 4048      5F495251 
 4048      6E00
 4049              	.LASF58:
 4050 04b9 4576656E 		.ascii	"EventSource\000"
 4050      74536F75 
 4050      72636500 
 4051              	.LASF85:
 4052 04c5 57574447 		.ascii	"WWDG_IRQn\000"
 4052      5F495251 
 4052      6E00
 4053              	.LASF11:
 4054 04cf 6C6F6E67 		.ascii	"long unsigned int\000"
 4054      20756E73 
 4054      69676E65 
 4054      6420696E 
 4054      7400
 4055              	.LASF78:
ARM GAS  /tmp/cc5EYtpt.s 			page 78


 4056 04e1 4D656D6F 		.ascii	"MemoryManagement_IRQn\000"
 4056      72794D61 
 4056      6E616765 
 4056      6D656E74 
 4056      5F495251 
 4057              	.LASF87:
 4058 04f7 54414D50 		.ascii	"TAMP_STAMP_IRQn\000"
 4058      5F535441 
 4058      4D505F49 
 4058      52516E00 
 4059              	.LASF107:
 4060 0507 43414E31 		.ascii	"CAN1_SCE_IRQn\000"
 4060      5F534345 
 4060      5F495251 
 4060      6E00
 4061              	.LASF54:
 4062 0515 656C5F6E 		.ascii	"el_next\000"
 4062      65787400 
 4063              	.LASF70:
 4064 051d 715F7772 		.ascii	"q_wrptr\000"
 4064      70747200 
 4065              	.LASF211:
 4066 0525 53657269 		.ascii	"SerialDriverVMT\000"
 4066      616C4472 
 4066      69766572 
 4066      564D5400 
 4067              	.LASF221:
 4068 0535 75736172 		.ascii	"usart_deinit\000"
 4068      745F6465 
 4068      696E6974 
 4068      00
 4069              	.LASF119:
 4070 0542 49324332 		.ascii	"I2C2_ER_IRQn\000"
 4070      5F45525F 
 4070      4952516E 
 4070      00
 4071              	.LASF79:
 4072 054f 42757346 		.ascii	"BusFault_IRQn\000"
 4072      61756C74 
 4072      5F495251 
 4072      6E00
 4073              	.LASF232:
 4074 055d 73645F6C 		.ascii	"sd_lld_init\000"
 4074      6C645F69 
 4074      6E697400 
 4075              	.LASF167:
 4076 0569 504C4C43 		.ascii	"PLLCFGR\000"
 4076      46475200 
 4077              	.LASF138:
 4078 0571 55415254 		.ascii	"UART5_IRQn\000"
 4078      355F4952 
 4078      516E00
 4079              	.LASF109:
 4080 057c 54494D31 		.ascii	"TIM1_BRK_TIM9_IRQn\000"
 4080      5F42524B 
 4080      5F54494D 
 4080      395F4952 
ARM GAS  /tmp/cc5EYtpt.s 			page 79


 4080      516E00
 4081              	.LASF49:
 4082 058f 4D757465 		.ascii	"Mutex\000"
 4082      7800
 4083              	.LASF140:
 4084 0595 54494D37 		.ascii	"TIM7_IRQn\000"
 4084      5F495251 
 4084      6E00
 4085              	.LASF12:
 4086 059f 6C6F6E67 		.ascii	"long long int\000"
 4086      206C6F6E 
 4086      6720696E 
 4086      7400
 4087              	.LASF147:
 4088 05ad 4554485F 		.ascii	"ETH_WKUP_IRQn\000"
 4088      574B5550 
 4088      5F495251 
 4088      6E00
 4089              	.LASF121:
 4090 05bb 53504932 		.ascii	"SPI2_IRQn\000"
 4090      5F495251 
 4090      6E00
 4091              	.LASF162:
 4092 05c5 4F54475F 		.ascii	"OTG_HS_IRQn\000"
 4092      48535F49 
 4092      52516E00 
 4093              	.LASF50:
 4094 05d1 6D5F7175 		.ascii	"m_queue\000"
 4094      65756500 
 4095              	.LASF192:
 4096 05d9 53534347 		.ascii	"SSCGR\000"
 4096      5200
 4097              	.LASF120:
 4098 05df 53504931 		.ascii	"SPI1_IRQn\000"
 4098      5F495251 
 4098      6E00
 4099              	.LASF81:
 4100 05e9 53564361 		.ascii	"SVCall_IRQn\000"
 4100      6C6C5F49 
 4100      52516E00 
 4101              	.LASF174:
 4102 05f5 41504232 		.ascii	"APB2RSTR\000"
 4102      52535452 
 4102      00
 4103              	.LASF166:
 4104 05fe 4650555F 		.ascii	"FPU_IRQn\000"
 4104      4952516E 
 4104      00
 4105              	.LASF137:
 4106 0607 55415254 		.ascii	"UART4_IRQn\000"
 4106      345F4952 
 4106      516E00
 4107              	.LASF188:
 4108 0612 41504232 		.ascii	"APB2LPENR\000"
 4108      4C50454E 
 4108      5200
 4109              	.LASF74:
ARM GAS  /tmp/cc5EYtpt.s 			page 80


 4110 061c 716E6F74 		.ascii	"qnotify_t\000"
 4110      6966795F 
 4110      7400
 4111              	.LASF37:
 4112 0626 705F7761 		.ascii	"p_waiting\000"
 4112      6974696E 
 4112      6700
 4113              	.LASF141:
 4114 0630 444D4132 		.ascii	"DMA2_Stream0_IRQn\000"
 4114      5F537472 
 4114      65616D30 
 4114      5F495251 
 4114      6E00
 4115              	.LASF204:
 4116 0642 6576656E 		.ascii	"event\000"
 4116      7400
 4117              	.LASF127:
 4118 0648 4F54475F 		.ascii	"OTG_FS_WKUP_IRQn\000"
 4118      46535F57 
 4118      4B55505F 
 4118      4952516E 
 4118      00
 4119              	.LASF33:
 4120 0659 705F666C 		.ascii	"p_flags\000"
 4120      61677300 
 4121              	.LASF213:
 4122 0661 72656164 		.ascii	"read\000"
 4122      00
 4123              	.LASF0:
 4124 0666 756E7369 		.ascii	"unsigned int\000"
 4124      676E6564 
 4124      20696E74 
 4124      00
 4125              	.LASF139:
 4126 0673 54494D36 		.ascii	"TIM6_DAC_IRQn\000"
 4126      5F444143 
 4126      5F495251 
 4126      6E00
 4127              	.LASF43:
 4128 0681 705F6D70 		.ascii	"p_mpool\000"
 4128      6F6F6C00 
 4129              	.LASF118:
 4130 0689 49324332 		.ascii	"I2C2_EV_IRQn\000"
 4130      5F45565F 
 4130      4952516E 
 4130      00
 4131              	.LASF34:
 4132 0696 705F7265 		.ascii	"p_refs\000"
 4132      667300
 4133              	.LASF45:
 4134 069d 54687265 		.ascii	"ThreadsList\000"
 4134      6164734C 
 4134      69737400 
 4135              	.LASF187:
 4136 06a9 41504231 		.ascii	"APB1LPENR\000"
 4136      4C50454E 
 4136      5200
ARM GAS  /tmp/cc5EYtpt.s 			page 81


 4137              	.LASF97:
 4138 06b3 444D4131 		.ascii	"DMA1_Stream1_IRQn\000"
 4138      5F537472 
 4138      65616D31 
 4138      5F495251 
 4138      6E00
 4139              	.LASF22:
 4140 06c5 666C6167 		.ascii	"flagsmask_t\000"
 4140      736D6173 
 4140      6B5F7400 
 4141              	.LASF144:
 4142 06d1 444D4132 		.ascii	"DMA2_Stream3_IRQn\000"
 4142      5F537472 
 4142      65616D33 
 4142      5F495251 
 4142      6E00
 4143              	.LASF148:
 4144 06e3 43414E32 		.ascii	"CAN2_TX_IRQn\000"
 4144      5F54585F 
 4144      4952516E 
 4144      00
 4145              	.LASF36:
 4146 06f0 705F7469 		.ascii	"p_time\000"
 4146      6D6500
 4147              	.LASF230:
 4148 06f7 4952516E 		.ascii	"IRQn\000"
 4148      00
 4149              	.LASF102:
 4150 06fc 444D4131 		.ascii	"DMA1_Stream6_IRQn\000"
 4150      5F537472 
 4150      65616D36 
 4150      5F495251 
 4150      6E00
 4151              	.LASF171:
 4152 070e 41484233 		.ascii	"AHB3RSTR\000"
 4152      52535452 
 4152      00
 4153              	.LASF42:
 4154 0717 705F7265 		.ascii	"p_realprio\000"
 4154      616C7072 
 4154      696F00
 4155              	.LASF155:
 4156 0722 444D4132 		.ascii	"DMA2_Stream7_IRQn\000"
 4156      5F537472 
 4156      65616D37 
 4156      5F495251 
 4156      6E00
 4157              	.LASF96:
 4158 0734 444D4131 		.ascii	"DMA1_Stream0_IRQn\000"
 4158      5F537472 
 4158      65616D30 
 4158      5F495251 
 4158      6E00
 4159              	.LASF173:
 4160 0746 41504231 		.ascii	"APB1RSTR\000"
 4160      52535452 
 4160      00
ARM GAS  /tmp/cc5EYtpt.s 			page 82


 4161              	.LASF219:
 4162 074f 75736172 		.ascii	"usart_init\000"
 4162      745F696E 
 4162      697400
 4163              	.LASF126:
 4164 075a 5254435F 		.ascii	"RTC_Alarm_IRQn\000"
 4164      416C6172 
 4164      6D5F4952 
 4164      516E00
 4165              	.LASF180:
 4166 0769 41504231 		.ascii	"APB1ENR\000"
 4166      454E5200 
 4167              	.LASF158:
 4168 0771 49324333 		.ascii	"I2C3_ER_IRQn\000"
 4168      5F45525F 
 4168      4952516E 
 4168      00
 4169              	.LASF227:
 4170 077e 474E5520 		.ascii	"GNU C 4.5.1\000"
 4170      4320342E 
 4170      352E3100 
 4171              	.LASF125:
 4172 078a 45585449 		.ascii	"EXTI15_10_IRQn\000"
 4172      31355F31 
 4172      305F4952 
 4172      516E00
 4173              	.LASF13:
 4174 0799 6C6F6E67 		.ascii	"long long unsigned int\000"
 4174      206C6F6E 
 4174      6720756E 
 4174      7369676E 
 4174      65642069 
 4175              	.LASF30:
 4176 07b0 705F6F6C 		.ascii	"p_older\000"
 4176      64657200 
 4177              	.LASF6:
 4178 07b8 75696E74 		.ascii	"uint16_t\000"
 4178      31365F74 
 4178      00
 4179              	.LASF20:
 4180 07c1 6D73675F 		.ascii	"msg_t\000"
 4180      7400
 4181              	.LASF114:
 4182 07c7 54494D33 		.ascii	"TIM3_IRQn\000"
 4182      5F495251 
 4182      6E00
 4183              	.LASF122:
 4184 07d1 55534152 		.ascii	"USART1_IRQn\000"
 4184      54315F49 
 4184      52516E00 
 4185              	.LASF18:
 4186 07dd 74736C69 		.ascii	"tslices_t\000"
 4186      6365735F 
 4186      7400
 4187              	.LASF93:
 4188 07e7 45585449 		.ascii	"EXTI2_IRQn\000"
 4188      325F4952 
ARM GAS  /tmp/cc5EYtpt.s 			page 83


 4188      516E00
 4189              	.LASF150:
 4190 07f2 43414E32 		.ascii	"CAN2_RX1_IRQn\000"
 4190      5F525831 
 4190      5F495251 
 4190      6E00
 4191              	.LASF103:
 4192 0800 4144435F 		.ascii	"ADC_IRQn\000"
 4192      4952516E 
 4192      00
 4193              	.LASF185:
 4194 0809 41484233 		.ascii	"AHB3LPENR\000"
 4194      4C50454E 
 4194      5200
 4195              	.LASF86:
 4196 0813 5056445F 		.ascii	"PVD_IRQn\000"
 4196      4952516E 
 4196      00
 4197              	.LASF203:
 4198 081c 53657269 		.ascii	"SerialDriver\000"
 4198      616C4472 
 4198      69766572 
 4198      00
 4199              	.LASF66:
 4200 0829 715F7761 		.ascii	"q_waiting\000"
 4200      6974696E 
 4200      6700
 4201              	.LASF91:
 4202 0833 45585449 		.ascii	"EXTI0_IRQn\000"
 4202      305F4952 
 4202      516E00
 4203              	.LASF15:
 4204 083e 746D6F64 		.ascii	"tmode_t\000"
 4204      655F7400 
 4205              	.LASF100:
 4206 0846 444D4131 		.ascii	"DMA1_Stream4_IRQn\000"
 4206      5F537472 
 4206      65616D34 
 4206      5F495251 
 4206      6E00
 4207              	.LASF202:
 4208 0858 73647374 		.ascii	"sdstate_t\000"
 4208      6174655F 
 4208      7400
 4209              	.LASF154:
 4210 0862 444D4132 		.ascii	"DMA2_Stream6_IRQn\000"
 4210      5F537472 
 4210      65616D36 
 4210      5F495251 
 4210      6E00
 4211              	.LASF176:
 4212 0874 41484231 		.ascii	"AHB1ENR\000"
 4212      454E5200 
 4213              	.LASF82:
 4214 087c 44656275 		.ascii	"DebugMonitor_IRQn\000"
 4214      674D6F6E 
 4214      69746F72 
ARM GAS  /tmp/cc5EYtpt.s 			page 84


 4214      5F495251 
 4214      6E00
 4215              	.LASF201:
 4216 088e 53445F52 		.ascii	"SD_READY\000"
 4216      45414459 
 4216      00
 4217              	.LASF157:
 4218 0897 49324333 		.ascii	"I2C3_EV_IRQn\000"
 4218      5F45565F 
 4218      4952516E 
 4218      00
 4219              	.LASF170:
 4220 08a4 41484232 		.ascii	"AHB2RSTR\000"
 4220      52535452 
 4220      00
 4221              	.LASF146:
 4222 08ad 4554485F 		.ascii	"ETH_IRQn\000"
 4222      4952516E 
 4222      00
 4223              	.LASF231:
 4224 08b6 6E6F7469 		.ascii	"notify2\000"
 4224      66793200 
 4225              	.LASF196:
 4226 08be 5243435F 		.ascii	"RCC_TypeDef\000"
 4226      54797065 
 4226      44656600 
 4227              	.LASF5:
 4228 08ca 73686F72 		.ascii	"short int\000"
 4228      7420696E 
 4228      7400
 4229              	.LASF90:
 4230 08d4 5243435F 		.ascii	"RCC_IRQn\000"
 4230      4952516E 
 4230      00
 4231              	.LASF206:
 4232 08dd 69717565 		.ascii	"iqueue\000"
 4232      756500
 4233              	.LASF99:
 4234 08e4 444D4131 		.ascii	"DMA1_Stream3_IRQn\000"
 4234      5F537472 
 4234      65616D33 
 4234      5F495251 
 4234      6E00
 4235              	.LASF24:
 4236 08f6 54687265 		.ascii	"Thread\000"
 4236      616400
 4237              	.LASF110:
 4238 08fd 54494D31 		.ascii	"TIM1_UP_TIM10_IRQn\000"
 4238      5F55505F 
 4238      54494D31 
 4238      305F4952 
 4238      516E00
 4239              	.LASF226:
 4240 0910 49544D5F 		.ascii	"ITM_RxBuffer\000"
 4240      52784275 
 4240      66666572 
 4240      00
ARM GAS  /tmp/cc5EYtpt.s 			page 85


 4241              	.LASF17:
 4242 091d 74726566 		.ascii	"trefs_t\000"
 4242      735F7400 
 4243              	.LASF159:
 4244 0925 4F54475F 		.ascii	"OTG_HS_EP1_OUT_IRQn\000"
 4244      48535F45 
 4244      50315F4F 
 4244      55545F49 
 4244      52516E00 
 4245              	.LASF88:
 4246 0939 5254435F 		.ascii	"RTC_WKUP_IRQn\000"
 4246      574B5550 
 4246      5F495251 
 4246      6E00
 4247              	.LASF53:
 4248 0947 4576656E 		.ascii	"EventListener\000"
 4248      744C6973 
 4248      74656E65 
 4248      7200
 4249              	.LASF10:
 4250 0955 75696E74 		.ascii	"uint32_t\000"
 4250      33325F74 
 4250      00
 4251              	.LASF106:
 4252 095e 43414E31 		.ascii	"CAN1_RX1_IRQn\000"
 4252      5F525831 
 4252      5F495251 
 4252      6E00
 4253              	.LASF44:
 4254 096c 54687265 		.ascii	"ThreadsQueue\000"
 4254      61647351 
 4254      75657565 
 4254      00
 4255              	.LASF108:
 4256 0979 45585449 		.ascii	"EXTI9_5_IRQn\000"
 4256      395F355F 
 4256      4952516E 
 4256      00
 4257              	.LASF194:
 4258 0986 504C4C53 		.ascii	"PLLSAICFGR\000"
 4258      41494346 
 4258      475200
 4259              	.LASF60:
 4260 0991 7264796D 		.ascii	"rdymsg\000"
 4260      736700
 4261              	.LASF95:
 4262 0998 45585449 		.ascii	"EXTI4_IRQn\000"
 4262      345F4952 
 4262      516E00
 4263              	.LASF7:
 4264 09a3 73686F72 		.ascii	"short unsigned int\000"
 4264      7420756E 
 4264      7369676E 
 4264      65642069 
 4264      6E7400
 4265              	.LASF225:
 4266 09b6 73645F6C 		.ascii	"sd_lld_stop\000"
ARM GAS  /tmp/cc5EYtpt.s 			page 86


 4266      6C645F73 
 4266      746F7000 
 4267              	.LASF131:
 4268 09c2 54494D38 		.ascii	"TIM8_CC_IRQn\000"
 4268      5F43435F 
 4268      4952516E 
 4268      00
 4269              	.LASF134:
 4270 09cf 5344494F 		.ascii	"SDIO_IRQn\000"
 4270      5F495251 
 4270      6E00
 4271              	.LASF75:
 4272 09d9 496E7075 		.ascii	"InputQueue\000"
 4272      74517565 
 4272      756500
 4273              	.LASF94:
 4274 09e4 45585449 		.ascii	"EXTI3_IRQn\000"
 4274      335F4952 
 4274      516E00
 4275              	.LASF83:
 4276 09ef 50656E64 		.ascii	"PendSV_IRQn\000"
 4276      53565F49 
 4276      52516E00 
 4277              	.LASF160:
 4278 09fb 4F54475F 		.ascii	"OTG_HS_EP1_IN_IRQn\000"
 4278      48535F45 
 4278      50315F49 
 4278      4E5F4952 
 4278      516E00
 4279              	.LASF132:
 4280 0a0e 444D4131 		.ascii	"DMA1_Stream7_IRQn\000"
 4280      5F537472 
 4280      65616D37 
 4280      5F495251 
 4280      6E00
 4281              	.LASF164:
 4282 0a20 43525950 		.ascii	"CRYP_IRQn\000"
 4282      5F495251 
 4282      6E00
 4283              	.LASF200:
 4284 0a2a 53445F53 		.ascii	"SD_STOP\000"
 4284      544F5000 
 4285              	.LASF56:
 4286 0a32 656C5F6D 		.ascii	"el_mask\000"
 4286      61736B00 
 4287              	.LASF31:
 4288 0a3a 705F6E61 		.ascii	"p_name\000"
 4288      6D6500
 4289              	.LASF52:
 4290 0a41 6D5F6E65 		.ascii	"m_next\000"
 4290      787400
 4291              	.LASF178:
 4292 0a48 41484233 		.ascii	"AHB3ENR\000"
 4292      454E5200 
 4293              	.LASF143:
 4294 0a50 444D4132 		.ascii	"DMA2_Stream2_IRQn\000"
 4294      5F537472 
ARM GAS  /tmp/cc5EYtpt.s 			page 87


 4294      65616D32 
 4294      5F495251 
 4294      6E00
 4295              	.LASF39:
 4296 0a62 705F6D73 		.ascii	"p_msg\000"
 4296      6700
 4297              	.LASF55:
 4298 0a68 656C5F6C 		.ascii	"el_listener\000"
 4298      69737465 
 4298      6E657200 
 4299              	.LASF32:
 4300 0a74 705F7374 		.ascii	"p_state\000"
 4300      61746500 
 4301              		.ident	"GCC: (Sourcery G++ Lite 2010.09-51) 4.5.1"
ARM GAS  /tmp/cc5EYtpt.s 			page 88


DEFINED SYMBOLS
                            *ABS*:00000000 serial_lld.c
     /tmp/cc5EYtpt.s:24     .text.notify2:00000000 $t
     /tmp/cc5EYtpt.s:29     .text.notify2:00000000 notify2
     /tmp/cc5EYtpt.s:52     .text.VectorD8:00000000 $t
     /tmp/cc5EYtpt.s:58     .text.VectorD8:00000000 VectorD8
     /tmp/cc5EYtpt.s:568    .bss.SD2:00000000 .LANCHOR0
     /tmp/cc5EYtpt.s:306    .text.VectorD8:00000108 $d
     /tmp/cc5EYtpt.s:315    .text.sd_lld_init:00000000 $t
     /tmp/cc5EYtpt.s:321    .text.sd_lld_init:00000000 sd_lld_init
     /tmp/cc5EYtpt.s:350    .text.sd_lld_start:00000000 $t
     /tmp/cc5EYtpt.s:356    .text.sd_lld_start:00000000 sd_lld_start
     /tmp/cc5EYtpt.s:557    .rodata.default_config:00000000 .LANCHOR1
     /tmp/cc5EYtpt.s:487    .text.sd_lld_stop:00000000 $t
     /tmp/cc5EYtpt.s:493    .text.sd_lld_stop:00000000 sd_lld_stop
     /tmp/cc5EYtpt.s:571    .bss.SD2:00000000 SD2
     /tmp/cc5EYtpt.s:556    .rodata.default_config:00000000 $d
     /tmp/cc5EYtpt.s:560    .rodata.default_config:00000000 default_config
     /tmp/cc5EYtpt.s:567    .bss.SD2:00000000 $d
                     .debug_frame:00000010 $d

UNDEFINED SYMBOLS
chEvtBroadcastFlagsI
sdIncomingDataI
_port_irq_epilogue
chOQGetI
sdObjectInit
nvicEnableVector
nvicDisableVector
