ARM GAS  /tmp/cc49MGVL.s 			page 1


   1              		.syntax unified
   2              		.cpu cortex-m4
   3              		.fpu softvfp
   4              		.eabi_attribute 20, 1
   5              		.eabi_attribute 21, 1
   6              		.eabi_attribute 23, 3
   7              		.eabi_attribute 24, 1
   8              		.eabi_attribute 25, 1
   9              		.eabi_attribute 26, 1
  10              		.eabi_attribute 30, 2
  11              		.eabi_attribute 18, 4
  12              		.thumb
  13              		.file	"serial.c"
  20 0000 D0030000 		.text
  20      0200A402 
  20      00000201 
  20      FB0E0D00 
  20      01010101 
  21              	.Ltext0:
  22              		.cfi_sections	.debug_frame
  23              		.section	.text.readt,"ax",%progbits
  24              		.align	2
  25              		.p2align 4,,15
  26              		.thumb
  27              		.thumb_func
  28              		.type	readt, %function
  29              	readt:
  30              	.LFB125:
  31              		.file 1 "../ChibiOS_2.6.2/os/hal/src/serial.c"
  32              		.loc 1 99 0
  33              		.cfi_startproc
  34              		@ args = 0, pretend = 0, frame = 0
  35              		@ frame_needed = 0, uses_anonymous_args = 0
  36              		@ link register save eliminated.
  37              	.LVL0:
  38              		.loc 1 101 0
  39 0000 0C30     		adds	r0, r0, #12
  40              	.LVL1:
  41              		.loc 1 102 0
  42              		.loc 1 101 0
  43 0002 FFF7FEBF 		b	chIQReadTimeout
  44              		.cfi_endproc
  45              	.LFE125:
  46              		.size	readt, .-readt
  47 0006 00BFAFF3 		.section	.text.read,"ax",%progbits
  47      0080AFF3 
  47      0080
  48              		.align	2
  49              		.p2align 4,,15
  50              		.thumb
  51              		.thumb_func
ARM GAS  /tmp/cc49MGVL.s 			page 2


  52              		.type	read, %function
  53              	read:
  54              	.LFB119:
  55              		.loc 1 68 0
  56              		.cfi_startproc
  57              		@ args = 0, pretend = 0, frame = 0
  58              		@ frame_needed = 0, uses_anonymous_args = 0
  59              		@ link register save eliminated.
  60              	.LVL2:
  61              		.loc 1 70 0
  62 0000 0C30     		adds	r0, r0, #12
  63              	.LVL3:
  64 0002 4FF0FF33 		mov	r3, #-1
  65              		.loc 1 72 0
  66              		.loc 1 70 0
  67 0006 FFF7FEBF 		b	chIQReadTimeout
  68              		.cfi_endproc
  69              	.LFE119:
  70              		.size	read, .-read
  71 000a 00BFAFF3 		.section	.text.writet,"ax",%progbits
  71      0080
  72              		.align	2
  73              		.p2align 4,,15
  74              		.thumb
  75              		.thumb_func
  76              		.type	writet, %function
  77              	writet:
  78              	.LFB124:
  79              		.loc 1 94 0
  80              		.cfi_startproc
  81              		@ args = 0, pretend = 0, frame = 0
  82              		@ frame_needed = 0, uses_anonymous_args = 0
  83              		@ link register save eliminated.
  84              	.LVL4:
  85              		.loc 1 96 0
  86 0000 3030     		adds	r0, r0, #48
  87              	.LVL5:
  88              		.loc 1 97 0
  89              		.loc 1 96 0
  90 0002 FFF7FEBF 		b	chOQWriteTimeout
  91              		.cfi_endproc
  92              	.LFE124:
  93              		.size	writet, .-writet
  94 0006 00BFAFF3 		.section	.text.write,"ax",%progbits
  94      0080AFF3 
  94      0080
  95              		.align	2
  96              		.p2align 4,,15
  97              		.thumb
  98              		.thumb_func
  99              		.type	write, %function
 100              	write:
 101              	.LFB118:
 102              		.loc 1 62 0
 103              		.cfi_startproc
 104              		@ args = 0, pretend = 0, frame = 0
 105              		@ frame_needed = 0, uses_anonymous_args = 0
ARM GAS  /tmp/cc49MGVL.s 			page 3


 106              		@ link register save eliminated.
 107              	.LVL6:
 108              		.loc 1 64 0
 109 0000 3030     		adds	r0, r0, #48
 110              	.LVL7:
 111 0002 4FF0FF33 		mov	r3, #-1
 112              		.loc 1 66 0
 113              		.loc 1 64 0
 114 0006 FFF7FEBF 		b	chOQWriteTimeout
 115              		.cfi_endproc
 116              	.LFE118:
 117              		.size	write, .-write
 118 000a 00BFAFF3 		.section	.text.gett,"ax",%progbits
 118      0080
 119              		.align	2
 120              		.p2align 4,,15
 121              		.thumb
 122              		.thumb_func
 123              		.type	gett, %function
 124              	gett:
 125              	.LFB123:
 126              		.loc 1 89 0
 127              		.cfi_startproc
 128              		@ args = 0, pretend = 0, frame = 0
 129              		@ frame_needed = 0, uses_anonymous_args = 0
 130              		@ link register save eliminated.
 131              	.LVL8:
 132              		.loc 1 91 0
 133 0000 0C30     		adds	r0, r0, #12
 134              	.LVL9:
 135              		.loc 1 92 0
 136              		.loc 1 91 0
 137 0002 FFF7FEBF 		b	chIQGetTimeout
 138              		.cfi_endproc
 139              	.LFE123:
 140              		.size	gett, .-gett
 141 0006 00BFAFF3 		.section	.text.get,"ax",%progbits
 141      0080AFF3 
 141      0080
 142              		.align	2
 143              		.p2align 4,,15
 144              		.thumb
 145              		.thumb_func
 146              		.type	get, %function
 147              	get:
 148              	.LFB121:
 149              		.loc 1 79 0
 150              		.cfi_startproc
 151              		@ args = 0, pretend = 0, frame = 0
 152              		@ frame_needed = 0, uses_anonymous_args = 0
 153              		@ link register save eliminated.
 154              	.LVL10:
 155              		.loc 1 81 0
 156 0000 0C30     		adds	r0, r0, #12
 157              	.LVL11:
 158 0002 4FF0FF31 		mov	r1, #-1
 159              		.loc 1 82 0
ARM GAS  /tmp/cc49MGVL.s 			page 4


 160              		.loc 1 81 0
 161 0006 FFF7FEBF 		b	chIQGetTimeout
 162              		.cfi_endproc
 163              	.LFE121:
 164              		.size	get, .-get
 165 000a 00BFAFF3 		.section	.text.putt,"ax",%progbits
 165      0080
 166              		.align	2
 167              		.p2align 4,,15
 168              		.thumb
 169              		.thumb_func
 170              		.type	putt, %function
 171              	putt:
 172              	.LFB122:
 173              		.loc 1 84 0
 174              		.cfi_startproc
 175              		@ args = 0, pretend = 0, frame = 0
 176              		@ frame_needed = 0, uses_anonymous_args = 0
 177              		@ link register save eliminated.
 178              	.LVL12:
 179              		.loc 1 86 0
 180 0000 3030     		adds	r0, r0, #48
 181              	.LVL13:
 182              		.loc 1 87 0
 183              		.loc 1 86 0
 184 0002 FFF7FEBF 		b	chOQPutTimeout
 185              		.cfi_endproc
 186              	.LFE122:
 187              		.size	putt, .-putt
 188 0006 00BFAFF3 		.section	.text.put,"ax",%progbits
 188      0080AFF3 
 188      0080
 189              		.align	2
 190              		.p2align 4,,15
 191              		.thumb
 192              		.thumb_func
 193              		.type	put, %function
 194              	put:
 195              	.LFB120:
 196              		.loc 1 74 0
 197              		.cfi_startproc
 198              		@ args = 0, pretend = 0, frame = 0
 199              		@ frame_needed = 0, uses_anonymous_args = 0
 200              		@ link register save eliminated.
 201              	.LVL14:
 202              		.loc 1 76 0
 203 0000 3030     		adds	r0, r0, #48
 204              	.LVL15:
 205 0002 4FF0FF32 		mov	r2, #-1
 206              		.loc 1 77 0
 207              		.loc 1 76 0
 208 0006 FFF7FEBF 		b	chOQPutTimeout
 209              		.cfi_endproc
 210              	.LFE120:
 211              		.size	put, .-put
 212 000a 00BFAFF3 		.section	.text.sdInit,"ax",%progbits
 212      0080
ARM GAS  /tmp/cc49MGVL.s 			page 5


 213              		.align	2
 214              		.p2align 4,,15
 215              		.global	sdInit
 216              		.thumb
 217              		.thumb_func
 218              		.type	sdInit, %function
 219              	sdInit:
 220              	.LFB126:
 221              		.loc 1 120 0
 222              		.cfi_startproc
 223              		@ args = 0, pretend = 0, frame = 0
 224              		@ frame_needed = 0, uses_anonymous_args = 0
 225              		@ link register save eliminated.
 226              		.loc 1 123 0
 227              		.loc 1 122 0
 228 0000 FFF7FEBF 		b	sd_lld_init
 229              		.cfi_endproc
 230              	.LFE126:
 231              		.size	sdInit, .-sdInit
 232 0004 AFF30080 		.section	.text.sdObjectInit,"ax",%progbits
 232      AFF30080 
 232      AFF30080 
 233              		.align	2
 234              		.p2align 4,,15
 235              		.global	sdObjectInit
 236              		.thumb
 237              		.thumb_func
 238              		.type	sdObjectInit, %function
 239              	sdObjectInit:
 240              	.LFB127:
 241              		.loc 1 140 0
 242              		.cfi_startproc
 243              		@ args = 0, pretend = 0, frame = 0
 244              		@ frame_needed = 0, uses_anonymous_args = 0
 245              	.LVL16:
 246 0000 70B5     		push	{r4, r5, r6, lr}
 247              	.LCFI0:
 248              		.cfi_def_cfa_offset 16
 249              		.loc 1 142 0
 250 0002 40F20003 		movw	r3, #:lower16:.LANCHOR0
 251 0006 0646     		mov	r6, r0
 252              		.cfi_offset 14, -4
 253              		.cfi_offset 6, -8
 254              		.cfi_offset 5, -12
 255              		.cfi_offset 4, -16
 256 0008 C0F20003 		movt	r3, #:upper16:.LANCHOR0
 257              		.loc 1 140 0
 258 000c 0446     		mov	r4, r0
 259              		.loc 1 142 0
 260 000e 46F8043B 		str	r3, [r6], #4
 261              		.loc 1 140 0
 262 0012 82B0     		sub	sp, sp, #8
 263              	.LCFI1:
 264              		.cfi_def_cfa_offset 24
 265              		.loc 1 143 0
 266 0014 6660     		str	r6, [r4, #4]
 267              		.loc 1 144 0
ARM GAS  /tmp/cc49MGVL.s 			page 6


 268 0016 0126     		movs	r6, #1
 269              		.loc 1 140 0
 270 0018 0B46     		mov	r3, r1
 271 001a 1546     		mov	r5, r2
 272              		.loc 1 145 0
 273 001c 04F15401 		add	r1, r4, #84
 274              	.LVL17:
 275 0020 1022     		movs	r2, #16
 276              	.LVL18:
 277              		.loc 1 144 0
 278 0022 2672     		strb	r6, [r4, #8]
 279              		.loc 1 145 0
 280 0024 0C30     		adds	r0, r0, #12
 281              	.LVL19:
 282 0026 0094     		str	r4, [sp, #0]
 283 0028 FFF7FEFF 		bl	chIQInit
 284              	.LVL20:
 285              		.loc 1 146 0
 286 002c 04F13000 		add	r0, r4, #48
 287 0030 04F16401 		add	r1, r4, #100
 288 0034 1022     		movs	r2, #16
 289 0036 2B46     		mov	r3, r5
 290 0038 0094     		str	r4, [sp, #0]
 291 003a FFF7FEFF 		bl	chOQInit
 292              		.loc 1 147 0
 293 003e 02B0     		add	sp, sp, #8
 294 0040 70BD     		pop	{r4, r5, r6, pc}
 295              		.cfi_endproc
 296              	.LFE127:
 297              		.size	sdObjectInit, .-sdObjectInit
 298 0042 00BFAFF3 		.section	.text.sdStart,"ax",%progbits
 298      0080AFF3 
 298      0080AFF3 
 298      0080
 299              		.align	2
 300              		.p2align 4,,15
 301              		.global	sdStart
 302              		.thumb
 303              		.thumb_func
 304              		.type	sdStart, %function
 305              	sdStart:
 306              	.LFB128:
 307              		.loc 1 159 0
 308              		.cfi_startproc
 309              		@ args = 0, pretend = 0, frame = 0
 310              		@ frame_needed = 0, uses_anonymous_args = 0
 311              	.LVL21:
 312 0000 10B5     		push	{r4, lr}
 313              	.LCFI2:
 314              		.cfi_def_cfa_offset 8
 315              	.LBB2:
 316              		.loc 1 163 0
 317 0002 2023     		movs	r3, #32
 318              	.LVL22:
 319              	.LBE2:
 320              		.loc 1 159 0
 321 0004 0446     		mov	r4, r0
ARM GAS  /tmp/cc49MGVL.s 			page 7


 322              		.cfi_offset 14, -4
 323              		.cfi_offset 4, -8
 324              	.LBB3:
 325              		.loc 1 163 0
 326              	@ 163 "../ChibiOS_2.6.2/os/hal/src/serial.c" 1
 327 0006 83F31188 		msr     BASEPRI, r3
 328              	@ 0 "" 2
 329              	.LVL23:
 330              		.thumb
 331              	.LBE3:
 332              		.loc 1 167 0
 333 000a FFF7FEFF 		bl	sd_lld_start
 334              	.LVL24:
 335              		.loc 1 168 0
 336 000e 0223     		movs	r3, #2
 337 0010 2372     		strb	r3, [r4, #8]
 338              	.LBB4:
 339              		.loc 1 169 0
 340 0012 0023     		movs	r3, #0
 341              	.LVL25:
 342              	@ 169 "../ChibiOS_2.6.2/os/hal/src/serial.c" 1
 343 0014 83F31188 		msr     BASEPRI, r3
 344              	@ 0 "" 2
 345              	.LVL26:
 346              		.thumb
 347              	.LBE4:
 348              		.loc 1 170 0
 349 0018 10BD     		pop	{r4, pc}
 350              		.cfi_endproc
 351              	.LFE128:
 352              		.size	sdStart, .-sdStart
 353 001a 00BFAFF3 		.section	.text.sdStop,"ax",%progbits
 353      0080
 354              		.align	2
 355              		.p2align 4,,15
 356              		.global	sdStop
 357              		.thumb
 358              		.thumb_func
 359              		.type	sdStop, %function
 360              	sdStop:
 361              	.LFB129:
 362              		.loc 1 181 0
 363              		.cfi_startproc
 364              		@ args = 0, pretend = 0, frame = 0
 365              		@ frame_needed = 0, uses_anonymous_args = 0
 366              	.LVL27:
 367 0000 10B5     		push	{r4, lr}
 368              	.LCFI3:
 369              		.cfi_def_cfa_offset 8
 370              	.LBB5:
 371              		.loc 1 185 0
 372 0002 2023     		movs	r3, #32
 373              	.LVL28:
 374              	.LBE5:
 375              		.loc 1 181 0
 376 0004 0446     		mov	r4, r0
 377              		.cfi_offset 14, -4
ARM GAS  /tmp/cc49MGVL.s 			page 8


 378              		.cfi_offset 4, -8
 379              	.LBB6:
 380              		.loc 1 185 0
 381              	@ 185 "../ChibiOS_2.6.2/os/hal/src/serial.c" 1
 382 0006 83F31188 		msr     BASEPRI, r3
 383              	@ 0 "" 2
 384              	.LVL29:
 385              		.thumb
 386              	.LBE6:
 387              		.loc 1 189 0
 388 000a FFF7FEFF 		bl	sd_lld_stop
 389              	.LVL30:
 390              		.loc 1 190 0
 391 000e 0123     		movs	r3, #1
 392 0010 2372     		strb	r3, [r4, #8]
 393              		.loc 1 191 0
 394 0012 04F13000 		add	r0, r4, #48
 395 0016 FFF7FEFF 		bl	chOQResetI
 396              		.loc 1 192 0
 397 001a 04F10C00 		add	r0, r4, #12
 398 001e FFF7FEFF 		bl	chIQResetI
 399              		.loc 1 193 0
 400 0022 FFF7FEFF 		bl	chSchRescheduleS
 401              	.LBB7:
 402              		.loc 1 194 0
 403 0026 0023     		movs	r3, #0
 404              	.LVL31:
 405              	@ 194 "../ChibiOS_2.6.2/os/hal/src/serial.c" 1
 406 0028 83F31188 		msr     BASEPRI, r3
 407              	@ 0 "" 2
 408              	.LVL32:
 409              		.thumb
 410              	.LBE7:
 411              		.loc 1 195 0
 412 002c 10BD     		pop	{r4, pc}
 413              		.cfi_endproc
 414              	.LFE129:
 415              		.size	sdStop, .-sdStop
 416 002e 00BF     		.section	.text.sdIncomingDataI,"ax",%progbits
 417              		.align	2
 418              		.p2align 4,,15
 419              		.global	sdIncomingDataI
 420              		.thumb
 421              		.thumb_func
 422              		.type	sdIncomingDataI, %function
 423              	sdIncomingDataI:
 424              	.LFB130:
 425              		.loc 1 213 0
 426              		.cfi_startproc
 427              		@ args = 0, pretend = 0, frame = 0
 428              		@ frame_needed = 0, uses_anonymous_args = 0
 429              	.LVL33:
 430              		.loc 1 218 0
 431 0000 4369     		ldr	r3, [r0, #20]
 432              		.loc 1 213 0
 433 0002 70B5     		push	{r4, r5, r6, lr}
 434              	.LCFI4:
ARM GAS  /tmp/cc49MGVL.s 			page 9


 435              		.cfi_def_cfa_offset 16
 436              		.loc 1 213 0
 437 0004 0446     		mov	r4, r0
 438              		.cfi_offset 14, -4
 439              		.cfi_offset 6, -8
 440              		.cfi_offset 5, -12
 441              		.cfi_offset 4, -16
 442 0006 0D46     		mov	r5, r1
 443              		.loc 1 218 0
 444 0008 3BB1     		cbz	r3, .L17
 445              		.loc 1 220 0
 446 000a 04F10C00 		add	r0, r4, #12
 447              	.LVL34:
 448 000e 2946     		mov	r1, r5
 449              	.LVL35:
 450 0010 FFF7FEFF 		bl	chIQPutI
 451 0014 0028     		cmp	r0, #0
 452 0016 0BDB     		blt	.L18
 453              	.L13:
 454 0018 70BD     		pop	{r4, r5, r6, pc}
 455              	.LVL36:
 456              	.L17:
 457              		.loc 1 219 0
 458 001a 0430     		adds	r0, r0, #4
 459 001c 0421     		movs	r1, #4
 460              	.LVL37:
 461 001e FFF7FEFF 		bl	chEvtBroadcastFlagsI
 462              		.loc 1 220 0
 463 0022 04F10C00 		add	r0, r4, #12
 464 0026 2946     		mov	r1, r5
 465 0028 FFF7FEFF 		bl	chIQPutI
 466 002c 0028     		cmp	r0, #0
 467 002e F3DA     		bge	.L13
 468              	.L18:
 469              		.loc 1 221 0
 470 0030 201D     		adds	r0, r4, #4
 471 0032 8021     		movs	r1, #128
 472              		.loc 1 222 0
 473 0034 BDE87040 		pop	{r4, r5, r6, lr}
 474              		.loc 1 221 0
 475 0038 FFF7FEBF 		b	chEvtBroadcastFlagsI
 476              		.cfi_endproc
 477              	.LFE130:
 478              		.size	sdIncomingDataI, .-sdIncomingDataI
 479 003c AFF30080 		.section	.text.sdRequestDataI,"ax",%progbits
 480              		.align	2
 481              		.p2align 4,,15
 482              		.global	sdRequestDataI
 483              		.thumb
 484              		.thumb_func
 485              		.type	sdRequestDataI, %function
 486              	sdRequestDataI:
 487              	.LFB131:
 488              		.loc 1 239 0
 489              		.cfi_startproc
 490              		@ args = 0, pretend = 0, frame = 0
 491              		@ frame_needed = 0, uses_anonymous_args = 0
ARM GAS  /tmp/cc49MGVL.s 			page 10


 492              	.LVL38:
 493 0000 38B5     		push	{r3, r4, r5, lr}
 494              	.LCFI5:
 495              		.cfi_def_cfa_offset 16
 496              		.loc 1 239 0
 497 0002 0546     		mov	r5, r0
 498              		.cfi_offset 14, -4
 499              		.cfi_offset 5, -8
 500              		.cfi_offset 4, -12
 501              		.cfi_offset 3, -16
 502              		.loc 1 245 0
 503 0004 3030     		adds	r0, r0, #48
 504              	.LVL39:
 505 0006 FFF7FEFF 		bl	chOQGetI
 506              	.LVL40:
 507              		.loc 1 246 0
 508 000a 041E     		subs	r4, r0, #0
 509 000c 01DB     		blt	.L21
 510              		.loc 1 249 0
 511 000e 2046     		mov	r0, r4
 512 0010 38BD     		pop	{r3, r4, r5, pc}
 513              	.L21:
 514              		.loc 1 247 0
 515 0012 281D     		adds	r0, r5, #4
 516              	.LVL41:
 517 0014 0821     		movs	r1, #8
 518 0016 FFF7FEFF 		bl	chEvtBroadcastFlagsI
 519              		.loc 1 249 0
 520 001a 2046     		mov	r0, r4
 521 001c 38BD     		pop	{r3, r4, r5, pc}
 522              		.cfi_endproc
 523              	.LFE131:
 524              		.size	sdRequestDataI, .-sdRequestDataI
 525 001e 00BF     		.section	.rodata.vmt,"a",%progbits
 526              		.align	2
 527              		.set	.LANCHOR0,. + 0
 528              		.type	vmt, %object
 529              		.size	vmt, 32
 530              	vmt:
 531 0000 00000000 		.word	write
 532 0004 00000000 		.word	read
 533 0008 00000000 		.word	put
 534 000c 00000000 		.word	get
 535 0010 00000000 		.word	putt
 536 0014 00000000 		.word	gett
 537 0018 00000000 		.word	writet
 538 001c 00000000 		.word	readt
 539              		.text
 540              	.Letext0: