ARM GAS  /tmp/cc2Qz9LY.s 			page 1


   1              		.syntax unified
   2              		.cpu cortex-m4
   3              		.fpu softvfp
   4              		.eabi_attribute 20, 1
   5              		.eabi_attribute 21, 1
   6              		.eabi_attribute 23, 3
   7              		.eabi_attribute 24, 1
   8              		.eabi_attribute 25, 1
   9              		.eabi_attribute 26, 1
  10              		.eabi_attribute 30, 2
  11              		.eabi_attribute 18, 4
  12              		.thumb
  13              		.file	"spi.c"
  20 0000 34040000 		.text
  20      0200D402 
  20      00000201 
  20      FB0E0D00 
  20      01010101 
  21              	.Ltext0:
  22              		.cfi_sections	.debug_frame
  23              		.section	.text.spiInit,"ax",%progbits
  24              		.align	2
  25              		.p2align 4,,15
  26              		.global	spiInit
  27              		.thumb
  28              		.thumb_func
  29              		.type	spiInit, %function
  30              	spiInit:
  31              	.LFB118:
  32              		.file 1 "../ChibiOS_2.6.2/os/hal/src/spi.c"
  33              		.loc 1 68 0
  34              		.cfi_startproc
  35              		@ args = 0, pretend = 0, frame = 0
  36              		@ frame_needed = 0, uses_anonymous_args = 0
  37              		@ link register save eliminated.
  38              		.loc 1 71 0
  39              		.loc 1 70 0
  40 0000 FFF7FEBF 		b	spi_lld_init
  41              		.cfi_endproc
  42              	.LFE118:
  43              		.size	spiInit, .-spiInit
  44 0004 AFF30080 		.section	.text.spiObjectInit,"ax",%progbits
  44      AFF30080 
  44      AFF30080 
  45              		.align	2
  46              		.p2align 4,,15
  47              		.global	spiObjectInit
  48              		.thumb
  49              		.thumb_func
  50              		.type	spiObjectInit, %function
  51              	spiObjectInit:
ARM GAS  /tmp/cc2Qz9LY.s 			page 2


  52              	.LFB119:
  53              		.loc 1 80 0
  54              		.cfi_startproc
  55              		@ args = 0, pretend = 0, frame = 0
  56              		@ frame_needed = 0, uses_anonymous_args = 0
  57              		@ link register save eliminated.
  58              	.LVL0:
  59              		.loc 1 83 0
  60 0000 0023     		movs	r3, #0
  61              		.loc 1 82 0
  62 0002 0122     		movs	r2, #1
  63 0004 0270     		strb	r2, [r0, #0]
  64              		.loc 1 83 0
  65 0006 4360     		str	r3, [r0, #4]
  66              		.loc 1 85 0
  67 0008 8360     		str	r3, [r0, #8]
  68              		.loc 1 89 0
  69 000a 0C30     		adds	r0, r0, #12
  70              	.LVL1:
  71              		.loc 1 97 0
  72              		.loc 1 89 0
  73 000c FFF7FEBF 		b	chMtxInit
  74              		.cfi_endproc
  75              	.LFE119:
  76              		.size	spiObjectInit, .-spiObjectInit
  77              		.section	.text.spiStart,"ax",%progbits
  78              		.align	2
  79              		.p2align 4,,15
  80              		.global	spiStart
  81              		.thumb
  82              		.thumb_func
  83              		.type	spiStart, %function
  84              	spiStart:
  85              	.LFB120:
  86              		.loc 1 107 0
  87              		.cfi_startproc
  88              		@ args = 0, pretend = 0, frame = 0
  89              		@ frame_needed = 0, uses_anonymous_args = 0
  90              	.LVL2:
  91 0000 10B5     		push	{r4, lr}
  92              	.LCFI0:
  93              		.cfi_def_cfa_offset 8
  94              	.LBB2:
  95              		.loc 1 111 0
  96 0002 2023     		movs	r3, #32
  97              	.LVL3:
  98              	.LBE2:
  99              		.loc 1 107 0
 100 0004 0446     		mov	r4, r0
 101              		.cfi_offset 14, -4
 102              		.cfi_offset 4, -8
 103              	.LBB3:
 104              		.loc 1 111 0
 105              	@ 111 "../ChibiOS_2.6.2/os/hal/src/spi.c" 1
 106 0006 83F31188 		msr     BASEPRI, r3
 107              	@ 0 "" 2
 108              	.LVL4:
ARM GAS  /tmp/cc2Qz9LY.s 			page 3


 109              		.thumb
 110              	.LBE3:
 111              		.loc 1 114 0
 112 000a 4160     		str	r1, [r0, #4]
 113              		.loc 1 115 0
 114 000c FFF7FEFF 		bl	spi_lld_start
 115              	.LVL5:
 116              		.loc 1 116 0
 117 0010 0223     		movs	r3, #2
 118 0012 2370     		strb	r3, [r4, #0]
 119              	.LBB4:
 120              		.loc 1 117 0
 121 0014 0023     		movs	r3, #0
 122              	.LVL6:
 123              	@ 117 "../ChibiOS_2.6.2/os/hal/src/spi.c" 1
 124 0016 83F31188 		msr     BASEPRI, r3
 125              	@ 0 "" 2
 126              	.LVL7:
 127              		.thumb
 128              	.LBE4:
 129              		.loc 1 118 0
 130 001a 10BD     		pop	{r4, pc}
 131              		.cfi_endproc
 132              	.LFE120:
 133              		.size	spiStart, .-spiStart
 134 001c AFF30080 		.section	.text.spiStop,"ax",%progbits
 135              		.align	2
 136              		.p2align 4,,15
 137              		.global	spiStop
 138              		.thumb
 139              		.thumb_func
 140              		.type	spiStop, %function
 141              	spiStop:
 142              	.LFB121:
 143              		.loc 1 129 0
 144              		.cfi_startproc
 145              		@ args = 0, pretend = 0, frame = 0
 146              		@ frame_needed = 0, uses_anonymous_args = 0
 147              	.LVL8:
 148 0000 10B5     		push	{r4, lr}
 149              	.LCFI1:
 150              		.cfi_def_cfa_offset 8
 151              	.LBB5:
 152              		.loc 1 133 0
 153 0002 2023     		movs	r3, #32
 154              	.LVL9:
 155              	.LBE5:
 156              		.loc 1 129 0
 157 0004 0446     		mov	r4, r0
 158              		.cfi_offset 14, -4
 159              		.cfi_offset 4, -8
 160              	.LBB6:
 161              		.loc 1 133 0
 162              	@ 133 "../ChibiOS_2.6.2/os/hal/src/spi.c" 1
 163 0006 83F31188 		msr     BASEPRI, r3
 164              	@ 0 "" 2
 165              	.LVL10:
ARM GAS  /tmp/cc2Qz9LY.s 			page 4


 166              		.thumb
 167              	.LBE6:
 168              		.loc 1 136 0
 169 000a FFF7FEFF 		bl	spi_lld_unselect
 170              	.LVL11:
 171              		.loc 1 137 0
 172 000e 2046     		mov	r0, r4
 173 0010 FFF7FEFF 		bl	spi_lld_stop
 174              		.loc 1 138 0
 175 0014 0123     		movs	r3, #1
 176 0016 2370     		strb	r3, [r4, #0]
 177              	.LBB7:
 178              		.loc 1 139 0
 179 0018 0023     		movs	r3, #0
 180              	.LVL12:
 181              	@ 139 "../ChibiOS_2.6.2/os/hal/src/spi.c" 1
 182 001a 83F31188 		msr     BASEPRI, r3
 183              	@ 0 "" 2
 184              	.LVL13:
 185              		.thumb
 186              	.LBE7:
 187              		.loc 1 140 0
 188 001e 10BD     		pop	{r4, pc}
 189              		.cfi_endproc
 190              	.LFE121:
 191              		.size	spiStop, .-spiStop
 192              		.section	.text.spiSelect,"ax",%progbits
 193              		.align	2
 194              		.p2align 4,,15
 195              		.global	spiSelect
 196              		.thumb
 197              		.thumb_func
 198              		.type	spiSelect, %function
 199              	spiSelect:
 200              	.LFB122:
 201              		.loc 1 149 0
 202              		.cfi_startproc
 203              		@ args = 0, pretend = 0, frame = 0
 204              		@ frame_needed = 0, uses_anonymous_args = 0
 205              	.LVL14:
 206 0000 08B5     		push	{r3, lr}
 207              	.LCFI2:
 208              		.cfi_def_cfa_offset 8
 209              	.LBB8:
 210              		.loc 1 153 0
 211 0002 2023     		movs	r3, #32
 212              		.cfi_offset 14, -4
 213              		.cfi_offset 3, -8
 214              	.LVL15:
 215              	@ 153 "../ChibiOS_2.6.2/os/hal/src/spi.c" 1
 216 0004 83F31188 		msr     BASEPRI, r3
 217              	@ 0 "" 2
 218              	.LVL16:
 219              		.thumb
 220              	.LBE8:
 221              		.loc 1 155 0
 222 0008 FFF7FEFF 		bl	spi_lld_select
ARM GAS  /tmp/cc2Qz9LY.s 			page 5


 223              	.LVL17:
 224              	.LBB9:
 225              		.loc 1 156 0
 226 000c 0023     		movs	r3, #0
 227              	.LVL18:
 228              	@ 156 "../ChibiOS_2.6.2/os/hal/src/spi.c" 1
 229 000e 83F31188 		msr     BASEPRI, r3
 230              	@ 0 "" 2
 231              	.LVL19:
 232              		.thumb
 233              	.LBE9:
 234              		.loc 1 157 0
 235 0012 08BD     		pop	{r3, pc}
 236              		.cfi_endproc
 237              	.LFE122:
 238              		.size	spiSelect, .-spiSelect
 239 0014 AFF30080 		.section	.text.spiUnselect,"ax",%progbits
 239      AFF30080 
 239      AFF30080 
 240              		.align	2
 241              		.p2align 4,,15
 242              		.global	spiUnselect
 243              		.thumb
 244              		.thumb_func
 245              		.type	spiUnselect, %function
 246              	spiUnselect:
 247              	.LFB123:
 248              		.loc 1 167 0
 249              		.cfi_startproc
 250              		@ args = 0, pretend = 0, frame = 0
 251              		@ frame_needed = 0, uses_anonymous_args = 0
 252              	.LVL20:
 253 0000 08B5     		push	{r3, lr}
 254              	.LCFI3:
 255              		.cfi_def_cfa_offset 8
 256              	.LBB10:
 257              		.loc 1 171 0
 258 0002 2023     		movs	r3, #32
 259              		.cfi_offset 14, -4
 260              		.cfi_offset 3, -8
 261              	.LVL21:
 262              	@ 171 "../ChibiOS_2.6.2/os/hal/src/spi.c" 1
 263 0004 83F31188 		msr     BASEPRI, r3
 264              	@ 0 "" 2
 265              	.LVL22:
 266              		.thumb
 267              	.LBE10:
 268              		.loc 1 173 0
 269 0008 FFF7FEFF 		bl	spi_lld_unselect
 270              	.LVL23:
 271              	.LBB11:
 272              		.loc 1 174 0
 273 000c 0023     		movs	r3, #0
 274              	.LVL24:
 275              	@ 174 "../ChibiOS_2.6.2/os/hal/src/spi.c" 1
 276 000e 83F31188 		msr     BASEPRI, r3
 277              	@ 0 "" 2
ARM GAS  /tmp/cc2Qz9LY.s 			page 6


 278              	.LVL25:
 279              		.thumb
 280              	.LBE11:
 281              		.loc 1 175 0
 282 0012 08BD     		pop	{r3, pc}
 283              		.cfi_endproc
 284              	.LFE123:
 285              		.size	spiUnselect, .-spiUnselect
 286 0014 AFF30080 		.section	.text.spiStartIgnore,"ax",%progbits
 286      AFF30080 
 286      AFF30080 
 287              		.align	2
 288              		.p2align 4,,15
 289              		.global	spiStartIgnore
 290              		.thumb
 291              		.thumb_func
 292              		.type	spiStartIgnore, %function
 293              	spiStartIgnore:
 294              	.LFB124:
 295              		.loc 1 190 0
 296              		.cfi_startproc
 297              		@ args = 0, pretend = 0, frame = 0
 298              		@ frame_needed = 0, uses_anonymous_args = 0
 299              	.LVL26:
 300 0000 08B5     		push	{r3, lr}
 301              	.LCFI4:
 302              		.cfi_def_cfa_offset 8
 303              	.LBB12:
 304              		.loc 1 194 0
 305 0002 2023     		movs	r3, #32
 306              		.cfi_offset 14, -4
 307              		.cfi_offset 3, -8
 308              	.LVL27:
 309              	@ 194 "../ChibiOS_2.6.2/os/hal/src/spi.c" 1
 310 0004 83F31188 		msr     BASEPRI, r3
 311              	@ 0 "" 2
 312              	.LVL28:
 313              		.thumb
 314              	.LBE12:
 315              		.loc 1 196 0
 316 0008 0323     		movs	r3, #3
 317              	.LVL29:
 318 000a 0370     		strb	r3, [r0, #0]
 319 000c FFF7FEFF 		bl	spi_lld_ignore
 320              	.LVL30:
 321              	.LBB13:
 322              		.loc 1 197 0
 323 0010 0023     		movs	r3, #0
 324              	.LVL31:
 325              	@ 197 "../ChibiOS_2.6.2/os/hal/src/spi.c" 1
 326 0012 83F31188 		msr     BASEPRI, r3
 327              	@ 0 "" 2
 328              	.LVL32:
 329              		.thumb
 330              	.LBE13:
 331              		.loc 1 198 0
 332 0016 08BD     		pop	{r3, pc}
ARM GAS  /tmp/cc2Qz9LY.s 			page 7


 333              		.cfi_endproc
 334              	.LFE124:
 335              		.size	spiStartIgnore, .-spiStartIgnore
 336 0018 AFF30080 		.section	.text.spiStartExchange,"ax",%progbits
 336      AFF30080 
 337              		.align	2
 338              		.p2align 4,,15
 339              		.global	spiStartExchange
 340              		.thumb
 341              		.thumb_func
 342              		.type	spiStartExchange, %function
 343              	spiStartExchange:
 344              	.LFB125:
 345              		.loc 1 218 0
 346              		.cfi_startproc
 347              		@ args = 0, pretend = 0, frame = 0
 348              		@ frame_needed = 0, uses_anonymous_args = 0
 349              	.LVL33:
 350 0000 38B5     		push	{r3, r4, r5, lr}
 351              	.LCFI5:
 352              		.cfi_def_cfa_offset 16
 353              		.loc 1 218 0
 354 0002 1D46     		mov	r5, r3
 355              		.cfi_offset 14, -4
 356              		.cfi_offset 5, -8
 357              		.cfi_offset 4, -12
 358              		.cfi_offset 3, -16
 359 0004 0446     		mov	r4, r0
 360              	.LBB14:
 361              		.loc 1 223 0
 362 0006 2023     		movs	r3, #32
 363              	.LVL34:
 364              	@ 223 "../ChibiOS_2.6.2/os/hal/src/spi.c" 1
 365 0008 83F31188 		msr     BASEPRI, r3
 366              	@ 0 "" 2
 367              	.LVL35:
 368              		.thumb
 369              	.LBE14:
 370              		.loc 1 225 0
 371 000c 2B46     		mov	r3, r5
 372              	.LVL36:
 373 000e 0325     		movs	r5, #3
 374              	.LVL37:
 375 0010 0570     		strb	r5, [r0, #0]
 376 0012 FFF7FEFF 		bl	spi_lld_exchange
 377              	.LVL38:
 378              	.LBB15:
 379              		.loc 1 226 0
 380 0016 0023     		movs	r3, #0
 381              	.LVL39:
 382              	@ 226 "../ChibiOS_2.6.2/os/hal/src/spi.c" 1
 383 0018 83F31188 		msr     BASEPRI, r3
 384              	@ 0 "" 2
 385              	.LVL40:
 386              		.thumb
 387              	.LBE15:
 388              		.loc 1 227 0
ARM GAS  /tmp/cc2Qz9LY.s 			page 8


 389 001c 38BD     		pop	{r3, r4, r5, pc}
 390              		.cfi_endproc
 391              	.LFE125:
 392              		.size	spiStartExchange, .-spiStartExchange
 393 001e 00BF     		.section	.text.spiStartSend,"ax",%progbits
 394              		.align	2
 395              		.p2align 4,,15
 396              		.global	spiStartSend
 397              		.thumb
 398              		.thumb_func
 399              		.type	spiStartSend, %function
 400              	spiStartSend:
 401              	.LFB126:
 402              		.loc 1 244 0
 403              		.cfi_startproc
 404              		@ args = 0, pretend = 0, frame = 0
 405              		@ frame_needed = 0, uses_anonymous_args = 0
 406              	.LVL41:
 407 0000 10B5     		push	{r4, lr}
 408              	.LCFI6:
 409              		.cfi_def_cfa_offset 8
 410              	.LBB16:
 411              		.loc 1 249 0
 412 0002 2023     		movs	r3, #32
 413              	.LVL42:
 414              	.LBE16:
 415              		.loc 1 244 0
 416 0004 0446     		mov	r4, r0
 417              		.cfi_offset 14, -4
 418              		.cfi_offset 4, -8
 419              	.LBB17:
 420              		.loc 1 249 0
 421              	@ 249 "../ChibiOS_2.6.2/os/hal/src/spi.c" 1
 422 0006 83F31188 		msr     BASEPRI, r3
 423              	@ 0 "" 2
 424              	.LVL43:
 425              		.thumb
 426              	.LBE17:
 427              		.loc 1 251 0
 428 000a 0323     		movs	r3, #3
 429              	.LVL44:
 430 000c 0370     		strb	r3, [r0, #0]
 431 000e FFF7FEFF 		bl	spi_lld_send
 432              	.LVL45:
 433              	.LBB18:
 434              		.loc 1 252 0
 435 0012 0023     		movs	r3, #0
 436              	.LVL46:
 437              	@ 252 "../ChibiOS_2.6.2/os/hal/src/spi.c" 1
 438 0014 83F31188 		msr     BASEPRI, r3
 439              	@ 0 "" 2
 440              	.LVL47:
 441              		.thumb
 442              	.LBE18:
 443              		.loc 1 253 0
 444 0018 10BD     		pop	{r4, pc}
 445              		.cfi_endproc
ARM GAS  /tmp/cc2Qz9LY.s 			page 9


 446              	.LFE126:
 447              		.size	spiStartSend, .-spiStartSend
 448 001a 00BFAFF3 		.section	.text.spiStartReceive,"ax",%progbits
 448      0080
 449              		.align	2
 450              		.p2align 4,,15
 451              		.global	spiStartReceive
 452              		.thumb
 453              		.thumb_func
 454              		.type	spiStartReceive, %function
 455              	spiStartReceive:
 456              	.LFB127:
 457              		.loc 1 270 0
 458              		.cfi_startproc
 459              		@ args = 0, pretend = 0, frame = 0
 460              		@ frame_needed = 0, uses_anonymous_args = 0
 461              	.LVL48:
 462 0000 10B5     		push	{r4, lr}
 463              	.LCFI7:
 464              		.cfi_def_cfa_offset 8
 465              	.LBB19:
 466              		.loc 1 275 0
 467 0002 2023     		movs	r3, #32
 468              	.LVL49:
 469              	.LBE19:
 470              		.loc 1 270 0
 471 0004 0446     		mov	r4, r0
 472              		.cfi_offset 14, -4
 473              		.cfi_offset 4, -8
 474              	.LBB20:
 475              		.loc 1 275 0
 476              	@ 275 "../ChibiOS_2.6.2/os/hal/src/spi.c" 1
 477 0006 83F31188 		msr     BASEPRI, r3
 478              	@ 0 "" 2
 479              	.LVL50:
 480              		.thumb
 481              	.LBE20:
 482              		.loc 1 277 0
 483 000a 0323     		movs	r3, #3
 484              	.LVL51:
 485 000c 0370     		strb	r3, [r0, #0]
 486 000e FFF7FEFF 		bl	spi_lld_receive
 487              	.LVL52:
 488              	.LBB21:
 489              		.loc 1 278 0
 490 0012 0023     		movs	r3, #0
 491              	.LVL53:
 492              	@ 278 "../ChibiOS_2.6.2/os/hal/src/spi.c" 1
 493 0014 83F31188 		msr     BASEPRI, r3
 494              	@ 0 "" 2
 495              	.LVL54:
 496              		.thumb
 497              	.LBE21:
 498              		.loc 1 279 0
 499 0018 10BD     		pop	{r4, pc}
 500              		.cfi_endproc
 501              	.LFE127:
ARM GAS  /tmp/cc2Qz9LY.s 			page 10


 502              		.size	spiStartReceive, .-spiStartReceive
 503 001a 00BFAFF3 		.section	.text.spiIgnore,"ax",%progbits
 503      0080
 504              		.align	2
 505              		.p2align 4,,15
 506              		.global	spiIgnore
 507              		.thumb
 508              		.thumb_func
 509              		.type	spiIgnore, %function
 510              	spiIgnore:
 511              	.LFB128:
 512              		.loc 1 296 0
 513              		.cfi_startproc
 514              		@ args = 0, pretend = 0, frame = 0
 515              		@ frame_needed = 0, uses_anonymous_args = 0
 516              	.LVL55:
 517 0000 10B5     		push	{r4, lr}
 518              	.LCFI8:
 519              		.cfi_def_cfa_offset 8
 520              	.LBB22:
 521              		.loc 1 300 0
 522 0002 2023     		movs	r3, #32
 523              	.LVL56:
 524              	.LBE22:
 525              		.loc 1 296 0
 526 0004 0446     		mov	r4, r0
 527              		.cfi_offset 14, -4
 528              		.cfi_offset 4, -8
 529              	.LBB23:
 530              		.loc 1 300 0
 531              	@ 300 "../ChibiOS_2.6.2/os/hal/src/spi.c" 1
 532 0006 83F31188 		msr     BASEPRI, r3
 533              	@ 0 "" 2
 534              	.LVL57:
 535              		.thumb
 536              	.LBE23:
 537              		.loc 1 303 0
 538 000a 0322     		movs	r2, #3
 539 000c 0270     		strb	r2, [r0, #0]
 540 000e FFF7FEFF 		bl	spi_lld_ignore
 541              	.LVL58:
 542              		.loc 1 304 0
 543 0012 40F20001 		movw	r1, #:lower16:rlist
 544 0016 C0F20001 		movt	r1, #:upper16:rlist
 545 001a 0220     		movs	r0, #2
 546 001c 8B69     		ldr	r3, [r1, #24]
 547 001e A360     		str	r3, [r4, #8]
 548 0020 FFF7FEFF 		bl	chSchGoSleepS
 549              	.LBB24:
 550              		.loc 1 305 0
 551 0024 0023     		movs	r3, #0
 552              	.LVL59:
 553              	@ 305 "../ChibiOS_2.6.2/os/hal/src/spi.c" 1
 554 0026 83F31188 		msr     BASEPRI, r3
 555              	@ 0 "" 2
 556              	.LVL60:
 557              		.thumb
ARM GAS  /tmp/cc2Qz9LY.s 			page 11


 558              	.LBE24:
 559              		.loc 1 306 0
 560 002a 10BD     		pop	{r4, pc}
 561              		.cfi_endproc
 562              	.LFE128:
 563              		.size	spiIgnore, .-spiIgnore
 564 002c AFF30080 		.section	.text.spiExchange,"ax",%progbits
 565              		.align	2
 566              		.p2align 4,,15
 567              		.global	spiExchange
 568              		.thumb
 569              		.thumb_func
 570              		.type	spiExchange, %function
 571              	spiExchange:
 572              	.LFB129:
 573              		.loc 1 327 0
 574              		.cfi_startproc
 575              		@ args = 0, pretend = 0, frame = 0
 576              		@ frame_needed = 0, uses_anonymous_args = 0
 577              	.LVL61:
 578 0000 38B5     		push	{r3, r4, r5, lr}
 579              	.LCFI9:
 580              		.cfi_def_cfa_offset 16
 581              		.loc 1 327 0
 582 0002 1D46     		mov	r5, r3
 583              		.cfi_offset 14, -4
 584              		.cfi_offset 5, -8
 585              		.cfi_offset 4, -12
 586              		.cfi_offset 3, -16
 587 0004 0446     		mov	r4, r0
 588              	.LBB25:
 589              		.loc 1 332 0
 590 0006 2023     		movs	r3, #32
 591              	.LVL62:
 592              	@ 332 "../ChibiOS_2.6.2/os/hal/src/spi.c" 1
 593 0008 83F31188 		msr     BASEPRI, r3
 594              	@ 0 "" 2
 595              	.LVL63:
 596              		.thumb
 597              	.LBE25:
 598              		.loc 1 336 0
 599 000c 2B46     		mov	r3, r5
 600              	.LVL64:
 601 000e 0325     		movs	r5, #3
 602              	.LVL65:
 603 0010 0570     		strb	r5, [r0, #0]
 604 0012 FFF7FEFF 		bl	spi_lld_exchange
 605              	.LVL66:
 606              		.loc 1 337 0
 607 0016 40F20001 		movw	r1, #:lower16:rlist
 608 001a C0F20001 		movt	r1, #:upper16:rlist
 609 001e 0220     		movs	r0, #2
 610 0020 8B69     		ldr	r3, [r1, #24]
 611 0022 A360     		str	r3, [r4, #8]
 612 0024 FFF7FEFF 		bl	chSchGoSleepS
 613              	.LBB26:
 614              		.loc 1 338 0
ARM GAS  /tmp/cc2Qz9LY.s 			page 12


 615 0028 0023     		movs	r3, #0
 616              	.LVL67:
 617              	@ 338 "../ChibiOS_2.6.2/os/hal/src/spi.c" 1
 618 002a 83F31188 		msr     BASEPRI, r3
 619              	@ 0 "" 2
 620              	.LVL68:
 621              		.thumb
 622              	.LBE26:
 623              		.loc 1 339 0
 624 002e 38BD     		pop	{r3, r4, r5, pc}
 625              		.cfi_endproc
 626              	.LFE129:
 627              		.size	spiExchange, .-spiExchange
 628              		.section	.text.spiSend,"ax",%progbits
 629              		.align	2
 630              		.p2align 4,,15
 631              		.global	spiSend
 632              		.thumb
 633              		.thumb_func
 634              		.type	spiSend, %function
 635              	spiSend:
 636              	.LFB130:
 637              		.loc 1 357 0
 638              		.cfi_startproc
 639              		@ args = 0, pretend = 0, frame = 0
 640              		@ frame_needed = 0, uses_anonymous_args = 0
 641              	.LVL69:
 642 0000 10B5     		push	{r4, lr}
 643              	.LCFI10:
 644              		.cfi_def_cfa_offset 8
 645              	.LBB27:
 646              		.loc 1 361 0
 647 0002 2023     		movs	r3, #32
 648              	.LVL70:
 649              	.LBE27:
 650              		.loc 1 357 0
 651 0004 0446     		mov	r4, r0
 652              		.cfi_offset 14, -4
 653              		.cfi_offset 4, -8
 654              	.LBB28:
 655              		.loc 1 361 0
 656              	@ 361 "../ChibiOS_2.6.2/os/hal/src/spi.c" 1
 657 0006 83F31188 		msr     BASEPRI, r3
 658              	@ 0 "" 2
 659              	.LVL71:
 660              		.thumb
 661              	.LBE28:
 662              		.loc 1 364 0
 663 000a 0323     		movs	r3, #3
 664              	.LVL72:
 665 000c 0370     		strb	r3, [r0, #0]
 666 000e FFF7FEFF 		bl	spi_lld_send
 667              	.LVL73:
 668              		.loc 1 365 0
 669 0012 40F20001 		movw	r1, #:lower16:rlist
 670 0016 C0F20001 		movt	r1, #:upper16:rlist
 671 001a 0220     		movs	r0, #2
ARM GAS  /tmp/cc2Qz9LY.s 			page 13


 672 001c 8B69     		ldr	r3, [r1, #24]
 673 001e A360     		str	r3, [r4, #8]
 674 0020 FFF7FEFF 		bl	chSchGoSleepS
 675              	.LBB29:
 676              		.loc 1 366 0
 677 0024 0023     		movs	r3, #0
 678              	.LVL74:
 679              	@ 366 "../ChibiOS_2.6.2/os/hal/src/spi.c" 1
 680 0026 83F31188 		msr     BASEPRI, r3
 681              	@ 0 "" 2
 682              	.LVL75:
 683              		.thumb
 684              	.LBE29:
 685              		.loc 1 367 0
 686 002a 10BD     		pop	{r4, pc}
 687              		.cfi_endproc
 688              	.LFE130:
 689              		.size	spiSend, .-spiSend
 690 002c AFF30080 		.section	.text.spiReceive,"ax",%progbits
 691              		.align	2
 692              		.p2align 4,,15
 693              		.global	spiReceive
 694              		.thumb
 695              		.thumb_func
 696              		.type	spiReceive, %function
 697              	spiReceive:
 698              	.LFB131:
 699              		.loc 1 385 0
 700              		.cfi_startproc
 701              		@ args = 0, pretend = 0, frame = 0
 702              		@ frame_needed = 0, uses_anonymous_args = 0
 703              	.LVL76:
 704 0000 10B5     		push	{r4, lr}
 705              	.LCFI11:
 706              		.cfi_def_cfa_offset 8
 707              	.LBB30:
 708              		.loc 1 390 0
 709 0002 2023     		movs	r3, #32
 710              	.LVL77:
 711              	.LBE30:
 712              		.loc 1 385 0
 713 0004 0446     		mov	r4, r0
 714              		.cfi_offset 14, -4
 715              		.cfi_offset 4, -8
 716              	.LBB31:
 717              		.loc 1 390 0
 718              	@ 390 "../ChibiOS_2.6.2/os/hal/src/spi.c" 1
 719 0006 83F31188 		msr     BASEPRI, r3
 720              	@ 0 "" 2
 721              	.LVL78:
 722              		.thumb
 723              	.LBE31:
 724              		.loc 1 394 0
 725 000a 0323     		movs	r3, #3
 726              	.LVL79:
 727 000c 0370     		strb	r3, [r0, #0]
 728 000e FFF7FEFF 		bl	spi_lld_receive
ARM GAS  /tmp/cc2Qz9LY.s 			page 14


 729              	.LVL80:
 730              		.loc 1 395 0
 731 0012 40F20001 		movw	r1, #:lower16:rlist
 732 0016 C0F20001 		movt	r1, #:upper16:rlist
 733 001a 0220     		movs	r0, #2
 734 001c 8B69     		ldr	r3, [r1, #24]
 735 001e A360     		str	r3, [r4, #8]
 736 0020 FFF7FEFF 		bl	chSchGoSleepS
 737              	.LBB32:
 738              		.loc 1 396 0
 739 0024 0023     		movs	r3, #0
 740              	.LVL81:
 741              	@ 396 "../ChibiOS_2.6.2/os/hal/src/spi.c" 1
 742 0026 83F31188 		msr     BASEPRI, r3
 743              	@ 0 "" 2
 744              	.LVL82:
 745              		.thumb
 746              	.LBE32:
 747              		.loc 1 397 0
 748 002a 10BD     		pop	{r4, pc}
 749              		.cfi_endproc
 750              	.LFE131:
 751              		.size	spiReceive, .-spiReceive
 752 002c AFF30080 		.section	.text.spiAcquireBus,"ax",%progbits
 753              		.align	2
 754              		.p2align 4,,15
 755              		.global	spiAcquireBus
 756              		.thumb
 757              		.thumb_func
 758              		.type	spiAcquireBus, %function
 759              	spiAcquireBus:
 760              	.LFB132:
 761              		.loc 1 412 0
 762              		.cfi_startproc
 763              		@ args = 0, pretend = 0, frame = 0
 764              		@ frame_needed = 0, uses_anonymous_args = 0
 765              		@ link register save eliminated.
 766              	.LVL83:
 767              		.loc 1 417 0
 768 0000 0C30     		adds	r0, r0, #12
 769              	.LVL84:
 770              		.loc 1 421 0
 771              		.loc 1 417 0
 772 0002 FFF7FEBF 		b	chMtxLock
 773              		.cfi_endproc
 774              	.LFE132:
 775              		.size	spiAcquireBus, .-spiAcquireBus
 776 0006 00BFAFF3 		.section	.text.spiReleaseBus,"ax",%progbits
 776      0080AFF3 
 776      0080
 777              		.align	2
 778              		.p2align 4,,15
 779              		.global	spiReleaseBus
 780              		.thumb
 781              		.thumb_func
 782              		.type	spiReleaseBus, %function
 783              	spiReleaseBus:
ARM GAS  /tmp/cc2Qz9LY.s 			page 15


 784              	.LFB133:
 785              		.loc 1 432 0
 786              		.cfi_startproc
 787              		@ args = 0, pretend = 0, frame = 0
 788              		@ frame_needed = 0, uses_anonymous_args = 0
 789              		@ link register save eliminated.
 790              	.LVL85:
 791              		.loc 1 442 0
 792              		.loc 1 438 0
 793 0000 FFF7FEBF 		b	chMtxUnlock
 794              		.cfi_endproc
 795              	.LFE133:
 796              		.size	spiReleaseBus, .-spiReleaseBus
 797 0004 AFF30080 		.text
 797      AFF30080 
 797      AFF30080 
 798              	.Letext0: