ARM GAS  /tmp/ccsKDGz9.s 			page 1


   1              		.syntax unified
   2              		.cpu cortex-m4
   3              		.fpu softvfp
   4              		.eabi_attribute 20, 1
   5              		.eabi_attribute 21, 1
   6              		.eabi_attribute 23, 3
   7              		.eabi_attribute 24, 1
   8              		.eabi_attribute 25, 1
   9              		.eabi_attribute 26, 1
  10              		.eabi_attribute 30, 2
  11              		.eabi_attribute 18, 4
  12              		.thumb
  13              		.file	"spi_lld.c"
  20 0000 A1040000 		.text
  20      0200B002 
  20      00000201 
  20      FB0E0D00 
  20      01010101 
  21              	.Ltext0:
  22              		.cfi_sections	.debug_frame
  23              		.section	.text.spi_lld_serve_tx_interrupt,"ax",%progbits
  24              		.align	2
  25              		.p2align 4,,15
  26              		.thumb
  27              		.thumb_func
  28              		.type	spi_lld_serve_tx_interrupt, %function
  29              	spi_lld_serve_tx_interrupt:
  30              	.LFB119:
  31              		.file 1 "../ChibiOS_2.6.2/os/hal/platforms/STM32/SPIv1/spi_lld.c"
  32              		.loc 1 159 0
  33              		.cfi_startproc
  34              		@ args = 0, pretend = 0, frame = 0
  35              		@ frame_needed = 0, uses_anonymous_args = 0
  36              		@ link register save eliminated.
  37              	.LVL0:
  38              		.loc 1 164 0
  39 0000 11F00C0F 		tst	r1, #12
  40 0004 00D1     		bne	.L4
  41 0006 7047     		bx	lr
  42              	.L4:
  43              		.loc 1 171 0
  44              		.loc 1 165 0
  45 0008 FFF7FEBF 		b	port_halt
  46              		.cfi_endproc
  47              	.LFE119:
  48              		.size	spi_lld_serve_tx_interrupt, .-spi_lld_serve_tx_interrupt
  49 000c AFF30080 		.section	.text.spi_lld_serve_rx_interrupt,"ax",%progbits
  50              		.align	2
  51              		.p2align 4,,15
  52              		.thumb
  53              		.thumb_func
ARM GAS  /tmp/ccsKDGz9.s 			page 2


  54              		.type	spi_lld_serve_rx_interrupt, %function
  55              	spi_lld_serve_rx_interrupt:
  56              	.LFB118:
  57              		.loc 1 133 0
  58              		.cfi_startproc
  59              		@ args = 0, pretend = 0, frame = 0
  60              		@ frame_needed = 0, uses_anonymous_args = 0
  61              	.LVL1:
  62              		.loc 1 137 0
  63 0000 11F00C0F 		tst	r1, #12
  64              		.loc 1 133 0
  65 0004 38B5     		push	{r3, r4, r5, lr}
  66              	.LCFI0:
  67              		.cfi_def_cfa_offset 16
  68              		.loc 1 133 0
  69 0006 0446     		mov	r4, r0
  70              		.cfi_offset 14, -4
  71              		.cfi_offset 5, -8
  72              		.cfi_offset 4, -12
  73              		.cfi_offset 3, -16
  74              		.loc 1 137 0
  75 0008 3BD1     		bne	.L14
  76              	.LVL2:
  77              	.L6:
  78              		.loc 1 145 0
  79 000a 606A     		ldr	r0, [r4, #36]
  80 000c 0268     		ldr	r2, [r0, #0]
  81 000e 1168     		ldr	r1, [r2, #0]
  82 0010 21F01F03 		bic	r3, r1, #31
  83 0014 1360     		str	r3, [r2, #0]
  84              	.L7:
  85              		.loc 1 145 0 is_stmt 0 discriminator 1
  86 0016 1568     		ldr	r5, [r2, #0]
  87 0018 15F0010F 		tst	r5, #1
  88 001c FBD1     		bne	.L7
  89              		.loc 1 145 0 discriminator 2
  90 001e 057A     		ldrb	r5, [r0, #8]	@ zero_extendqisi2
  91              		.loc 1 146 0 is_stmt 1 discriminator 2
  92 0020 216A     		ldr	r1, [r4, #32]
  93              		.loc 1 145 0 discriminator 2
  94 0022 4368     		ldr	r3, [r0, #4]
  95              		.loc 1 146 0 discriminator 2
  96 0024 0A68     		ldr	r2, [r1, #0]
  97              		.loc 1 145 0 discriminator 2
  98 0026 3D20     		movs	r0, #61
  99 0028 A840     		lsls	r0, r0, r5
 100 002a 1860     		str	r0, [r3, #0]
 101              		.loc 1 146 0 discriminator 2
 102 002c 1368     		ldr	r3, [r2, #0]
 103 002e 23F01F00 		bic	r0, r3, #31
 104 0032 1060     		str	r0, [r2, #0]
 105              	.L8:
 106              		.loc 1 146 0 is_stmt 0 discriminator 1
 107 0034 1368     		ldr	r3, [r2, #0]
 108 0036 13F0010F 		tst	r3, #1
 109 003a FBD1     		bne	.L8
 110              		.loc 1 150 0 is_stmt 1 discriminator 2
ARM GAS  /tmp/ccsKDGz9.s 			page 3


 111 003c 6368     		ldr	r3, [r4, #4]
 112              		.loc 1 146 0 discriminator 2
 113 003e 087A     		ldrb	r0, [r1, #8]	@ zero_extendqisi2
 114 0040 4A68     		ldr	r2, [r1, #4]
 115              		.loc 1 150 0 discriminator 2
 116 0042 1B68     		ldr	r3, [r3, #0]
 117              		.loc 1 146 0 discriminator 2
 118 0044 3D21     		movs	r1, #61
 119 0046 8140     		lsls	r1, r1, r0
 120 0048 1160     		str	r1, [r2, #0]
 121              		.loc 1 150 0 discriminator 2
 122 004a BBB1     		cbz	r3, .L9
 123              		.loc 1 150 0 is_stmt 0 discriminator 1
 124 004c 0422     		movs	r2, #4
 125 004e 2270     		strb	r2, [r4, #0]
 126 0050 2046     		mov	r0, r4
 127 0052 9847     		blx	r3
 128 0054 94F800C0 		ldrb	ip, [r4, #0]	@ zero_extendqisi2
 129 0058 BCF1040F 		cmp	ip, #4
 130 005c 0ED0     		beq	.L9
 131              	.L10:
 132              	.LBB2:
 133              		.loc 1 150 0 discriminator 4
 134 005e 2023     		movs	r3, #32
 135              	.LVL3:
 136              	@ 150 "../ChibiOS_2.6.2/os/hal/platforms/STM32/SPIv1/spi_lld.c" 1
 137 0060 83F31188 		msr     BASEPRI, r3
 138              	@ 0 "" 2
 139              	.LVL4:
 140              		.thumb
 141              	.LBE2:
 142 0064 A368     		ldr	r3, [r4, #8]
 143              	.LVL5:
 144 0066 2BB1     		cbz	r3, .L11
 145              	.LVL6:
 146              	.LBB3:
 147              		.loc 1 150 0 discriminator 5
 148 0068 0022     		movs	r2, #0
 149 006a A260     		str	r2, [r4, #8]
 150 006c 1846     		mov	r0, r3
 151 006e 5A62     		str	r2, [r3, #36]
 152 0070 FFF7FEFF 		bl	chSchReadyI
 153              	.LVL7:
 154              	.L11:
 155              	.LBE3:
 156              	.LBB4:
 157              		.loc 1 150 0 discriminator 6
 158 0074 0023     		movs	r3, #0
 159              	.LVL8:
 160              	@ 150 "../ChibiOS_2.6.2/os/hal/platforms/STM32/SPIv1/spi_lld.c" 1
 161 0076 83F31188 		msr     BASEPRI, r3
 162              	@ 0 "" 2
 163              	.LVL9:
 164              		.thumb
 165              	.LBE4:
 166              		.loc 1 151 0 is_stmt 1 discriminator 6
 167 007a 38BD     		pop	{r3, r4, r5, pc}
ARM GAS  /tmp/ccsKDGz9.s 			page 4


 168              	.LVL10:
 169              	.L9:
 170              		.loc 1 150 0 discriminator 2
 171 007c 0221     		movs	r1, #2
 172 007e 2170     		strb	r1, [r4, #0]
 173 0080 EDE7     		b	.L10
 174              	.LVL11:
 175              	.L14:
 176              		.loc 1 138 0
 177 0082 FFF7FEFF 		bl	port_halt
 178              	.LVL12:
 179 0086 C0E7     		b	.L6
 180              		.cfi_endproc
 181              	.LFE118:
 182              		.size	spi_lld_serve_rx_interrupt, .-spi_lld_serve_rx_interrupt
 183 0088 AFF30080 		.section	.text.spi_lld_init,"ax",%progbits
 183      AFF30080 
 184              		.align	2
 185              		.p2align 4,,15
 186              		.global	spi_lld_init
 187              		.thumb
 188              		.thumb_func
 189              		.type	spi_lld_init, %function
 190              	spi_lld_init:
 191              	.LFB120:
 192              		.loc 1 186 0
 193              		.cfi_startproc
 194              		@ args = 0, pretend = 0, frame = 0
 195              		@ frame_needed = 0, uses_anonymous_args = 0
 196 0000 38B5     		push	{r3, r4, r5, lr}
 197              	.LCFI1:
 198              		.cfi_def_cfa_offset 16
 199              		.loc 1 188 0
 200 0002 40F2000C 		movw	ip, #:lower16:.LANCHOR0
 201              		.loc 1 209 0
 202 0006 40F20004 		movw	r4, #:lower16:.LANCHOR1
 203              		.cfi_offset 14, -4
 204              		.cfi_offset 5, -8
 205              		.cfi_offset 4, -12
 206              		.cfi_offset 3, -16
 207 000a C0F20004 		movt	r4, #:upper16:.LANCHOR1
 208              		.loc 1 188 0
 209 000e C0F2000C 		movt	ip, #:upper16:.LANCHOR0
 210              		.loc 1 209 0
 211 0012 2046     		mov	r0, r4
 212              		.loc 1 188 0
 213 0014 4FF0FF35 		mov	r5, #-1	@ movhi
 214 0018 ACF80050 		strh	r5, [ip, #0]	@ movhi
 215              		.loc 1 209 0
 216 001c FFF7FEFF 		bl	spiObjectInit
 217              		.loc 1 211 0
 218 0020 0949     		ldr	r1, .L16
 219              		.loc 1 210 0
 220 0022 4FF46050 		mov	r0, #14336
 221              		.loc 1 213 0
 222 0026 1622     		movs	r2, #22
 223              		.loc 1 219 0
ARM GAS  /tmp/ccsKDGz9.s 			page 5


 224 0028 4623     		movs	r3, #70
 225              		.loc 1 210 0
 226 002a C4F20000 		movt	r0, 16384
 227              		.loc 1 212 0
 228 002e 01F10C05 		add	r5, r1, #12
 229              		.loc 1 213 0
 230 0032 C0F20102 		movt	r2, 1
 231              		.loc 1 219 0
 232 0036 C0F20103 		movt	r3, 1
 233              		.loc 1 210 0
 234 003a E061     		str	r0, [r4, #28]
 235              		.loc 1 211 0
 236 003c 2162     		str	r1, [r4, #32]
 237              		.loc 1 212 0
 238 003e 6562     		str	r5, [r4, #36]
 239              		.loc 1 213 0
 240 0040 A262     		str	r2, [r4, #40]
 241              		.loc 1 219 0
 242 0042 E362     		str	r3, [r4, #44]
 243              		.loc 1 297 0
 244 0044 38BD     		pop	{r3, r4, r5, pc}
 245              	.L17:
 246 0046 00BF     		.align	2
 247              	.L16:
 248 0048 24000000 		.word	_stm32_dma_streams+36
 249              		.cfi_endproc
 250              	.LFE120:
 251              		.size	spi_lld_init, .-spi_lld_init
 252 004c AFF30080 		.section	.text.spi_lld_start,"ax",%progbits
 253              		.align	2
 254              		.p2align 4,,15
 255              		.global	spi_lld_start
 256              		.thumb
 257              		.thumb_func
 258              		.type	spi_lld_start, %function
 259              	spi_lld_start:
 260              	.LFB121:
 261              		.loc 1 306 0
 262              		.cfi_startproc
 263              		@ args = 0, pretend = 0, frame = 0
 264              		@ frame_needed = 0, uses_anonymous_args = 0
 265              	.LVL13:
 266              		.loc 1 309 0
 267 0000 0378     		ldrb	r3, [r0, #0]	@ zero_extendqisi2
 268 0002 012B     		cmp	r3, #1
 269              		.loc 1 306 0
 270 0004 10B5     		push	{r4, lr}
 271              	.LCFI2:
 272              		.cfi_def_cfa_offset 8
 273 0006 18BF     		it	ne
 274 0008 C369     		ldrne	r3, [r0, #28]
 275              		.loc 1 306 0
 276 000a 0446     		mov	r4, r0
 277              		.cfi_offset 14, -4
 278              		.cfi_offset 4, -8
 279              		.loc 1 309 0
 280 000c 1FD0     		beq	.L25
ARM GAS  /tmp/ccsKDGz9.s 			page 6


 281              	.LVL14:
 282              	.L19:
 283              		.loc 1 413 0
 284 000e 6268     		ldr	r2, [r4, #4]
 285              		.loc 1 416 0
 286 0010 A06A     		ldr	r0, [r4, #40]
 287              		.loc 1 413 0
 288 0012 5289     		ldrh	r2, [r2, #10]
 289              		.loc 1 418 0
 290 0014 E16A     		ldr	r1, [r4, #44]
 291              		.loc 1 413 0
 292 0016 12F4006F 		tst	r2, #2048
 293              		.loc 1 416 0
 294 001a 20F4F040 		bic	r0, r0, #30720
 295              		.loc 1 418 0
 296 001e 21F4F041 		bic	r1, r1, #30720
 297              		.loc 1 423 0
 298 0022 1CBF     		itt	ne
 299 0024 40F42050 		orrne	r0, r0, #10240
 300              		.loc 1 425 0
 301 0028 41F42051 		orrne	r1, r1, #10240
 302              		.loc 1 422 0
 303 002c A062     		str	r0, [r4, #40]
 304              		.loc 1 424 0
 305 002e E162     		str	r1, [r4, #44]
 306              		.loc 1 429 0
 307 0030 42F4417C 		orr	ip, r2, #772
 308              		.loc 1 428 0
 309 0034 0020     		movs	r0, #0
 310              		.loc 1 431 0
 311 0036 0721     		movs	r1, #7
 312              		.loc 1 428 0
 313 0038 1880     		strh	r0, [r3, #0]	@ movhi
 314              		.loc 1 429 0
 315 003a A3F800C0 		strh	ip, [r3, #0]	@ movhi
 316              		.loc 1 431 0
 317 003e 9980     		strh	r1, [r3, #4]	@ movhi
 318              		.loc 1 432 0
 319 0040 1A88     		ldrh	r2, [r3, #0]
 320 0042 90B2     		uxth	r0, r2
 321 0044 40F0400C 		orr	ip, r0, #64
 322 0048 A3F800C0 		strh	ip, [r3, #0]	@ movhi
 323              		.loc 1 433 0
 324 004c 10BD     		pop	{r4, pc}
 325              	.L25:
 326              		.loc 1 327 0
 327 004e 40F20003 		movw	r3, #:lower16:.LANCHOR1
 328 0052 C0F20003 		movt	r3, #:upper16:.LANCHOR1
 329 0056 9842     		cmp	r0, r3
 330 0058 09D0     		beq	.L26
 331              	.L20:
 332              		.loc 1 408 0
 333 005a 216A     		ldr	r1, [r4, #32]
 334              		.loc 1 409 0
 335 005c 626A     		ldr	r2, [r4, #36]
 336              		.loc 1 408 0
 337 005e E369     		ldr	r3, [r4, #28]
ARM GAS  /tmp/ccsKDGz9.s 			page 7


 338 0060 0868     		ldr	r0, [r1, #0]
 339              		.loc 1 409 0
 340 0062 1168     		ldr	r1, [r2, #0]
 341              		.loc 1 408 0
 342 0064 03F10C02 		add	r2, r3, #12
 343 0068 8260     		str	r2, [r0, #8]
 344              		.loc 1 409 0
 345 006a 8A60     		str	r2, [r1, #8]
 346 006c CFE7     		b	.L19
 347              	.L26:
 348              	.LBB5:
 349              		.loc 1 329 0
 350 006e 40F20002 		movw	r2, #:lower16:spi_lld_serve_rx_interrupt
 351 0072 0346     		mov	r3, r0
 352 0074 0A21     		movs	r1, #10
 353 0076 C0F20002 		movt	r2, #:upper16:spi_lld_serve_rx_interrupt
 354 007a 006A     		ldr	r0, [r0, #32]
 355 007c FFF7FEFF 		bl	dmaStreamAllocate
 356              		.loc 1 334 0
 357 0080 40F20002 		movw	r2, #:lower16:spi_lld_serve_tx_interrupt
 358 0084 0A21     		movs	r1, #10
 359 0086 C0F20002 		movt	r2, #:upper16:spi_lld_serve_tx_interrupt
 360 008a 606A     		ldr	r0, [r4, #36]
 361 008c 2346     		mov	r3, r4
 362 008e FFF7FEFF 		bl	dmaStreamAllocate
 363              		.loc 1 339 0
 364 0092 4FF46050 		mov	r0, #14336
 365 0096 C4F20200 		movt	r0, 16386
 366 009a 016C     		ldr	r1, [r0, #64]
 367 009c 41F48042 		orr	r2, r1, #16384
 368 00a0 0264     		str	r2, [r0, #64]
 369 00a2 DAE7     		b	.L20
 370              	.LBE5:
 371              		.cfi_endproc
 372              	.LFE121:
 373              		.size	spi_lld_start, .-spi_lld_start
 374 00a4 AFF30080 		.section	.text.spi_lld_stop,"ax",%progbits
 374      AFF30080 
 374      AFF30080 
 375              		.align	2
 376              		.p2align 4,,15
 377              		.global	spi_lld_stop
 378              		.thumb
 379              		.thumb_func
 380              		.type	spi_lld_stop, %function
 381              	spi_lld_stop:
 382              	.LFB122:
 383              		.loc 1 442 0
 384              		.cfi_startproc
 385              		@ args = 0, pretend = 0, frame = 0
 386              		@ frame_needed = 0, uses_anonymous_args = 0
 387              	.LVL15:
 388              		.loc 1 445 0
 389 0000 0378     		ldrb	r3, [r0, #0]	@ zero_extendqisi2
 390 0002 022B     		cmp	r3, #2
 391              		.loc 1 442 0
 392 0004 10B5     		push	{r4, lr}
ARM GAS  /tmp/ccsKDGz9.s 			page 8


 393              	.LCFI3:
 394              		.cfi_def_cfa_offset 8
 395              		.loc 1 442 0
 396 0006 0446     		mov	r4, r0
 397              		.cfi_offset 14, -4
 398              		.cfi_offset 4, -8
 399              		.loc 1 445 0
 400 0008 00D0     		beq	.L29
 401 000a 10BD     		pop	{r4, pc}
 402              	.L29:
 403              		.loc 1 448 0
 404 000c C369     		ldr	r3, [r0, #28]
 405              		.loc 1 450 0
 406 000e 006A     		ldr	r0, [r0, #32]
 407              	.LVL16:
 408              		.loc 1 448 0
 409 0010 0021     		movs	r1, #0
 410 0012 1980     		strh	r1, [r3, #0]	@ movhi
 411              		.loc 1 449 0
 412 0014 9980     		strh	r1, [r3, #4]	@ movhi
 413              		.loc 1 450 0
 414 0016 FFF7FEFF 		bl	dmaStreamRelease
 415              		.loc 1 451 0
 416 001a 606A     		ldr	r0, [r4, #36]
 417 001c FFF7FEFF 		bl	dmaStreamRelease
 418              		.loc 1 458 0
 419 0020 40F20000 		movw	r0, #:lower16:.LANCHOR1
 420 0024 C0F20000 		movt	r0, #:upper16:.LANCHOR1
 421 0028 8442     		cmp	r4, r0
 422              		.loc 1 459 0
 423 002a 01BF     		itttt	eq
 424 002c 4FF46050 		moveq	r0, #14336
 425 0030 C4F20200 		movteq	r0, 16386
 426 0034 026C     		ldreq	r2, [r0, #64]
 427 0036 22F48042 		biceq	r2, r2, #16384
 428 003a 08BF     		it	eq
 429 003c 0264     		streq	r2, [r0, #64]
 430 003e 10BD     		pop	{r4, pc}
 431              		.cfi_endproc
 432              	.LFE122:
 433              		.size	spi_lld_stop, .-spi_lld_stop
 434              		.section	.text.spi_lld_select,"ax",%progbits
 435              		.align	2
 436              		.p2align 4,,15
 437              		.global	spi_lld_select
 438              		.thumb
 439              		.thumb_func
 440              		.type	spi_lld_select, %function
 441              	spi_lld_select:
 442              	.LFB123:
 443              		.loc 1 487 0
 444              		.cfi_startproc
 445              		@ args = 0, pretend = 0, frame = 0
 446              		@ frame_needed = 0, uses_anonymous_args = 0
 447              		@ link register save eliminated.
 448              	.LVL17:
 449              		.loc 1 489 0
ARM GAS  /tmp/ccsKDGz9.s 			page 9


 450 0000 4368     		ldr	r3, [r0, #4]
 451 0002 1A89     		ldrh	r2, [r3, #8]
 452 0004 5B68     		ldr	r3, [r3, #4]
 453 0006 0121     		movs	r1, #1
 454 0008 11FA02F0 		lsls	r0, r1, r2
 455              	.LVL18:
 456 000c 82B2     		uxth	r2, r0
 457 000e 5A83     		strh	r2, [r3, #26]	@ movhi
 458              		.loc 1 490 0
 459 0010 7047     		bx	lr
 460              		.cfi_endproc
 461              	.LFE123:
 462              		.size	spi_lld_select, .-spi_lld_select
 463 0012 00BFAFF3 		.section	.text.spi_lld_unselect,"ax",%progbits
 463      0080AFF3 
 463      0080AFF3 
 463      0080
 464              		.align	2
 465              		.p2align 4,,15
 466              		.global	spi_lld_unselect
 467              		.thumb
 468              		.thumb_func
 469              		.type	spi_lld_unselect, %function
 470              	spi_lld_unselect:
 471              	.LFB124:
 472              		.loc 1 500 0
 473              		.cfi_startproc
 474              		@ args = 0, pretend = 0, frame = 0
 475              		@ frame_needed = 0, uses_anonymous_args = 0
 476              		@ link register save eliminated.
 477              	.LVL19:
 478              		.loc 1 502 0
 479 0000 4368     		ldr	r3, [r0, #4]
 480 0002 1A89     		ldrh	r2, [r3, #8]
 481 0004 5B68     		ldr	r3, [r3, #4]
 482 0006 0121     		movs	r1, #1
 483 0008 11FA02F0 		lsls	r0, r1, r2
 484              	.LVL20:
 485 000c 82B2     		uxth	r2, r0
 486 000e 1A83     		strh	r2, [r3, #24]	@ movhi
 487              		.loc 1 503 0
 488 0010 7047     		bx	lr
 489              		.cfi_endproc
 490              	.LFE124:
 491              		.size	spi_lld_unselect, .-spi_lld_unselect
 492 0012 00BFAFF3 		.section	.text.spi_lld_ignore,"ax",%progbits
 492      0080AFF3 
 492      0080AFF3 
 492      0080
 493              		.align	2
 494              		.p2align 4,,15
 495              		.global	spi_lld_ignore
 496              		.thumb
 497              		.thumb_func
 498              		.type	spi_lld_ignore, %function
 499              	spi_lld_ignore:
 500              	.LFB125:
ARM GAS  /tmp/ccsKDGz9.s 			page 10


 501              		.loc 1 516 0
 502              		.cfi_startproc
 503              		@ args = 0, pretend = 0, frame = 0
 504              		@ frame_needed = 0, uses_anonymous_args = 0
 505              		@ link register save eliminated.
 506              	.LVL21:
 507 0000 70B4     		push	{r4, r5, r6}
 508              	.LCFI4:
 509              		.cfi_def_cfa_offset 12
 510              		.loc 1 518 0
 511 0002 066A     		ldr	r6, [r0, #32]
 512              		.cfi_offset 6, -4
 513              		.cfi_offset 5, -8
 514              		.cfi_offset 4, -12
 515              		.loc 1 522 0
 516 0004 456A     		ldr	r5, [r0, #36]
 517              		.loc 1 518 0
 518 0006 3268     		ldr	r2, [r6, #0]
 519              		.loc 1 522 0
 520 0008 2B68     		ldr	r3, [r5, #0]
 521              		.loc 1 520 0
 522 000a 866A     		ldr	r6, [r0, #40]
 523              		.loc 1 524 0
 524 000c C56A     		ldr	r5, [r0, #44]
 525              		.loc 1 518 0
 526 000e 40F20004 		movw	r4, #:lower16:.LANCHOR2
 527              		.loc 1 522 0
 528 0012 40F20000 		movw	r0, #:lower16:.LANCHOR0
 529              	.LVL22:
 530 0016 C0F20000 		movt	r0, #:upper16:.LANCHOR0
 531              		.loc 1 518 0
 532 001a C0F20004 		movt	r4, #:upper16:.LANCHOR2
 533 001e D460     		str	r4, [r2, #12]
 534              		.loc 1 519 0
 535 0020 5160     		str	r1, [r2, #4]
 536              		.loc 1 520 0
 537 0022 1660     		str	r6, [r2, #0]
 538              		.loc 1 522 0
 539 0024 D860     		str	r0, [r3, #12]
 540              		.loc 1 523 0
 541 0026 5960     		str	r1, [r3, #4]
 542              		.loc 1 524 0
 543 0028 1D60     		str	r5, [r3, #0]
 544              		.loc 1 526 0
 545 002a 1068     		ldr	r0, [r2, #0]
 546 002c 40F00101 		orr	r1, r0, #1
 547              	.LVL23:
 548 0030 1160     		str	r1, [r2, #0]
 549              		.loc 1 527 0
 550 0032 1868     		ldr	r0, [r3, #0]
 551 0034 40F00102 		orr	r2, r0, #1
 552              	.LVL24:
 553 0038 1A60     		str	r2, [r3, #0]
 554              		.loc 1 528 0
 555 003a 70BC     		pop	{r4, r5, r6}
 556 003c 7047     		bx	lr
 557              		.cfi_endproc
ARM GAS  /tmp/ccsKDGz9.s 			page 11


 558              	.LFE125:
 559              		.size	spi_lld_ignore, .-spi_lld_ignore
 560 003e 00BF     		.section	.text.spi_lld_exchange,"ax",%progbits
 561              		.align	2
 562              		.p2align 4,,15
 563              		.global	spi_lld_exchange
 564              		.thumb
 565              		.thumb_func
 566              		.type	spi_lld_exchange, %function
 567              	spi_lld_exchange:
 568              	.LFB126:
 569              		.loc 1 546 0
 570              		.cfi_startproc
 571              		@ args = 0, pretend = 0, frame = 0
 572              		@ frame_needed = 0, uses_anonymous_args = 0
 573              		@ link register save eliminated.
 574              	.LVL25:
 575 0000 F0B4     		push	{r4, r5, r6, r7}
 576              	.LCFI5:
 577              		.cfi_def_cfa_offset 16
 578              		.loc 1 548 0
 579 0002 046A     		ldr	r4, [r0, #32]
 580              		.cfi_offset 7, -4
 581              		.cfi_offset 6, -8
 582              		.cfi_offset 5, -12
 583              		.cfi_offset 4, -16
 584              		.loc 1 552 0
 585 0004 476A     		ldr	r7, [r0, #36]
 586              		.loc 1 550 0
 587 0006 866A     		ldr	r6, [r0, #40]
 588              		.loc 1 554 0
 589 0008 C56A     		ldr	r5, [r0, #44]
 590              		.loc 1 548 0
 591 000a 2468     		ldr	r4, [r4, #0]
 592              		.loc 1 552 0
 593 000c 3868     		ldr	r0, [r7, #0]
 594              	.LVL26:
 595              		.loc 1 548 0
 596 000e E360     		str	r3, [r4, #12]
 597              		.loc 1 550 0
 598 0010 46F48066 		orr	r6, r6, #1024
 599              		.loc 1 554 0
 600 0014 45F48065 		orr	r5, r5, #1024
 601              		.loc 1 549 0
 602 0018 6160     		str	r1, [r4, #4]
 603              		.loc 1 550 0
 604 001a 2660     		str	r6, [r4, #0]
 605              		.loc 1 552 0
 606 001c C260     		str	r2, [r0, #12]
 607              		.loc 1 553 0
 608 001e 4160     		str	r1, [r0, #4]
 609              		.loc 1 554 0
 610 0020 0560     		str	r5, [r0, #0]
 611              		.loc 1 556 0
 612 0022 2368     		ldr	r3, [r4, #0]
 613              	.LVL27:
 614 0024 43F00102 		orr	r2, r3, #1
ARM GAS  /tmp/ccsKDGz9.s 			page 12


 615              	.LVL28:
 616 0028 2260     		str	r2, [r4, #0]
 617              		.loc 1 557 0
 618 002a 0168     		ldr	r1, [r0, #0]
 619              	.LVL29:
 620 002c 41F00103 		orr	r3, r1, #1
 621 0030 0360     		str	r3, [r0, #0]
 622              		.loc 1 558 0
 623 0032 F0BC     		pop	{r4, r5, r6, r7}
 624 0034 7047     		bx	lr
 625              		.cfi_endproc
 626              	.LFE126:
 627              		.size	spi_lld_exchange, .-spi_lld_exchange
 628 0036 00BFAFF3 		.section	.text.spi_lld_send,"ax",%progbits
 628      0080AFF3 
 628      0080
 629              		.align	2
 630              		.p2align 4,,15
 631              		.global	spi_lld_send
 632              		.thumb
 633              		.thumb_func
 634              		.type	spi_lld_send, %function
 635              	spi_lld_send:
 636              	.LFB127:
 637              		.loc 1 573 0
 638              		.cfi_startproc
 639              		@ args = 0, pretend = 0, frame = 0
 640              		@ frame_needed = 0, uses_anonymous_args = 0
 641              		@ link register save eliminated.
 642              	.LVL30:
 643 0000 70B4     		push	{r4, r5, r6}
 644              	.LCFI6:
 645              		.cfi_def_cfa_offset 12
 646              		.loc 1 579 0
 647 0002 436A     		ldr	r3, [r0, #36]
 648              		.loc 1 575 0
 649 0004 046A     		ldr	r4, [r0, #32]
 650              		.cfi_offset 6, -4
 651              		.cfi_offset 5, -8
 652              		.cfi_offset 4, -12
 653              		.loc 1 581 0
 654 0006 C66A     		ldr	r6, [r0, #44]
 655              		.loc 1 575 0
 656 0008 2468     		ldr	r4, [r4, #0]
 657              		.loc 1 577 0
 658 000a 806A     		ldr	r0, [r0, #40]
 659              	.LVL31:
 660              		.loc 1 579 0
 661 000c 1B68     		ldr	r3, [r3, #0]
 662              		.loc 1 575 0
 663 000e 40F20005 		movw	r5, #:lower16:.LANCHOR2
 664 0012 C0F20005 		movt	r5, #:upper16:.LANCHOR2
 665              		.loc 1 581 0
 666 0016 46F48066 		orr	r6, r6, #1024
 667              		.loc 1 575 0
 668 001a E560     		str	r5, [r4, #12]
 669              		.loc 1 576 0
ARM GAS  /tmp/ccsKDGz9.s 			page 13


 670 001c 6160     		str	r1, [r4, #4]
 671              		.loc 1 577 0
 672 001e 2060     		str	r0, [r4, #0]
 673              		.loc 1 579 0
 674 0020 DA60     		str	r2, [r3, #12]
 675              		.loc 1 580 0
 676 0022 5960     		str	r1, [r3, #4]
 677              		.loc 1 581 0
 678 0024 1E60     		str	r6, [r3, #0]
 679              		.loc 1 583 0
 680 0026 2268     		ldr	r2, [r4, #0]
 681              	.LVL32:
 682 0028 42F00101 		orr	r1, r2, #1
 683              	.LVL33:
 684 002c 2160     		str	r1, [r4, #0]
 685              		.loc 1 584 0
 686 002e 1868     		ldr	r0, [r3, #0]
 687 0030 40F00102 		orr	r2, r0, #1
 688 0034 1A60     		str	r2, [r3, #0]
 689              		.loc 1 585 0
 690 0036 70BC     		pop	{r4, r5, r6}
 691 0038 7047     		bx	lr
 692              		.cfi_endproc
 693              	.LFE127:
 694              		.size	spi_lld_send, .-spi_lld_send
 695 003a 00BFAFF3 		.section	.text.spi_lld_receive,"ax",%progbits
 695      0080
 696              		.align	2
 697              		.p2align 4,,15
 698              		.global	spi_lld_receive
 699              		.thumb
 700              		.thumb_func
 701              		.type	spi_lld_receive, %function
 702              	spi_lld_receive:
 703              	.LFB128:
 704              		.loc 1 600 0
 705              		.cfi_startproc
 706              		@ args = 0, pretend = 0, frame = 0
 707              		@ frame_needed = 0, uses_anonymous_args = 0
 708              		@ link register save eliminated.
 709              	.LVL34:
 710 0000 70B4     		push	{r4, r5, r6}
 711              	.LCFI7:
 712              		.cfi_def_cfa_offset 12
 713              		.loc 1 606 0
 714 0002 436A     		ldr	r3, [r0, #36]
 715              		.loc 1 602 0
 716 0004 046A     		ldr	r4, [r0, #32]
 717              		.cfi_offset 6, -4
 718              		.cfi_offset 5, -8
 719              		.cfi_offset 4, -12
 720              		.loc 1 604 0
 721 0006 866A     		ldr	r6, [r0, #40]
 722              		.loc 1 602 0
 723 0008 2468     		ldr	r4, [r4, #0]
 724              		.loc 1 606 0
 725 000a 1B68     		ldr	r3, [r3, #0]
ARM GAS  /tmp/ccsKDGz9.s 			page 14


 726              		.loc 1 608 0
 727 000c C06A     		ldr	r0, [r0, #44]
 728              	.LVL35:
 729              		.loc 1 602 0
 730 000e E260     		str	r2, [r4, #12]
 731              		.loc 1 606 0
 732 0010 40F20005 		movw	r5, #:lower16:.LANCHOR0
 733              		.loc 1 604 0
 734 0014 46F48066 		orr	r6, r6, #1024
 735              		.loc 1 606 0
 736 0018 C0F20005 		movt	r5, #:upper16:.LANCHOR0
 737              		.loc 1 603 0
 738 001c 6160     		str	r1, [r4, #4]
 739              		.loc 1 604 0
 740 001e 2660     		str	r6, [r4, #0]
 741              		.loc 1 606 0
 742 0020 DD60     		str	r5, [r3, #12]
 743              		.loc 1 607 0
 744 0022 5960     		str	r1, [r3, #4]
 745              		.loc 1 608 0
 746 0024 1860     		str	r0, [r3, #0]
 747              		.loc 1 610 0
 748 0026 2268     		ldr	r2, [r4, #0]
 749              	.LVL36:
 750 0028 42F00101 		orr	r1, r2, #1
 751              	.LVL37:
 752 002c 2160     		str	r1, [r4, #0]
 753              		.loc 1 611 0
 754 002e 1868     		ldr	r0, [r3, #0]
 755 0030 40F00102 		orr	r2, r0, #1
 756 0034 1A60     		str	r2, [r3, #0]
 757              		.loc 1 612 0
 758 0036 70BC     		pop	{r4, r5, r6}
 759 0038 7047     		bx	lr
 760              		.cfi_endproc
 761              	.LFE128:
 762              		.size	spi_lld_receive, .-spi_lld_receive
 763 003a 00BFAFF3 		.section	.text.spi_lld_polled_exchange,"ax",%progbits
 763      0080
 764              		.align	2
 765              		.p2align 4,,15
 766              		.global	spi_lld_polled_exchange
 767              		.thumb
 768              		.thumb_func
 769              		.type	spi_lld_polled_exchange, %function
 770              	spi_lld_polled_exchange:
 771              	.LFB129:
 772              		.loc 1 626 0
 773              		.cfi_startproc
 774              		@ args = 0, pretend = 0, frame = 0
 775              		@ frame_needed = 0, uses_anonymous_args = 0
 776              		@ link register save eliminated.
 777              	.LVL38:
 778              		.loc 1 628 0
 779 0000 C369     		ldr	r3, [r0, #28]
 780 0002 9981     		strh	r1, [r3, #12]	@ movhi
 781              	.L37:
ARM GAS  /tmp/ccsKDGz9.s 			page 15


 782              		.loc 1 629 0 discriminator 1
 783 0004 1A89     		ldrh	r2, [r3, #8]
 784 0006 12F0010F 		tst	r2, #1
 785 000a FBD0     		beq	.L37
 786              		.loc 1 631 0
 787 000c 9889     		ldrh	r0, [r3, #12]
 788              	.LVL39:
 789              		.loc 1 632 0
 790 000e 80B2     		uxth	r0, r0
 791 0010 7047     		bx	lr
 792              		.cfi_endproc
 793              	.LFE129:
 794              		.size	spi_lld_polled_exchange, .-spi_lld_polled_exchange
 795              		.global	SPID2
 796 0012 00BFAFF3 		.section	.bss.dummytx,"aw",%nobits
 796      0080AFF3 
 796      0080AFF3 
 796      0080
 797              		.align	1
 798              		.set	.LANCHOR0,. + 0
 799              		.type	dummytx, %object
 800              		.size	dummytx, 2
 801              	dummytx:
 802 0000 0000     		.space	2
 803              		.section	.bss.SPID2,"aw",%nobits
 804              		.align	2
 805              		.set	.LANCHOR1,. + 0
 806              		.type	SPID2, %object
 807              		.size	SPID2, 48
 808              	SPID2:
 809 0000 00000000 		.space	48
 809      00000000 
 809      00000000 
 809      00000000 
 809      00000000 
 810              		.section	.bss.dummyrx,"aw",%nobits
 811              		.align	1
 812              		.set	.LANCHOR2,. + 0
 813              		.type	dummyrx, %object
 814              		.size	dummyrx, 2
 815              	dummyrx:
 816 0000 0000     		.space	2
 817              		.text
 818              	.Letext0: