ARM GAS  /tmp/ccQOjiSg.s 			page 1


   1              		.syntax unified
   2              		.cpu cortex-m4
   3              		.fpu softvfp
   4              		.eabi_attribute 20, 1
   5              		.eabi_attribute 21, 1
   6              		.eabi_attribute 23, 3
   7              		.eabi_attribute 24, 1
   8              		.eabi_attribute 25, 1
   9              		.eabi_attribute 26, 1
  10              		.eabi_attribute 30, 2
  11              		.eabi_attribute 18, 4
  12              		.thumb
  13              		.file	"stm32_dma.c"
  20 0000 9C030000 		.text
  20      02005A01 
  20      00000201 
  20      FB0E0D00 
  20      01010101 
  21              	.Ltext0:
  22              		.cfi_sections	.debug_frame
  23              		.section	.text.Vector6C,"ax",%progbits
  24              		.align	2
  25              		.p2align 4,,15
  26              		.global	Vector6C
  27              		.thumb
  28              		.thumb_func
  29              		.type	Vector6C, %function
  30              	Vector6C:
  31              	.LFB118:
  32              		.file 1 "../ChibiOS_2.6.2/os/hal/platforms/STM32F4xx/stm32_dma.c"
  33              		.loc 1 128 0
  34              		.cfi_startproc
  35              		@ args = 0, pretend = 0, frame = 0
  36              		@ frame_needed = 0, uses_anonymous_args = 0
  37 0000 10B5     		push	{r4, lr}
  38              	.LCFI0:
  39              		.cfi_def_cfa_offset 8
  40              		.loc 1 133 0
  41 0002 4FF4C040 		mov	r0, #24576
  42 0006 C4F20200 		movt	r0, 16386
  43              		.loc 1 135 0
  44 000a 40F20002 		movw	r2, #:lower16:.LANCHOR0
  45 000e C0F20002 		movt	r2, #:upper16:.LANCHOR0
  46              		.loc 1 133 0
  47 0012 0168     		ldr	r1, [r0, #0]
  48              		.loc 1 135 0
  49 0014 1368     		ldr	r3, [r2, #0]
  50              		.loc 1 133 0
  51 0016 01F03D01 		and	r1, r1, #61
  52              	.LVL0:
  53              		.loc 1 134 0
ARM GAS  /tmp/ccQOjiSg.s 			page 2


  54 001a 8160     		str	r1, [r0, #8]
  55              		.loc 1 135 0
  56 001c 0BB1     		cbz	r3, .L2
  57              		.cfi_offset 14, -4
  58              		.cfi_offset 4, -8
  59              		.loc 1 136 0
  60 001e 5068     		ldr	r0, [r2, #4]
  61 0020 9847     		blx	r3
  62              	.LVL1:
  63              	.L2:
  64              		.loc 1 139 0
  65 0022 BDE81040 		pop	{r4, lr}
  66              		.loc 1 138 0
  67 0026 FFF7FEBF 		b	_port_irq_epilogue
  68              		.cfi_endproc
  69              	.LFE118:
  70              		.size	Vector6C, .-Vector6C
  71 002a 00BFAFF3 		.section	.text.Vector70,"ax",%progbits
  71      0080
  72              		.align	2
  73              		.p2align 4,,15
  74              		.global	Vector70
  75              		.thumb
  76              		.thumb_func
  77              		.type	Vector70, %function
  78              	Vector70:
  79              	.LFB119:
  80              		.loc 1 146 0
  81              		.cfi_startproc
  82              		@ args = 0, pretend = 0, frame = 0
  83              		@ frame_needed = 0, uses_anonymous_args = 0
  84 0000 10B5     		push	{r4, lr}
  85              	.LCFI1:
  86              		.cfi_def_cfa_offset 8
  87              		.loc 1 151 0
  88 0002 4FF4C040 		mov	r0, #24576
  89 0006 C4F20200 		movt	r0, 16386
  90              		.loc 1 153 0
  91 000a 40F20002 		movw	r2, #:lower16:.LANCHOR0
  92              		.loc 1 151 0
  93 000e 0368     		ldr	r3, [r0, #0]
  94              		.loc 1 153 0
  95 0010 C0F20002 		movt	r2, #:upper16:.LANCHOR0
  96              		.loc 1 151 0
  97 0014 9909     		lsrs	r1, r3, #6
  98 0016 01F03D01 		and	r1, r1, #61
  99              	.LVL2:
 100              		.loc 1 153 0
 101 001a 9368     		ldr	r3, [r2, #8]
 102              		.loc 1 152 0
 103 001c 8C01     		lsls	r4, r1, #6
 104              		.cfi_offset 14, -4
 105              		.cfi_offset 4, -8
 106 001e 8460     		str	r4, [r0, #8]
 107              		.loc 1 153 0
 108 0020 0BB1     		cbz	r3, .L5
 109              		.loc 1 154 0
ARM GAS  /tmp/ccQOjiSg.s 			page 3


 110 0022 D068     		ldr	r0, [r2, #12]
 111 0024 9847     		blx	r3
 112              	.LVL3:
 113              	.L5:
 114              		.loc 1 157 0
 115 0026 BDE81040 		pop	{r4, lr}
 116              		.loc 1 156 0
 117 002a FFF7FEBF 		b	_port_irq_epilogue
 118              		.cfi_endproc
 119              	.LFE119:
 120              		.size	Vector70, .-Vector70
 121 002e 00BF     		.section	.text.Vector74,"ax",%progbits
 122              		.align	2
 123              		.p2align 4,,15
 124              		.global	Vector74
 125              		.thumb
 126              		.thumb_func
 127              		.type	Vector74, %function
 128              	Vector74:
 129              	.LFB120:
 130              		.loc 1 164 0
 131              		.cfi_startproc
 132              		@ args = 0, pretend = 0, frame = 0
 133              		@ frame_needed = 0, uses_anonymous_args = 0
 134 0000 10B5     		push	{r4, lr}
 135              	.LCFI2:
 136              		.cfi_def_cfa_offset 8
 137              		.loc 1 169 0
 138 0002 4FF4C040 		mov	r0, #24576
 139 0006 C4F20200 		movt	r0, 16386
 140              		.loc 1 171 0
 141 000a 40F20002 		movw	r2, #:lower16:.LANCHOR0
 142              		.loc 1 169 0
 143 000e 0368     		ldr	r3, [r0, #0]
 144              		.loc 1 171 0
 145 0010 C0F20002 		movt	r2, #:upper16:.LANCHOR0
 146              		.loc 1 169 0
 147 0014 190C     		lsrs	r1, r3, #16
 148 0016 01F03D01 		and	r1, r1, #61
 149              	.LVL4:
 150              		.loc 1 171 0
 151 001a 1369     		ldr	r3, [r2, #16]
 152              		.loc 1 170 0
 153 001c 0C04     		lsls	r4, r1, #16
 154              		.cfi_offset 14, -4
 155              		.cfi_offset 4, -8
 156 001e 8460     		str	r4, [r0, #8]
 157              		.loc 1 171 0
 158 0020 0BB1     		cbz	r3, .L7
 159              		.loc 1 172 0
 160 0022 5069     		ldr	r0, [r2, #20]
 161 0024 9847     		blx	r3
 162              	.LVL5:
 163              	.L7:
 164              		.loc 1 175 0
 165 0026 BDE81040 		pop	{r4, lr}
 166              		.loc 1 174 0
ARM GAS  /tmp/ccQOjiSg.s 			page 4


 167 002a FFF7FEBF 		b	_port_irq_epilogue
 168              		.cfi_endproc
 169              	.LFE120:
 170              		.size	Vector74, .-Vector74
 171 002e 00BF     		.section	.text.Vector78,"ax",%progbits
 172              		.align	2
 173              		.p2align 4,,15
 174              		.global	Vector78
 175              		.thumb
 176              		.thumb_func
 177              		.type	Vector78, %function
 178              	Vector78:
 179              	.LFB121:
 180              		.loc 1 182 0
 181              		.cfi_startproc
 182              		@ args = 0, pretend = 0, frame = 0
 183              		@ frame_needed = 0, uses_anonymous_args = 0
 184 0000 10B5     		push	{r4, lr}
 185              	.LCFI3:
 186              		.cfi_def_cfa_offset 8
 187              		.loc 1 187 0
 188 0002 4FF4C040 		mov	r0, #24576
 189 0006 C4F20200 		movt	r0, 16386
 190              		.loc 1 189 0
 191 000a 40F20002 		movw	r2, #:lower16:.LANCHOR0
 192              		.loc 1 187 0
 193 000e 0368     		ldr	r3, [r0, #0]
 194              		.loc 1 189 0
 195 0010 C0F20002 		movt	r2, #:upper16:.LANCHOR0
 196              		.loc 1 187 0
 197 0014 990D     		lsrs	r1, r3, #22
 198 0016 01F03D01 		and	r1, r1, #61
 199              	.LVL6:
 200              		.loc 1 189 0
 201 001a 9369     		ldr	r3, [r2, #24]
 202              		.loc 1 188 0
 203 001c 8C05     		lsls	r4, r1, #22
 204              		.cfi_offset 14, -4
 205              		.cfi_offset 4, -8
 206 001e 8460     		str	r4, [r0, #8]
 207              		.loc 1 189 0
 208 0020 0BB1     		cbz	r3, .L9
 209              		.loc 1 190 0
 210 0022 D069     		ldr	r0, [r2, #28]
 211 0024 9847     		blx	r3
 212              	.LVL7:
 213              	.L9:
 214              		.loc 1 193 0
 215 0026 BDE81040 		pop	{r4, lr}
 216              		.loc 1 192 0
 217 002a FFF7FEBF 		b	_port_irq_epilogue
 218              		.cfi_endproc
 219              	.LFE121:
 220              		.size	Vector78, .-Vector78
 221 002e 00BF     		.section	.text.Vector7C,"ax",%progbits
 222              		.align	2
 223              		.p2align 4,,15
ARM GAS  /tmp/ccQOjiSg.s 			page 5


 224              		.global	Vector7C
 225              		.thumb
 226              		.thumb_func
 227              		.type	Vector7C, %function
 228              	Vector7C:
 229              	.LFB122:
 230              		.loc 1 200 0
 231              		.cfi_startproc
 232              		@ args = 0, pretend = 0, frame = 0
 233              		@ frame_needed = 0, uses_anonymous_args = 0
 234 0000 10B5     		push	{r4, lr}
 235              	.LCFI4:
 236              		.cfi_def_cfa_offset 8
 237              		.loc 1 205 0
 238 0002 4FF4C040 		mov	r0, #24576
 239 0006 C4F20200 		movt	r0, 16386
 240              		.loc 1 207 0
 241 000a 40F20002 		movw	r2, #:lower16:.LANCHOR0
 242 000e C0F20002 		movt	r2, #:upper16:.LANCHOR0
 243              		.loc 1 205 0
 244 0012 4168     		ldr	r1, [r0, #4]
 245              		.loc 1 207 0
 246 0014 136A     		ldr	r3, [r2, #32]
 247              		.loc 1 205 0
 248 0016 01F03D01 		and	r1, r1, #61
 249              	.LVL8:
 250              		.loc 1 206 0
 251 001a C160     		str	r1, [r0, #12]
 252              		.loc 1 207 0
 253 001c 0BB1     		cbz	r3, .L11
 254              		.cfi_offset 14, -4
 255              		.cfi_offset 4, -8
 256              		.loc 1 208 0
 257 001e 506A     		ldr	r0, [r2, #36]
 258 0020 9847     		blx	r3
 259              	.LVL9:
 260              	.L11:
 261              		.loc 1 211 0
 262 0022 BDE81040 		pop	{r4, lr}
 263              		.loc 1 210 0
 264 0026 FFF7FEBF 		b	_port_irq_epilogue
 265              		.cfi_endproc
 266              	.LFE122:
 267              		.size	Vector7C, .-Vector7C
 268 002a 00BFAFF3 		.section	.text.Vector80,"ax",%progbits
 268      0080
 269              		.align	2
 270              		.p2align 4,,15
 271              		.global	Vector80
 272              		.thumb
 273              		.thumb_func
 274              		.type	Vector80, %function
 275              	Vector80:
 276              	.LFB123:
 277              		.loc 1 218 0
 278              		.cfi_startproc
 279              		@ args = 0, pretend = 0, frame = 0
ARM GAS  /tmp/ccQOjiSg.s 			page 6


 280              		@ frame_needed = 0, uses_anonymous_args = 0
 281 0000 10B5     		push	{r4, lr}
 282              	.LCFI5:
 283              		.cfi_def_cfa_offset 8
 284              		.loc 1 223 0
 285 0002 4FF4C040 		mov	r0, #24576
 286 0006 C4F20200 		movt	r0, 16386
 287              		.loc 1 225 0
 288 000a 40F20002 		movw	r2, #:lower16:.LANCHOR0
 289              		.loc 1 223 0
 290 000e 4368     		ldr	r3, [r0, #4]
 291              		.loc 1 225 0
 292 0010 C0F20002 		movt	r2, #:upper16:.LANCHOR0
 293              		.loc 1 223 0
 294 0014 9909     		lsrs	r1, r3, #6
 295 0016 01F03D01 		and	r1, r1, #61
 296              	.LVL10:
 297              		.loc 1 225 0
 298 001a 936A     		ldr	r3, [r2, #40]
 299              		.loc 1 224 0
 300 001c 8C01     		lsls	r4, r1, #6
 301              		.cfi_offset 14, -4
 302              		.cfi_offset 4, -8
 303 001e C460     		str	r4, [r0, #12]
 304              		.loc 1 225 0
 305 0020 0BB1     		cbz	r3, .L13
 306              		.loc 1 226 0
 307 0022 D06A     		ldr	r0, [r2, #44]
 308 0024 9847     		blx	r3
 309              	.LVL11:
 310              	.L13:
 311              		.loc 1 229 0
 312 0026 BDE81040 		pop	{r4, lr}
 313              		.loc 1 228 0
 314 002a FFF7FEBF 		b	_port_irq_epilogue
 315              		.cfi_endproc
 316              	.LFE123:
 317              		.size	Vector80, .-Vector80
 318 002e 00BF     		.section	.text.Vector84,"ax",%progbits
 319              		.align	2
 320              		.p2align 4,,15
 321              		.global	Vector84
 322              		.thumb
 323              		.thumb_func
 324              		.type	Vector84, %function
 325              	Vector84:
 326              	.LFB124:
 327              		.loc 1 236 0
 328              		.cfi_startproc
 329              		@ args = 0, pretend = 0, frame = 0
 330              		@ frame_needed = 0, uses_anonymous_args = 0
 331 0000 10B5     		push	{r4, lr}
 332              	.LCFI6:
 333              		.cfi_def_cfa_offset 8
 334              		.loc 1 241 0
 335 0002 4FF4C040 		mov	r0, #24576
 336 0006 C4F20200 		movt	r0, 16386
ARM GAS  /tmp/ccQOjiSg.s 			page 7


 337              		.loc 1 243 0
 338 000a 40F20002 		movw	r2, #:lower16:.LANCHOR0
 339              		.loc 1 241 0
 340 000e 4368     		ldr	r3, [r0, #4]
 341              		.loc 1 243 0
 342 0010 C0F20002 		movt	r2, #:upper16:.LANCHOR0
 343              		.loc 1 241 0
 344 0014 190C     		lsrs	r1, r3, #16
 345 0016 01F03D01 		and	r1, r1, #61
 346              	.LVL12:
 347              		.loc 1 243 0
 348 001a 136B     		ldr	r3, [r2, #48]
 349              		.loc 1 242 0
 350 001c 0C04     		lsls	r4, r1, #16
 351              		.cfi_offset 14, -4
 352              		.cfi_offset 4, -8
 353 001e C460     		str	r4, [r0, #12]
 354              		.loc 1 243 0
 355 0020 0BB1     		cbz	r3, .L15
 356              		.loc 1 244 0
 357 0022 506B     		ldr	r0, [r2, #52]
 358 0024 9847     		blx	r3
 359              	.LVL13:
 360              	.L15:
 361              		.loc 1 247 0
 362 0026 BDE81040 		pop	{r4, lr}
 363              		.loc 1 246 0
 364 002a FFF7FEBF 		b	_port_irq_epilogue
 365              		.cfi_endproc
 366              	.LFE124:
 367              		.size	Vector84, .-Vector84
 368 002e 00BF     		.section	.text.VectorFC,"ax",%progbits
 369              		.align	2
 370              		.p2align 4,,15
 371              		.global	VectorFC
 372              		.thumb
 373              		.thumb_func
 374              		.type	VectorFC, %function
 375              	VectorFC:
 376              	.LFB125:
 377              		.loc 1 254 0
 378              		.cfi_startproc
 379              		@ args = 0, pretend = 0, frame = 0
 380              		@ frame_needed = 0, uses_anonymous_args = 0
 381 0000 10B5     		push	{r4, lr}
 382              	.LCFI7:
 383              		.cfi_def_cfa_offset 8
 384              		.loc 1 259 0
 385 0002 4FF4C040 		mov	r0, #24576
 386 0006 C4F20200 		movt	r0, 16386
 387              		.loc 1 261 0
 388 000a 40F20002 		movw	r2, #:lower16:.LANCHOR0
 389              		.loc 1 259 0
 390 000e 4368     		ldr	r3, [r0, #4]
 391              		.loc 1 261 0
 392 0010 C0F20002 		movt	r2, #:upper16:.LANCHOR0
 393              		.loc 1 259 0
ARM GAS  /tmp/ccQOjiSg.s 			page 8


 394 0014 990D     		lsrs	r1, r3, #22
 395 0016 01F03D01 		and	r1, r1, #61
 396              	.LVL14:
 397              		.loc 1 261 0
 398 001a 936B     		ldr	r3, [r2, #56]
 399              		.loc 1 260 0
 400 001c 8C05     		lsls	r4, r1, #22
 401              		.cfi_offset 14, -4
 402              		.cfi_offset 4, -8
 403 001e C460     		str	r4, [r0, #12]
 404              		.loc 1 261 0
 405 0020 0BB1     		cbz	r3, .L17
 406              		.loc 1 262 0
 407 0022 D06B     		ldr	r0, [r2, #60]
 408 0024 9847     		blx	r3
 409              	.LVL15:
 410              	.L17:
 411              		.loc 1 265 0
 412 0026 BDE81040 		pop	{r4, lr}
 413              		.loc 1 264 0
 414 002a FFF7FEBF 		b	_port_irq_epilogue
 415              		.cfi_endproc
 416              	.LFE125:
 417              		.size	VectorFC, .-VectorFC
 418 002e 00BF     		.section	.text.Vector120,"ax",%progbits
 419              		.align	2
 420              		.p2align 4,,15
 421              		.global	Vector120
 422              		.thumb
 423              		.thumb_func
 424              		.type	Vector120, %function
 425              	Vector120:
 426              	.LFB126:
 427              		.loc 1 272 0
 428              		.cfi_startproc
 429              		@ args = 0, pretend = 0, frame = 0
 430              		@ frame_needed = 0, uses_anonymous_args = 0
 431 0000 10B5     		push	{r4, lr}
 432              	.LCFI8:
 433              		.cfi_def_cfa_offset 8
 434              		.loc 1 277 0
 435 0002 4FF4C840 		mov	r0, #25600
 436 0006 C4F20200 		movt	r0, 16386
 437              		.loc 1 279 0
 438 000a 40F20002 		movw	r2, #:lower16:.LANCHOR0
 439 000e C0F20002 		movt	r2, #:upper16:.LANCHOR0
 440              		.loc 1 277 0
 441 0012 0168     		ldr	r1, [r0, #0]
 442              		.loc 1 279 0
 443 0014 136C     		ldr	r3, [r2, #64]
 444              		.loc 1 277 0
 445 0016 01F03D01 		and	r1, r1, #61
 446              	.LVL16:
 447              		.loc 1 278 0
 448 001a 8160     		str	r1, [r0, #8]
 449              		.loc 1 279 0
 450 001c 0BB1     		cbz	r3, .L19
ARM GAS  /tmp/ccQOjiSg.s 			page 9


 451              		.cfi_offset 14, -4
 452              		.cfi_offset 4, -8
 453              		.loc 1 280 0
 454 001e 506C     		ldr	r0, [r2, #68]
 455 0020 9847     		blx	r3
 456              	.LVL17:
 457              	.L19:
 458              		.loc 1 283 0
 459 0022 BDE81040 		pop	{r4, lr}
 460              		.loc 1 282 0
 461 0026 FFF7FEBF 		b	_port_irq_epilogue
 462              		.cfi_endproc
 463              	.LFE126:
 464              		.size	Vector120, .-Vector120
 465 002a 00BFAFF3 		.section	.text.Vector124,"ax",%progbits
 465      0080
 466              		.align	2
 467              		.p2align 4,,15
 468              		.global	Vector124
 469              		.thumb
 470              		.thumb_func
 471              		.type	Vector124, %function
 472              	Vector124:
 473              	.LFB127:
 474              		.loc 1 290 0
 475              		.cfi_startproc
 476              		@ args = 0, pretend = 0, frame = 0
 477              		@ frame_needed = 0, uses_anonymous_args = 0
 478 0000 10B5     		push	{r4, lr}
 479              	.LCFI9:
 480              		.cfi_def_cfa_offset 8
 481              		.loc 1 295 0
 482 0002 4FF4C840 		mov	r0, #25600
 483 0006 C4F20200 		movt	r0, 16386
 484              		.loc 1 297 0
 485 000a 40F20002 		movw	r2, #:lower16:.LANCHOR0
 486              		.loc 1 295 0
 487 000e 0368     		ldr	r3, [r0, #0]
 488              		.loc 1 297 0
 489 0010 C0F20002 		movt	r2, #:upper16:.LANCHOR0
 490              		.loc 1 295 0
 491 0014 9909     		lsrs	r1, r3, #6
 492 0016 01F03D01 		and	r1, r1, #61
 493              	.LVL18:
 494              		.loc 1 297 0
 495 001a 936C     		ldr	r3, [r2, #72]
 496              		.loc 1 296 0
 497 001c 8C01     		lsls	r4, r1, #6
 498              		.cfi_offset 14, -4
 499              		.cfi_offset 4, -8
 500 001e 8460     		str	r4, [r0, #8]
 501              		.loc 1 297 0
 502 0020 0BB1     		cbz	r3, .L21
 503              		.loc 1 298 0
 504 0022 D06C     		ldr	r0, [r2, #76]
 505 0024 9847     		blx	r3
 506              	.LVL19:
ARM GAS  /tmp/ccQOjiSg.s 			page 10


 507              	.L21:
 508              		.loc 1 301 0
 509 0026 BDE81040 		pop	{r4, lr}
 510              		.loc 1 300 0
 511 002a FFF7FEBF 		b	_port_irq_epilogue
 512              		.cfi_endproc
 513              	.LFE127:
 514              		.size	Vector124, .-Vector124
 515 002e 00BF     		.section	.text.Vector128,"ax",%progbits
 516              		.align	2
 517              		.p2align 4,,15
 518              		.global	Vector128
 519              		.thumb
 520              		.thumb_func
 521              		.type	Vector128, %function
 522              	Vector128:
 523              	.LFB128:
 524              		.loc 1 308 0
 525              		.cfi_startproc
 526              		@ args = 0, pretend = 0, frame = 0
 527              		@ frame_needed = 0, uses_anonymous_args = 0
 528 0000 10B5     		push	{r4, lr}
 529              	.LCFI10:
 530              		.cfi_def_cfa_offset 8
 531              		.loc 1 313 0
 532 0002 4FF4C840 		mov	r0, #25600
 533 0006 C4F20200 		movt	r0, 16386
 534              		.loc 1 315 0
 535 000a 40F20002 		movw	r2, #:lower16:.LANCHOR0
 536              		.loc 1 313 0
 537 000e 0368     		ldr	r3, [r0, #0]
 538              		.loc 1 315 0
 539 0010 C0F20002 		movt	r2, #:upper16:.LANCHOR0
 540              		.loc 1 313 0
 541 0014 190C     		lsrs	r1, r3, #16
 542 0016 01F03D01 		and	r1, r1, #61
 543              	.LVL20:
 544              		.loc 1 315 0
 545 001a 136D     		ldr	r3, [r2, #80]
 546              		.loc 1 314 0
 547 001c 0C04     		lsls	r4, r1, #16
 548              		.cfi_offset 14, -4
 549              		.cfi_offset 4, -8
 550 001e 8460     		str	r4, [r0, #8]
 551              		.loc 1 315 0
 552 0020 0BB1     		cbz	r3, .L23
 553              		.loc 1 316 0
 554 0022 506D     		ldr	r0, [r2, #84]
 555 0024 9847     		blx	r3
 556              	.LVL21:
 557              	.L23:
 558              		.loc 1 319 0
 559 0026 BDE81040 		pop	{r4, lr}
 560              		.loc 1 318 0
 561 002a FFF7FEBF 		b	_port_irq_epilogue
 562              		.cfi_endproc
 563              	.LFE128:
ARM GAS  /tmp/ccQOjiSg.s 			page 11


 564              		.size	Vector128, .-Vector128
 565 002e 00BF     		.section	.text.Vector12C,"ax",%progbits
 566              		.align	2
 567              		.p2align 4,,15
 568              		.global	Vector12C
 569              		.thumb
 570              		.thumb_func
 571              		.type	Vector12C, %function
 572              	Vector12C:
 573              	.LFB129:
 574              		.loc 1 326 0
 575              		.cfi_startproc
 576              		@ args = 0, pretend = 0, frame = 0
 577              		@ frame_needed = 0, uses_anonymous_args = 0
 578 0000 10B5     		push	{r4, lr}
 579              	.LCFI11:
 580              		.cfi_def_cfa_offset 8
 581              		.loc 1 331 0
 582 0002 4FF4C840 		mov	r0, #25600
 583 0006 C4F20200 		movt	r0, 16386
 584              		.loc 1 333 0
 585 000a 40F20002 		movw	r2, #:lower16:.LANCHOR0
 586              		.loc 1 331 0
 587 000e 0368     		ldr	r3, [r0, #0]
 588              		.loc 1 333 0
 589 0010 C0F20002 		movt	r2, #:upper16:.LANCHOR0
 590              		.loc 1 331 0
 591 0014 990D     		lsrs	r1, r3, #22
 592 0016 01F03D01 		and	r1, r1, #61
 593              	.LVL22:
 594              		.loc 1 333 0
 595 001a 936D     		ldr	r3, [r2, #88]
 596              		.loc 1 332 0
 597 001c 8C05     		lsls	r4, r1, #22
 598              		.cfi_offset 14, -4
 599              		.cfi_offset 4, -8
 600 001e 8460     		str	r4, [r0, #8]
 601              		.loc 1 333 0
 602 0020 0BB1     		cbz	r3, .L25
 603              		.loc 1 334 0
 604 0022 D06D     		ldr	r0, [r2, #92]
 605 0024 9847     		blx	r3
 606              	.LVL23:
 607              	.L25:
 608              		.loc 1 337 0
 609 0026 BDE81040 		pop	{r4, lr}
 610              		.loc 1 336 0
 611 002a FFF7FEBF 		b	_port_irq_epilogue
 612              		.cfi_endproc
 613              	.LFE129:
 614              		.size	Vector12C, .-Vector12C
 615 002e 00BF     		.section	.text.Vector130,"ax",%progbits
 616              		.align	2
 617              		.p2align 4,,15
 618              		.global	Vector130
 619              		.thumb
 620              		.thumb_func
ARM GAS  /tmp/ccQOjiSg.s 			page 12


 621              		.type	Vector130, %function
 622              	Vector130:
 623              	.LFB130:
 624              		.loc 1 344 0
 625              		.cfi_startproc
 626              		@ args = 0, pretend = 0, frame = 0
 627              		@ frame_needed = 0, uses_anonymous_args = 0
 628 0000 10B5     		push	{r4, lr}
 629              	.LCFI12:
 630              		.cfi_def_cfa_offset 8
 631              		.loc 1 349 0
 632 0002 4FF4C840 		mov	r0, #25600
 633 0006 C4F20200 		movt	r0, 16386
 634              		.loc 1 351 0
 635 000a 40F20002 		movw	r2, #:lower16:.LANCHOR0
 636 000e C0F20002 		movt	r2, #:upper16:.LANCHOR0
 637              		.loc 1 349 0
 638 0012 4168     		ldr	r1, [r0, #4]
 639              		.loc 1 351 0
 640 0014 136E     		ldr	r3, [r2, #96]
 641              		.loc 1 349 0
 642 0016 01F03D01 		and	r1, r1, #61
 643              	.LVL24:
 644              		.loc 1 350 0
 645 001a C160     		str	r1, [r0, #12]
 646              		.loc 1 351 0
 647 001c 0BB1     		cbz	r3, .L27
 648              		.cfi_offset 14, -4
 649              		.cfi_offset 4, -8
 650              		.loc 1 352 0
 651 001e 506E     		ldr	r0, [r2, #100]
 652 0020 9847     		blx	r3
 653              	.LVL25:
 654              	.L27:
 655              		.loc 1 355 0
 656 0022 BDE81040 		pop	{r4, lr}
 657              		.loc 1 354 0
 658 0026 FFF7FEBF 		b	_port_irq_epilogue
 659              		.cfi_endproc
 660              	.LFE130:
 661              		.size	Vector130, .-Vector130
 662 002a 00BFAFF3 		.section	.text.Vector150,"ax",%progbits
 662      0080
 663              		.align	2
 664              		.p2align 4,,15
 665              		.global	Vector150
 666              		.thumb
 667              		.thumb_func
 668              		.type	Vector150, %function
 669              	Vector150:
 670              	.LFB131:
 671              		.loc 1 362 0
 672              		.cfi_startproc
 673              		@ args = 0, pretend = 0, frame = 0
 674              		@ frame_needed = 0, uses_anonymous_args = 0
 675 0000 10B5     		push	{r4, lr}
 676              	.LCFI13:
ARM GAS  /tmp/ccQOjiSg.s 			page 13


 677              		.cfi_def_cfa_offset 8
 678              		.loc 1 367 0
 679 0002 4FF4C840 		mov	r0, #25600
 680 0006 C4F20200 		movt	r0, 16386
 681              		.loc 1 369 0
 682 000a 40F20002 		movw	r2, #:lower16:.LANCHOR0
 683              		.loc 1 367 0
 684 000e 4368     		ldr	r3, [r0, #4]
 685              		.loc 1 369 0
 686 0010 C0F20002 		movt	r2, #:upper16:.LANCHOR0
 687              		.loc 1 367 0
 688 0014 9909     		lsrs	r1, r3, #6
 689 0016 01F03D01 		and	r1, r1, #61
 690              	.LVL26:
 691              		.loc 1 369 0
 692 001a 936E     		ldr	r3, [r2, #104]
 693              		.loc 1 368 0
 694 001c 8C01     		lsls	r4, r1, #6
 695              		.cfi_offset 14, -4
 696              		.cfi_offset 4, -8
 697 001e C460     		str	r4, [r0, #12]
 698              		.loc 1 369 0
 699 0020 0BB1     		cbz	r3, .L29
 700              		.loc 1 370 0
 701 0022 D06E     		ldr	r0, [r2, #108]
 702 0024 9847     		blx	r3
 703              	.LVL27:
 704              	.L29:
 705              		.loc 1 373 0
 706 0026 BDE81040 		pop	{r4, lr}
 707              		.loc 1 372 0
 708 002a FFF7FEBF 		b	_port_irq_epilogue
 709              		.cfi_endproc
 710              	.LFE131:
 711              		.size	Vector150, .-Vector150
 712 002e 00BF     		.section	.text.Vector154,"ax",%progbits
 713              		.align	2
 714              		.p2align 4,,15
 715              		.global	Vector154
 716              		.thumb
 717              		.thumb_func
 718              		.type	Vector154, %function
 719              	Vector154:
 720              	.LFB132:
 721              		.loc 1 380 0
 722              		.cfi_startproc
 723              		@ args = 0, pretend = 0, frame = 0
 724              		@ frame_needed = 0, uses_anonymous_args = 0
 725 0000 10B5     		push	{r4, lr}
 726              	.LCFI14:
 727              		.cfi_def_cfa_offset 8
 728              		.loc 1 385 0
 729 0002 4FF4C840 		mov	r0, #25600
 730 0006 C4F20200 		movt	r0, 16386
 731              		.loc 1 387 0
 732 000a 40F20002 		movw	r2, #:lower16:.LANCHOR0
 733              		.loc 1 385 0
ARM GAS  /tmp/ccQOjiSg.s 			page 14


 734 000e 4368     		ldr	r3, [r0, #4]
 735              		.loc 1 387 0
 736 0010 C0F20002 		movt	r2, #:upper16:.LANCHOR0
 737              		.loc 1 385 0
 738 0014 190C     		lsrs	r1, r3, #16
 739 0016 01F03D01 		and	r1, r1, #61
 740              	.LVL28:
 741              		.loc 1 387 0
 742 001a 136F     		ldr	r3, [r2, #112]
 743              		.loc 1 386 0
 744 001c 0C04     		lsls	r4, r1, #16
 745              		.cfi_offset 14, -4
 746              		.cfi_offset 4, -8
 747 001e C460     		str	r4, [r0, #12]
 748              		.loc 1 387 0
 749 0020 0BB1     		cbz	r3, .L31
 750              		.loc 1 388 0
 751 0022 506F     		ldr	r0, [r2, #116]
 752 0024 9847     		blx	r3
 753              	.LVL29:
 754              	.L31:
 755              		.loc 1 391 0
 756 0026 BDE81040 		pop	{r4, lr}
 757              		.loc 1 390 0
 758 002a FFF7FEBF 		b	_port_irq_epilogue
 759              		.cfi_endproc
 760              	.LFE132:
 761              		.size	Vector154, .-Vector154
 762 002e 00BF     		.section	.text.Vector158,"ax",%progbits
 763              		.align	2
 764              		.p2align 4,,15
 765              		.global	Vector158
 766              		.thumb
 767              		.thumb_func
 768              		.type	Vector158, %function
 769              	Vector158:
 770              	.LFB133:
 771              		.loc 1 398 0
 772              		.cfi_startproc
 773              		@ args = 0, pretend = 0, frame = 0
 774              		@ frame_needed = 0, uses_anonymous_args = 0
 775 0000 10B5     		push	{r4, lr}
 776              	.LCFI15:
 777              		.cfi_def_cfa_offset 8
 778              		.loc 1 403 0
 779 0002 4FF4C840 		mov	r0, #25600
 780 0006 C4F20200 		movt	r0, 16386
 781              		.loc 1 405 0
 782 000a 40F20002 		movw	r2, #:lower16:.LANCHOR0
 783              		.loc 1 403 0
 784 000e 4368     		ldr	r3, [r0, #4]
 785              		.loc 1 405 0
 786 0010 C0F20002 		movt	r2, #:upper16:.LANCHOR0
 787              		.loc 1 403 0
 788 0014 990D     		lsrs	r1, r3, #22
 789 0016 01F03D01 		and	r1, r1, #61
 790              	.LVL30:
ARM GAS  /tmp/ccQOjiSg.s 			page 15


 791              		.loc 1 405 0
 792 001a 936F     		ldr	r3, [r2, #120]
 793              		.loc 1 404 0
 794 001c 8C05     		lsls	r4, r1, #22
 795              		.cfi_offset 14, -4
 796              		.cfi_offset 4, -8
 797 001e C460     		str	r4, [r0, #12]
 798              		.loc 1 405 0
 799 0020 0BB1     		cbz	r3, .L33
 800              		.loc 1 406 0
 801 0022 D06F     		ldr	r0, [r2, #124]
 802 0024 9847     		blx	r3
 803              	.LVL31:
 804              	.L33:
 805              		.loc 1 409 0
 806 0026 BDE81040 		pop	{r4, lr}
 807              		.loc 1 408 0
 808 002a FFF7FEBF 		b	_port_irq_epilogue
 809              		.cfi_endproc
 810              	.LFE133:
 811              		.size	Vector158, .-Vector158
 812 002e 00BF     		.section	.text.dmaInit,"ax",%progbits
 813              		.align	2
 814              		.p2align 4,,15
 815              		.global	dmaInit
 816              		.thumb
 817              		.thumb_func
 818              		.type	dmaInit, %function
 819              	dmaInit:
 820              	.LFB134:
 821              		.loc 1 420 0
 822              		.cfi_startproc
 823              		@ args = 0, pretend = 0, frame = 0
 824              		@ frame_needed = 0, uses_anonymous_args = 0
 825              		@ link register save eliminated.
 826 0000 2DE9F00F 		push	{r4, r5, r6, r7, r8, r9, sl, fp}
 827              	.LCFI16:
 828              		.cfi_def_cfa_offset 32
 829              		.loc 1 425 0
 830 0004 40F20001 		movw	r1, #:lower16:.LANCHOR2
 831              		.loc 1 423 0
 832 0008 40F20005 		movw	r5, #:lower16:.LANCHOR1
 833              		.cfi_offset 11, -4
 834              		.cfi_offset 10, -8
 835              		.cfi_offset 9, -12
 836              		.cfi_offset 8, -16
 837              		.cfi_offset 7, -20
 838              		.cfi_offset 6, -24
 839              		.cfi_offset 5, -28
 840              		.cfi_offset 4, -32
 841              		.loc 1 425 0
 842 000c C0F20001 		movt	r1, #:upper16:.LANCHOR2
 843              		.loc 1 423 0
 844 0010 C0F20005 		movt	r5, #:upper16:.LANCHOR1
 845 0014 0023     		movs	r3, #0
 846              		.loc 1 425 0
 847 0016 D1F81880 		ldr	r8, [r1, #24]
ARM GAS  /tmp/ccQOjiSg.s 			page 16


 848 001a D1F824C0 		ldr	ip, [r1, #36]
 849 001e 0F6B     		ldr	r7, [r1, #48]
 850 0020 CE6B     		ldr	r6, [r1, #60]
 851 0022 D1F800A0 		ldr	sl, [r1, #0]
 852 0026 D1F80C90 		ldr	r9, [r1, #12]
 853 002a D1F848B0 		ldr	fp, [r1, #72]
 854              		.loc 1 423 0
 855 002e 2B60     		str	r3, [r5, #0]
 856              	.LVL32:
 857              		.loc 1 425 0
 858 0030 4D6D     		ldr	r5, [r1, #84]
 859 0032 CAF80030 		str	r3, [sl, #0]
 860              		.loc 1 426 0
 861 0036 40F20002 		movw	r2, #:lower16:.LANCHOR0
 862 003a C0F20002 		movt	r2, #:upper16:.LANCHOR0
 863              		.loc 1 425 0
 864 003e C9F80030 		str	r3, [r9, #0]
 865 0042 C8F80030 		str	r3, [r8, #0]
 866 0046 CCF80030 		str	r3, [ip, #0]
 867 004a 3B60     		str	r3, [r7, #0]
 868 004c 3360     		str	r3, [r6, #0]
 869 004e 0F6E     		ldr	r7, [r1, #96]
 870 0050 CBF80030 		str	r3, [fp, #0]
 871 0054 CE6E     		ldr	r6, [r1, #108]
 872 0056 2B60     		str	r3, [r5, #0]
 873 0058 8D6F     		ldr	r5, [r1, #120]
 874 005a 3B60     		str	r3, [r7, #0]
 875              		.loc 1 428 0
 876 005c 4FF4C044 		mov	r4, #24576
 877              		.loc 1 430 0
 878 0060 4FF4C840 		mov	r0, #25600
 879              		.loc 1 428 0
 880 0064 C4F20204 		movt	r4, 16386
 881              		.loc 1 430 0
 882 0068 C4F20200 		movt	r0, 16386
 883              		.loc 1 425 0
 884 006c 3360     		str	r3, [r6, #0]
 885              		.loc 1 426 0
 886 006e 1360     		str	r3, [r2, #0]
 887              	.LVL33:
 888 0070 9360     		str	r3, [r2, #8]
 889              	.LVL34:
 890 0072 1361     		str	r3, [r2, #16]
 891              	.LVL35:
 892 0074 9361     		str	r3, [r2, #24]
 893              	.LVL36:
 894 0076 1362     		str	r3, [r2, #32]
 895              	.LVL37:
 896 0078 9362     		str	r3, [r2, #40]
 897              	.LVL38:
 898 007a 1363     		str	r3, [r2, #48]
 899              	.LVL39:
 900 007c 9363     		str	r3, [r2, #56]
 901              	.LVL40:
 902 007e 1364     		str	r3, [r2, #64]
 903              	.LVL41:
 904 0080 9364     		str	r3, [r2, #72]
ARM GAS  /tmp/ccQOjiSg.s 			page 17


 905              	.LVL42:
 906              		.loc 1 425 0
 907 0082 2B60     		str	r3, [r5, #0]
 908 0084 D1F88480 		ldr	r8, [r1, #132]
 909 0088 D1F890C0 		ldr	ip, [r1, #144]
 910 008c D1F89C70 		ldr	r7, [r1, #156]
 911 0090 D1F8A860 		ldr	r6, [r1, #168]
 912 0094 D1F8B450 		ldr	r5, [r1, #180]
 913 0098 C8F80030 		str	r3, [r8, #0]
 914              		.loc 1 428 0
 915 009c 4FF0FF31 		mov	r1, #-1
 916              		.loc 1 425 0
 917 00a0 CCF80030 		str	r3, [ip, #0]
 918              		.loc 1 426 0
 919 00a4 1365     		str	r3, [r2, #80]
 920              	.LVL43:
 921              		.loc 1 425 0
 922 00a6 3B60     		str	r3, [r7, #0]
 923              		.loc 1 426 0
 924 00a8 9365     		str	r3, [r2, #88]
 925              	.LVL44:
 926              		.loc 1 425 0
 927 00aa 3360     		str	r3, [r6, #0]
 928              		.loc 1 426 0
 929 00ac 1366     		str	r3, [r2, #96]
 930              	.LVL45:
 931 00ae 9366     		str	r3, [r2, #104]
 932              	.LVL46:
 933 00b0 1367     		str	r3, [r2, #112]
 934              	.LVL47:
 935              		.loc 1 425 0
 936 00b2 2B60     		str	r3, [r5, #0]
 937              		.loc 1 426 0
 938 00b4 9367     		str	r3, [r2, #120]
 939              	.LVL48:
 940              		.loc 1 428 0
 941 00b6 A160     		str	r1, [r4, #8]
 942              		.loc 1 429 0
 943 00b8 E160     		str	r1, [r4, #12]
 944              		.loc 1 430 0
 945 00ba 8160     		str	r1, [r0, #8]
 946              		.loc 1 431 0
 947 00bc C160     		str	r1, [r0, #12]
 948              		.loc 1 432 0
 949 00be BDE8F00F 		pop	{r4, r5, r6, r7, r8, r9, sl, fp}
 950 00c2 7047     		bx	lr
 951              		.cfi_endproc
 952              	.LFE134:
 953              		.size	dmaInit, .-dmaInit
 954 00c4 AFF30080 		.section	.text.dmaStreamAllocate,"ax",%progbits
 954      AFF30080 
 954      AFF30080 
 955              		.align	2
 956              		.p2align 4,,15
 957              		.global	dmaStreamAllocate
 958              		.thumb
 959              		.thumb_func
ARM GAS  /tmp/ccQOjiSg.s 			page 18


 960              		.type	dmaStreamAllocate, %function
 961              	dmaStreamAllocate:
 962              	.LFB135:
 963              		.loc 1 461 0
 964              		.cfi_startproc
 965              		@ args = 0, pretend = 0, frame = 0
 966              		@ frame_needed = 0, uses_anonymous_args = 0
 967              	.LVL49:
 968 0000 2DE9F041 		push	{r4, r5, r6, r7, r8, lr}
 969              	.LCFI17:
 970              		.cfi_def_cfa_offset 24
 971              		.loc 1 466 0
 972 0004 40F20004 		movw	r4, #:lower16:.LANCHOR1
 973              		.cfi_offset 14, -4
 974              		.cfi_offset 8, -8
 975              		.cfi_offset 7, -12
 976              		.cfi_offset 6, -16
 977              		.cfi_offset 5, -20
 978              		.cfi_offset 4, -24
 979 0008 C0F20004 		movt	r4, #:upper16:.LANCHOR1
 980 000c 457A     		ldrb	r5, [r0, #9]	@ zero_extendqisi2
 981 000e 2668     		ldr	r6, [r4, #0]
 982 0010 4FF0010C 		mov	ip, #1
 983 0014 0CFA05F7 		lsl	r7, ip, r5
 984 0018 3742     		tst	r7, r6
 985 001a 3ED1     		bne	.L40
 986              		.loc 1 470 0
 987 001c 40F2000C 		movw	ip, #:lower16:.LANCHOR0
 988 0020 C0F2000C 		movt	ip, #:upper16:.LANCHOR0
 989              		.loc 1 472 0
 990 0024 47EA0606 		orr	r6, r7, r6
 991              		.loc 1 471 0
 992 0028 0CEBC508 		add	r8, ip, r5, lsl #3
 993              		.loc 1 475 0
 994 002c 16F0FF0F 		tst	r6, #255
 995              		.loc 1 471 0
 996 0030 C8F80430 		str	r3, [r8, #4]
 997              		.loc 1 476 0
 998 0034 1CBF     		itt	ne
 999 0036 4FF46053 		movne	r3, #14336
 1000              	.LVL50:
 1001 003a C4F20203 		movtne	r3, 16386
 1002              		.loc 1 470 0
 1003 003e 4CF83520 		str	r2, [ip, r5, lsl #3]
 1004              		.loc 1 472 0
 1005 0042 2660     		str	r6, [r4, #0]
 1006              		.loc 1 476 0
 1007 0044 1EBF     		ittt	ne
 1008 0046 1C6B     		ldrne	r4, [r3, #48]
 1009 0048 44F40014 		orrne	r4, r4, #2097152
 1010 004c 1C63     		strne	r4, [r3, #48]
 1011              		.loc 1 477 0
 1012 004e 16F47F4F 		tst	r6, #65280
 1013              		.loc 1 478 0
 1014 0052 1FBF     		itttt	ne
 1015 0054 4FF46053 		movne	r3, #14336
 1016 0058 C4F20203 		movtne	r3, 16386
ARM GAS  /tmp/ccQOjiSg.s 			page 19


 1017 005c 1C6B     		ldrne	r4, [r3, #48]
 1018 005e 44F48004 		orrne	r4, r4, #4194304
 1019 0062 18BF     		it	ne
 1020 0064 1C63     		strne	r4, [r3, #48]
 1021              		.loc 1 481 0
 1022 0066 0368     		ldr	r3, [r0, #0]
 1023 0068 1D68     		ldr	r5, [r3, #0]
 1024 006a 25F01F04 		bic	r4, r5, #31
 1025 006e 1C60     		str	r4, [r3, #0]
 1026              	.L39:
 1027              		.loc 1 481 0 is_stmt 0 discriminator 1
 1028 0070 1F68     		ldr	r7, [r3, #0]
 1029 0072 17F00104 		ands	r4, r7, #1
 1030 0076 FBD1     		bne	.L39
 1031              		.loc 1 481 0 discriminator 2
 1032 0078 067A     		ldrb	r6, [r0, #8]	@ zero_extendqisi2
 1033 007a 4568     		ldr	r5, [r0, #4]
 1034 007c 3D27     		movs	r7, #61
 1035 007e 17FA06F6 		lsls	r6, r7, r6
 1036 0082 2E60     		str	r6, [r5, #0]
 1037              		.loc 1 483 0 is_stmt 1 discriminator 2
 1038 0084 2125     		movs	r5, #33
 1039              		.loc 1 482 0 discriminator 2
 1040 0086 1C60     		str	r4, [r3, #0]
 1041              		.loc 1 483 0 discriminator 2
 1042 0088 5D61     		str	r5, [r3, #20]
 1043              		.loc 1 486 0 discriminator 2
 1044 008a 4AB1     		cbz	r2, .L41
 1045              		.loc 1 487 0
 1046 008c 807A     		ldrb	r0, [r0, #10]	@ zero_extendqisi2
 1047              	.LVL51:
 1048 008e 0901     		lsls	r1, r1, #4
 1049              	.LVL52:
 1050 0090 FFF7FEFF 		bl	nvicEnableVector
 1051              	.LVL53:
 1052              		.loc 1 489 0
 1053 0094 2046     		mov	r0, r4
 1054 0096 BDE8F081 		pop	{r4, r5, r6, r7, r8, pc}
 1055              	.LVL54:
 1056              	.L40:
 1057              		.loc 1 467 0
 1058 009a 6046     		mov	r0, ip
 1059              	.LVL55:
 1060 009c BDE8F081 		pop	{r4, r5, r6, r7, r8, pc}
 1061              	.LVL56:
 1062              	.L41:
 1063              		.loc 1 489 0
 1064 00a0 1046     		mov	r0, r2
 1065              	.LVL57:
 1066              		.loc 1 490 0
 1067 00a2 BDE8F081 		pop	{r4, r5, r6, r7, r8, pc}
 1068              		.cfi_endproc
 1069              	.LFE135:
 1070              		.size	dmaStreamAllocate, .-dmaStreamAllocate
 1071 00a6 00BFAFF3 		.section	.text.dmaStreamRelease,"ax",%progbits
 1071      0080AFF3 
 1071      0080
ARM GAS  /tmp/ccQOjiSg.s 			page 20


 1072              		.align	2
 1073              		.p2align 4,,15
 1074              		.global	dmaStreamRelease
 1075              		.thumb
 1076              		.thumb_func
 1077              		.type	dmaStreamRelease, %function
 1078              	dmaStreamRelease:
 1079              	.LFB136:
 1080              		.loc 1 505 0
 1081              		.cfi_startproc
 1082              		@ args = 0, pretend = 0, frame = 0
 1083              		@ frame_needed = 0, uses_anonymous_args = 0
 1084              	.LVL58:
 1085 0000 10B5     		push	{r4, lr}
 1086              	.LCFI18:
 1087              		.cfi_def_cfa_offset 8
 1088              		.loc 1 505 0
 1089 0002 0446     		mov	r4, r0
 1090              		.cfi_offset 14, -4
 1091              		.cfi_offset 4, -8
 1092              		.loc 1 514 0
 1093 0004 807A     		ldrb	r0, [r0, #10]	@ zero_extendqisi2
 1094              	.LVL59:
 1095 0006 FFF7FEFF 		bl	nvicDisableVector
 1096              		.loc 1 517 0
 1097 000a 40F20003 		movw	r3, #:lower16:.LANCHOR1
 1098 000e C0F20003 		movt	r3, #:upper16:.LANCHOR1
 1099 0012 627A     		ldrb	r2, [r4, #9]	@ zero_extendqisi2
 1100 0014 1968     		ldr	r1, [r3, #0]
 1101 0016 0120     		movs	r0, #1
 1102 0018 9040     		lsls	r0, r0, r2
 1103 001a 21EA0002 		bic	r2, r1, r0
 1104              		.loc 1 520 0
 1105 001e 12F0FF0F 		tst	r2, #255
 1106              		.loc 1 517 0
 1107 0022 1A60     		str	r2, [r3, #0]
 1108              		.loc 1 521 0
 1109 0024 01BF     		itttt	eq
 1110 0026 4FF46053 		moveq	r3, #14336
 1111 002a C4F20203 		movteq	r3, 16386
 1112 002e 196B     		ldreq	r1, [r3, #48]
 1113 0030 21F40011 		biceq	r1, r1, #2097152
 1114 0034 08BF     		it	eq
 1115 0036 1963     		streq	r1, [r3, #48]
 1116              		.loc 1 522 0
 1117 0038 12F47F4F 		tst	r2, #65280
 1118              		.loc 1 523 0
 1119 003c 01BF     		itttt	eq
 1120 003e 4FF46053 		moveq	r3, #14336
 1121 0042 C4F20203 		movteq	r3, 16386
 1122 0046 1A6B     		ldreq	r2, [r3, #48]
 1123 0048 22F48002 		biceq	r2, r2, #4194304
 1124 004c 08BF     		it	eq
 1125 004e 1A63     		streq	r2, [r3, #48]
 1126 0050 10BD     		pop	{r4, pc}
 1127              		.cfi_endproc
 1128              	.LFE136:
ARM GAS  /tmp/ccQOjiSg.s 			page 21


 1129              		.size	dmaStreamRelease, .-dmaStreamRelease
 1130              		.global	_stm32_dma_streams
 1131 0052 00BFAFF3 		.section	.bss.dma_isr_redir,"aw",%nobits
 1131      0080AFF3 
 1131      0080AFF3 
 1131      0080
 1132              		.align	2
 1133              		.set	.LANCHOR0,. + 0
 1134              		.type	dma_isr_redir, %object
 1135              		.size	dma_isr_redir, 128
 1136              	dma_isr_redir:
 1137 0000 00000000 		.space	128
 1137      00000000 
 1137      00000000 
 1137      00000000 
 1137      00000000 
 1138              		.section	.rodata._stm32_dma_streams,"a",%progbits
 1139              		.align	2
 1140              		.set	.LANCHOR2,. + 0
 1141              		.type	_stm32_dma_streams, %object
 1142              		.size	_stm32_dma_streams, 192
 1143              	_stm32_dma_streams:
 1144 0000 10600240 		.word	1073897488
 1145 0004 08600240 		.word	1073897480
 1146 0008 00       		.byte	0
 1147 0009 00       		.byte	0
 1148 000a 0B       		.byte	11
 1149 000b 00       		.space	1
 1150 000c 28600240 		.word	1073897512
 1151 0010 08600240 		.word	1073897480
 1152 0014 06       		.byte	6
 1153 0015 01       		.byte	1
 1154 0016 0C       		.byte	12
 1155 0017 00       		.space	1
 1156 0018 40600240 		.word	1073897536
 1157 001c 08600240 		.word	1073897480
 1158 0020 10       		.byte	16
 1159 0021 02       		.byte	2
 1160 0022 0D       		.byte	13
 1161 0023 00       		.space	1
 1162 0024 58600240 		.word	1073897560
 1163 0028 08600240 		.word	1073897480
 1164 002c 16       		.byte	22
 1165 002d 03       		.byte	3
 1166 002e 0E       		.byte	14
 1167 002f 00       		.space	1
 1168 0030 70600240 		.word	1073897584
 1169 0034 0C600240 		.word	1073897484
 1170 0038 00       		.byte	0
 1171 0039 04       		.byte	4
 1172 003a 0F       		.byte	15
 1173 003b 00       		.space	1
 1174 003c 88600240 		.word	1073897608
 1175 0040 0C600240 		.word	1073897484
 1176 0044 06       		.byte	6
 1177 0045 05       		.byte	5
 1178 0046 10       		.byte	16
ARM GAS  /tmp/ccQOjiSg.s 			page 22


 1179 0047 00       		.space	1
 1180 0048 A0600240 		.word	1073897632
 1181 004c 0C600240 		.word	1073897484
 1182 0050 10       		.byte	16
 1183 0051 06       		.byte	6
 1184 0052 11       		.byte	17
 1185 0053 00       		.space	1
 1186 0054 B8600240 		.word	1073897656
 1187 0058 0C600240 		.word	1073897484
 1188 005c 16       		.byte	22
 1189 005d 07       		.byte	7
 1190 005e 2F       		.byte	47
 1191 005f 00       		.space	1
 1192 0060 10640240 		.word	1073898512
 1193 0064 08640240 		.word	1073898504
 1194 0068 00       		.byte	0
 1195 0069 08       		.byte	8
 1196 006a 38       		.byte	56
 1197 006b 00       		.space	1
 1198 006c 28640240 		.word	1073898536
 1199 0070 08640240 		.word	1073898504
 1200 0074 06       		.byte	6
 1201 0075 09       		.byte	9
 1202 0076 39       		.byte	57
 1203 0077 00       		.space	1
 1204 0078 40640240 		.word	1073898560
 1205 007c 08640240 		.word	1073898504
 1206 0080 10       		.byte	16
 1207 0081 0A       		.byte	10
 1208 0082 3A       		.byte	58
 1209 0083 00       		.space	1
 1210 0084 58640240 		.word	1073898584
 1211 0088 08640240 		.word	1073898504
 1212 008c 16       		.byte	22
 1213 008d 0B       		.byte	11
 1214 008e 3B       		.byte	59
 1215 008f 00       		.space	1
 1216 0090 70640240 		.word	1073898608
 1217 0094 0C640240 		.word	1073898508
 1218 0098 00       		.byte	0
 1219 0099 0C       		.byte	12
 1220 009a 3C       		.byte	60
 1221 009b 00       		.space	1
 1222 009c 88640240 		.word	1073898632
 1223 00a0 0C640240 		.word	1073898508
 1224 00a4 06       		.byte	6
 1225 00a5 0D       		.byte	13
 1226 00a6 44       		.byte	68
 1227 00a7 00       		.space	1
 1228 00a8 A0640240 		.word	1073898656
 1229 00ac 0C640240 		.word	1073898508
 1230 00b0 10       		.byte	16
 1231 00b1 0E       		.byte	14
 1232 00b2 45       		.byte	69
 1233 00b3 00       		.space	1
 1234 00b4 B8640240 		.word	1073898680
 1235 00b8 0C640240 		.word	1073898508
ARM GAS  /tmp/ccQOjiSg.s 			page 23


 1236 00bc 16       		.byte	22
 1237 00bd 0F       		.byte	15
 1238 00be 46       		.byte	70
 1239 00bf 00       		.space	1
 1240              		.section	.bss.dma_streams_mask,"aw",%nobits
 1241              		.align	2
 1242              		.set	.LANCHOR1,. + 0
 1243              		.type	dma_streams_mask, %object
 1244              		.size	dma_streams_mask, 4
 1245              	dma_streams_mask:
 1246 0000 00000000 		.space	4
 1247              		.text
 1248              	.Letext0: